Archive member included to satisfy reference by file (symbol)

C:\gnat\2021-arm-elf\arm-eabi\lib\gnat\ravenscar-full-nrf52833\adalib\libgnarl.a(a-reatim.o)
                              test.o (ada__real_time__Oadd)
C:\gnat\2021-arm-elf\arm-eabi\lib\gnat\ravenscar-full-nrf52833\adalib\libgnarl.a(a-retide.o)
                              test.o (ada__real_time__delays__delay_until)
C:\gnat\2021-arm-elf\arm-eabi\lib\gnat\ravenscar-full-nrf52833\adalib\libgnarl.a(s-bbbosu.o)
                              C:\gnat\2021-arm-elf\arm-eabi\lib\gnat\ravenscar-full-nrf52833\adalib\libgnarl.a(a-reatim.o) (system__bb__board_support__time__read_clock)
C:\gnat\2021-arm-elf\arm-eabi\lib\gnat\ravenscar-full-nrf52833\adalib\libgnarl.a(s-bbcppr.o)
                              C:\gnat\2021-arm-elf\arm-eabi\lib\gnat\ravenscar-full-nrf52833\adalib\libgnarl.a(s-bbbosu.o) (system__bb__cpu_primitives__install_trap_handler)
C:\gnat\2021-arm-elf\arm-eabi\lib\gnat\ravenscar-full-nrf52833\adalib\libgnarl.a(s-bbinte.o)
                              C:\gnat\2021-arm-elf\arm-eabi\lib\gnat\ravenscar-full-nrf52833\adalib\libgnarl.a(s-bbbosu.o) (system__bb__interrupts__interrupt_wrapper)
C:\gnat\2021-arm-elf\arm-eabi\lib\gnat\ravenscar-full-nrf52833\adalib\libgnarl.a(s-bbthqu.o)
                              C:\gnat\2021-arm-elf\arm-eabi\lib\gnat\ravenscar-full-nrf52833\adalib\libgnarl.a(s-bbinte.o) (system__bb__threads__queues__change_priority)
C:\gnat\2021-arm-elf\arm-eabi\lib\gnat\ravenscar-full-nrf52833\adalib\libgnarl.a(s-bbtiev.o)
                              b__test.o (system__bb__timing_events___elabs)
C:\gnat\2021-arm-elf\arm-eabi\lib\gnat\ravenscar-full-nrf52833\adalib\libgnarl.a(s-bbtime.o)
                              C:\gnat\2021-arm-elf\arm-eabi\lib\gnat\ravenscar-full-nrf52833\adalib\libgnarl.a(s-bbtiev.o) (system__bb__time__get_next_timeout)
C:\gnat\2021-arm-elf\arm-eabi\lib\gnat\ravenscar-full-nrf52833\adalib\libgnarl.a(s-bcpcst.o)
                              C:\gnat\2021-arm-elf\arm-eabi\lib\gnat\ravenscar-full-nrf52833\adalib\libgnarl.a(s-bbcppr.o) (system__bb__cpu_primitives__context_switch_trigger__initialize_context_switch)
C:\gnat\2021-arm-elf\arm-eabi\lib\gnat\ravenscar-full-nrf52833\adalib\libgnarl.a(s-tarest.o)
                              C:\Users\Stigen\Documents\GitHub\ADA-project\CarProject\obj\tasking.o (system__tasking__restricted__stages__activate_restricted_tasks)
C:\gnat\2021-arm-elf\arm-eabi\lib\gnat\ravenscar-full-nrf52833\adalib\libgnarl.a(s-tasdeb.o)
                              C:\gnat\2021-arm-elf\arm-eabi\lib\gnat\ravenscar-full-nrf52833\adalib\libgnarl.a(s-tarest.o) (system__tasking__debug__last_task)
C:\gnat\2021-arm-elf\arm-eabi\lib\gnat\ravenscar-full-nrf52833\adalib\libgnarl.a(s-taskin.o)
                              C:\Users\Stigen\Documents\GitHub\ADA-project\CarProject\obj\tasking.o (system__tasking__activation_chainIP)
C:\gnat\2021-arm-elf\arm-eabi\lib\gnat\ravenscar-full-nrf52833\adalib\libgnarl.a(s-bbprot.o)
                              C:\gnat\2021-arm-elf\arm-eabi\lib\gnat\ravenscar-full-nrf52833\adalib\libgnarl.a(s-bbtime.o) (system__bb__protection__leave_kernel)
C:\gnat\2021-arm-elf\arm-eabi\lib\gnat\ravenscar-full-nrf52833\adalib\libgnarl.a(s-bbthre.o)
                              C:\gnat\2021-arm-elf\arm-eabi\lib\gnat\ravenscar-full-nrf52833\adalib\libgnarl.a(s-taskin.o) (system__bb__threads__initialize)
C:\gnat\2021-arm-elf\arm-eabi\lib\gnat\ravenscar-full-nrf52833\adalib\libgnarl.a(s-taprop.o)
                              C:\gnat\2021-arm-elf\arm-eabi\lib\gnat\ravenscar-full-nrf52833\adalib\libgnarl.a(s-taskin.o) (system__task_primitives__operations__idle)
C:\gnat\2021-arm-elf\arm-eabi\lib\gnat\ravenscar-full-nrf52833\adalib\libgnat.a(a-except.o)
                              C:\gnat\2021-arm-elf\arm-eabi\lib\gnat\ravenscar-full-nrf52833\adalib\libgnarl.a(a-reatim.o) (__gnat_rcheck_CE_Explicit_Raise)
C:\gnat\2021-arm-elf\arm-eabi\lib\gnat\ravenscar-full-nrf52833\adalib\libgnat.a(a-sttebu.o)
                              b__test.o (ada__strings__text_buffers___elabs)
C:\gnat\2021-arm-elf\arm-eabi\lib\gnat\ravenscar-full-nrf52833\adalib\libgnat.a(a-tags.o)
                              C:\gnat\2021-arm-elf\arm-eabi\lib\gnat\ravenscar-full-nrf52833\adalib\libgnarl.a(s-bbtiev.o) (ada__tags__register_tag)
C:\gnat\2021-arm-elf\arm-eabi\lib\gnat\ravenscar-full-nrf52833\adalib\libgnat.a(a-textio.o)
                              test.o (ada__text_io__put_line)
C:\gnat\2021-arm-elf\arm-eabi\lib\gnat\ravenscar-full-nrf52833\adalib\libgnat.a(adaint-xi.o)
                              C:\gnat\2021-arm-elf\arm-eabi\lib\gnat\ravenscar-full-nrf52833\adalib\libgnat.a(a-except.o) (__gnat_get_executable_load_address)
C:\gnat\2021-arm-elf\arm-eabi\lib\gnat\ravenscar-full-nrf52833\adalib\libgnat.a(handler.o)
                              C:\gnat\2021-arm-elf\arm-eabi\lib\gnat\ravenscar-full-nrf52833\adalib\libgnarl.a(s-bbcppr.o) (__vectors)
C:\gnat\2021-arm-elf\arm-eabi\lib\gnat\ravenscar-full-nrf52833\adalib\libgnat.a(raise-gcc.o)
                              C:\Users\Stigen\Documents\GitHub\ADA-project\CarProject\obj\tasking.o (__gnat_personality_v0)
C:\gnat\2021-arm-elf\arm-eabi\lib\gnat\ravenscar-full-nrf52833\adalib\libgnat.a(s-excdeb.o)
                              C:\gnat\2021-arm-elf\arm-eabi\lib\gnat\ravenscar-full-nrf52833\adalib\libgnat.a(a-except.o) (__gnat_debug_raise_exception)
C:\gnat\2021-arm-elf\arm-eabi\lib\gnat\ravenscar-full-nrf52833\adalib\libgnat.a(s-except.o)
                              C:\gnat\2021-arm-elf\arm-eabi\lib\gnat\ravenscar-full-nrf52833\adalib\libgnat.a(a-except.o) (system__exceptions__foreign_exception)
C:\gnat\2021-arm-elf\arm-eabi\lib\gnat\ravenscar-full-nrf52833\adalib\libgnat.a(s-excmac.o)
                              C:\gnat\2021-arm-elf\arm-eabi\lib\gnat\ravenscar-full-nrf52833\adalib\libgnat.a(a-except.o) (system__exceptions__machine__new_occurrence)
C:\gnat\2021-arm-elf\arm-eabi\lib\gnat\ravenscar-full-nrf52833\adalib\libgnat.a(s-exctab.o)
                              C:\gnat\2021-arm-elf\arm-eabi\lib\gnat\ravenscar-full-nrf52833\adalib\libgnat.a(a-except.o) (system__exception_table__internal_exception)
C:\gnat\2021-arm-elf\arm-eabi\lib\gnat\ravenscar-full-nrf52833\adalib\libgnat.a(s-imgint.o)
                              C:\Users\Stigen\Documents\GitHub\ADA-project\CarProject\obj\tasking.o (system__img_int__impl__image_integer)
C:\gnat\2021-arm-elf\arm-eabi\lib\gnat\ravenscar-full-nrf52833\adalib\libgnat.a(s-init.o)
                              b__test.o (__gnat_finalize)
C:\gnat\2021-arm-elf\arm-eabi\lib\gnat\ravenscar-full-nrf52833\adalib\libgnat.a(s-io.o)
                              C:\gnat\2021-arm-elf\arm-eabi\lib\gnat\ravenscar-full-nrf52833\adalib\libgnat.a(a-except.o) (put_char_stderr)
C:\gnat\2021-arm-elf\arm-eabi\lib\gnat\ravenscar-full-nrf52833\adalib\libgnat.a(s-macres.o)
                              C:\gnat\2021-arm-elf\arm-eabi\lib\gnat\ravenscar-full-nrf52833\adalib\libgnat.a(raise-gcc.o) (abort)
C:\gnat\2021-arm-elf\arm-eabi\lib\gnat\ravenscar-full-nrf52833\adalib\libgnat.a(s-memory.o)
                              C:\gnat\2021-arm-elf\arm-eabi\lib\gnat\ravenscar-full-nrf52833\adalib\libgnat.a(a-except.o) (__gnat_malloc)
C:\gnat\2021-arm-elf\arm-eabi\lib\gnat\ravenscar-full-nrf52833\adalib\libgnat.a(s-parame.o)
                              C:\gnat\2021-arm-elf\arm-eabi\lib\gnat\ravenscar-full-nrf52833\adalib\libgnarl.a(s-taskin.o) (system__parameters__adjust_storage_size)
C:\gnat\2021-arm-elf\arm-eabi\lib\gnat\ravenscar-full-nrf52833\adalib\libgnat.a(s-putima.o)
                              C:\gnat\2021-arm-elf\arm-eabi\lib\gnat\ravenscar-full-nrf52833\adalib\libgnarl.a(s-bbtiev.o) (system__put_images__put_image_unknown)
C:\gnat\2021-arm-elf\arm-eabi\lib\gnat\ravenscar-full-nrf52833\adalib\libgnat.a(s-secsta.o)
                              b__test.o (system__secondary_stack__ss_stackIP)
C:\gnat\2021-arm-elf\arm-eabi\lib\gnat\ravenscar-full-nrf52833\adalib\libgnat.a(s-soflin.o)
                              C:\gnat\2021-arm-elf\arm-eabi\lib\gnat\ravenscar-full-nrf52833\adalib\libgnat.a(a-except.o) (system__soft_links__get_current_excep_soft)
C:\gnat\2021-arm-elf\arm-eabi\lib\gnat\ravenscar-full-nrf52833\adalib\libgnat.a(s-stalib.o)
                              b__test.o (system__standard_library__adafinal)
C:\gnat\2021-arm-elf\arm-eabi\lib\gnat\ravenscar-full-nrf52833\adalib\libgnat.a(s-textio.o)
                              C:\gnat\2021-arm-elf\arm-eabi\lib\gnat\ravenscar-full-nrf52833\adalib\libgnat.a(a-textio.o) (system__text_io__get)
C:\gnat\2021-arm-elf\arm-eabi\lib\gnat\ravenscar-full-nrf52833\adalib\libgnat.a(s-traceb.o)
                              C:\gnat\2021-arm-elf\arm-eabi\lib\gnat\ravenscar-full-nrf52833\adalib\libgnat.a(a-except.o) (system__traceback__call_chain)
C:\gnat\2021-arm-elf\arm-eabi\lib\gnat\ravenscar-full-nrf52833\adalib\libgnat.a(s-traent.o)
                              C:\gnat\2021-arm-elf\arm-eabi\lib\gnat\ravenscar-full-nrf52833\adalib\libgnat.a(a-except.o) (system__traceback_entries__pc_for)
C:\gnat\2021-arm-elf\arm-eabi\lib\gnat\ravenscar-full-nrf52833\adalib\libgnat.a(s-valuns.o)
                              C:\gnat\2021-arm-elf\arm-eabi\lib\gnat\ravenscar-full-nrf52833\adalib\libgnat.a(a-tags.o) (system__val_uns__impl__value_unsigned)
C:\gnat\2021-arm-elf\arm-eabi\lib\gnat\ravenscar-full-nrf52833\adalib\libgnat.a(s-valuti.o)
                              C:\gnat\2021-arm-elf\arm-eabi\lib\gnat\ravenscar-full-nrf52833\adalib\libgnat.a(s-valuns.o) (system__val_util__bad_value)
C:\gnat\2021-arm-elf\arm-eabi\lib\gnat\ravenscar-full-nrf52833\adalib\libgnat.a(s-wchcon.o)
                              C:\gnat\2021-arm-elf\arm-eabi\lib\gnat\ravenscar-full-nrf52833\adalib\libgnat.a(a-except.o) (system__wch_con__get_wc_encoding_method)
C:\gnat\2021-arm-elf\arm-eabi\lib\gnat\ravenscar-full-nrf52833\adalib\libgnat.a(s-wchstw.o)
                              C:\gnat\2021-arm-elf\arm-eabi\lib\gnat\ravenscar-full-nrf52833\adalib\libgnat.a(a-except.o) (system__wch_stw__string_to_wide_string)
C:\gnat\2021-arm-elf\arm-eabi\lib\gnat\ravenscar-full-nrf52833\adalib\libgnat.a(start-rom.o)
                              (_start_rom)
C:\gnat\2021-arm-elf\arm-eabi\lib\gnat\ravenscar-full-nrf52833\adalib\libgnat.a(a-elchha.o)
                              C:\gnat\2021-arm-elf\arm-eabi\lib\gnat\ravenscar-full-nrf52833\adalib\libgnat.a(a-except.o) (__gnat_last_chance_handler)
C:\gnat\2021-arm-elf\arm-eabi\lib\gnat\ravenscar-full-nrf52833\adalib\libgnat.a(a-stbuut.o)
                              C:\gnat\2021-arm-elf\arm-eabi\lib\gnat\ravenscar-full-nrf52833\adalib\libgnat.a(s-putima.o) (ada__strings__text_buffers__utils__put_7bit)
C:\gnat\2021-arm-elf\arm-eabi\lib\gnat\ravenscar-full-nrf52833\adalib\libgnat.a(a-suezst.o)
                              C:\gnat\2021-arm-elf\arm-eabi\lib\gnat\ravenscar-full-nrf52833\adalib\libgnat.a(a-stbuut.o) (ada__strings__utf_encoding__wide_wide_strings__decode__2)
C:\gnat\2021-arm-elf\arm-eabi\lib\gnat\ravenscar-full-nrf52833\adalib\libgnat.a(breakpoint_handler-cortexm.o)
                              C:\gnat\2021-arm-elf\arm-eabi\lib\gnat\ravenscar-full-nrf52833\adalib\libgnat.a(handler.o) (__gnat_bkpt_trap)
C:\gnat\2021-arm-elf\arm-eabi\lib\gnat\ravenscar-full-nrf52833\adalib\libgnat.a(g-debuti.o)
                              C:\gnat\2021-arm-elf\arm-eabi\lib\gnat\ravenscar-full-nrf52833\adalib\libgnat.a(a-elchha.o) (gnat__debug_utilities__image_c)
C:\gnat\2021-arm-elf\arm-eabi\lib\gnat\ravenscar-full-nrf52833\adalib\libgnat.a(s-casuti.o)
                              C:\gnat\2021-arm-elf\arm-eabi\lib\gnat\ravenscar-full-nrf52833\adalib\libgnat.a(s-valuti.o) (system__case_util__to_upper)
C:\gnat\2021-arm-elf\arm-eabi\lib\gnat\ravenscar-full-nrf52833\adalib\libgnat.a(s-wchjis.o)
                              C:\gnat\2021-arm-elf\arm-eabi\lib\gnat\ravenscar-full-nrf52833\adalib\libgnat.a(s-wchstw.o) (system__wch_jis__euc_to_jis)
C:\gnat\2021-arm-elf\arm-eabi\lib\gnat\ravenscar-full-nrf52833\adalib\libgnat.a(setup_board.o)
                              C:\gnat\2021-arm-elf\arm-eabi\lib\gnat\ravenscar-full-nrf52833\adalib\libgnat.a(start-rom.o) (_ada_setup_board)
C:\gnat\2021-arm-elf\arm-eabi\lib\gnat\ravenscar-full-nrf52833\adalib\libgnat.a(start-common.o)
                              C:\gnat\2021-arm-elf\arm-eabi\lib\gnat\ravenscar-full-nrf52833\adalib\libgnat.a(start-rom.o) (_nrf5_start_common)
C:\gnat\2021-arm-elf\arm-eabi\lib\gnat\ravenscar-full-nrf52833\adalib\libgnat.a(a-stuten.o)
                              C:\gnat\2021-arm-elf\arm-eabi\lib\gnat\ravenscar-full-nrf52833\adalib\libgnat.a(a-suezst.o) (ada__strings__utf_encoding__from_utf_16)
c:/gnat/2021-arm-elf/bin/../lib/gcc/arm-eabi/10.3.1/../../../../arm-eabi/lib/thumb/v7e-m/fpv4-sp/hard\libc.a(lib_a-malloc.o)
                              C:\gnat\2021-arm-elf\arm-eabi\lib\gnat\ravenscar-full-nrf52833\adalib\libgnat.a(s-memory.o) (malloc)
c:/gnat/2021-arm-elf/bin/../lib/gcc/arm-eabi/10.3.1/../../../../arm-eabi/lib/thumb/v7e-m/fpv4-sp/hard\libc.a(lib_a-mallocr.o)
                              c:/gnat/2021-arm-elf/bin/../lib/gcc/arm-eabi/10.3.1/../../../../arm-eabi/lib/thumb/v7e-m/fpv4-sp/hard\libc.a(lib_a-malloc.o) (_malloc_r)
c:/gnat/2021-arm-elf/bin/../lib/gcc/arm-eabi/10.3.1/../../../../arm-eabi/lib/thumb/v7e-m/fpv4-sp/hard\libc.a(lib_a-memcmp.o)
                              C:\gnat\2021-arm-elf\arm-eabi\lib\gnat\ravenscar-full-nrf52833\adalib\libgnat.a(a-except.o) (memcmp)
c:/gnat/2021-arm-elf/bin/../lib/gcc/arm-eabi/10.3.1/../../../../arm-eabi/lib/thumb/v7e-m/fpv4-sp/hard\libc.a(lib_a-memcpy.o)
                              C:\Users\Stigen\Documents\GitHub\ADA-project\CarProject\obj\tasking.o (memcpy)
c:/gnat/2021-arm-elf/bin/../lib/gcc/arm-eabi/10.3.1/../../../../arm-eabi/lib/thumb/v7e-m/fpv4-sp/hard\libc.a(lib_a-memmove.o)
                              C:\gnat\2021-arm-elf\arm-eabi\lib\gnat\ravenscar-full-nrf52833\adalib\libgnat.a(a-except.o) (memmove)
c:/gnat/2021-arm-elf/bin/../lib/gcc/arm-eabi/10.3.1/../../../../arm-eabi/lib/thumb/v7e-m/fpv4-sp/hard\libc.a(lib_a-memset.o)
                              C:\gnat\2021-arm-elf\arm-eabi\lib\gnat\ravenscar-full-nrf52833\adalib\libgnarl.a(s-bbcppr.o) (memset)
c:/gnat/2021-arm-elf/bin/../lib/gcc/arm-eabi/10.3.1/../../../../arm-eabi/lib/thumb/v7e-m/fpv4-sp/hard\libc.a(lib_a-mlock.o)
                              c:/gnat/2021-arm-elf/bin/../lib/gcc/arm-eabi/10.3.1/../../../../arm-eabi/lib/thumb/v7e-m/fpv4-sp/hard\libc.a(lib_a-mallocr.o) (__malloc_lock)
c:/gnat/2021-arm-elf/bin/../lib/gcc/arm-eabi/10.3.1/../../../../arm-eabi/lib/thumb/v7e-m/fpv4-sp/hard\libc.a(lib_a-realloc.o)
                              C:\gnat\2021-arm-elf\arm-eabi\lib\gnat\ravenscar-full-nrf52833\adalib\libgnat.a(s-memory.o) (realloc)
c:/gnat/2021-arm-elf/bin/../lib/gcc/arm-eabi/10.3.1/../../../../arm-eabi/lib/thumb/v7e-m/fpv4-sp/hard\libc.a(lib_a-reallocr.o)
                              c:/gnat/2021-arm-elf/bin/../lib/gcc/arm-eabi/10.3.1/../../../../arm-eabi/lib/thumb/v7e-m/fpv4-sp/hard\libc.a(lib_a-realloc.o) (_realloc_r)
c:/gnat/2021-arm-elf/bin/../lib/gcc/arm-eabi/10.3.1/../../../../arm-eabi/lib/thumb/v7e-m/fpv4-sp/hard\libc.a(lib_a-sbrkr.o)
                              c:/gnat/2021-arm-elf/bin/../lib/gcc/arm-eabi/10.3.1/../../../../arm-eabi/lib/thumb/v7e-m/fpv4-sp/hard\libc.a(lib_a-mallocr.o) (_sbrk_r)
c:/gnat/2021-arm-elf/bin/../lib/gcc/arm-eabi/10.3.1/../../../../arm-eabi/lib/thumb/v7e-m/fpv4-sp/hard\libc.a(lib_a-freer.o)
                              c:/gnat/2021-arm-elf/bin/../lib/gcc/arm-eabi/10.3.1/../../../../arm-eabi/lib/thumb/v7e-m/fpv4-sp/hard\libc.a(lib_a-malloc.o) (_free_r)
c:/gnat/2021-arm-elf/bin/../lib/gcc/arm-eabi/10.3.1/../../../../arm-eabi/lib/thumb/v7e-m/fpv4-sp/hard\libc.a(lib_a-impure.o)
                              c:/gnat/2021-arm-elf/bin/../lib/gcc/arm-eabi/10.3.1/../../../../arm-eabi/lib/thumb/v7e-m/fpv4-sp/hard\libc.a(lib_a-malloc.o) (_impure_ptr)
c:/gnat/2021-arm-elf/bin/../lib/gcc/arm-eabi/10.3.1/../../../../arm-eabi/lib/thumb/v7e-m/fpv4-sp/hard\libc.a(lib_a-reent.o)
                              c:/gnat/2021-arm-elf/bin/../lib/gcc/arm-eabi/10.3.1/../../../../arm-eabi/lib/thumb/v7e-m/fpv4-sp/hard\libc.a(lib_a-sbrkr.o) (errno)
C:\gnat\2021-arm-elf\arm-eabi\lib\gnat\ravenscar-full-nrf52833\adalib\\libgnat.a(newlib-bb.o)
                              c:/gnat/2021-arm-elf/bin/../lib/gcc/arm-eabi/10.3.1/../../../../arm-eabi/lib/thumb/v7e-m/fpv4-sp/hard\libc.a(lib_a-sbrkr.o) (sbrk)
c:/gnat/2021-arm-elf/bin/../lib/gcc/arm-eabi/10.3.1/thumb/v7e-m/fpv4-sp/hard\libgcc.a(_aeabi_ldivmod.o)
                              C:\gnat\2021-arm-elf\arm-eabi\lib\gnat\ravenscar-full-nrf52833\adalib\libgnarl.a(a-reatim.o) (__aeabi_ldivmod)
c:/gnat/2021-arm-elf/bin/../lib/gcc/arm-eabi/10.3.1/thumb/v7e-m/fpv4-sp/hard\libgcc.a(_aeabi_uldivmod.o)
                              C:\gnat\2021-arm-elf\arm-eabi\lib\gnat\ravenscar-full-nrf52833\adalib\libgnarl.a(a-reatim.o) (__aeabi_uldivmod)
c:/gnat/2021-arm-elf/bin/../lib/gcc/arm-eabi/10.3.1/thumb/v7e-m/fpv4-sp/hard\libgcc.a(_udivmoddi4.o)
                              c:/gnat/2021-arm-elf/bin/../lib/gcc/arm-eabi/10.3.1/thumb/v7e-m/fpv4-sp/hard\libgcc.a(_aeabi_ldivmod.o) (__udivmoddi4)
c:/gnat/2021-arm-elf/bin/../lib/gcc/arm-eabi/10.3.1/thumb/v7e-m/fpv4-sp/hard\libgcc.a(unwind-arm.o)
                              test.o (__aeabi_unwind_cpp_pr0)
c:/gnat/2021-arm-elf/bin/../lib/gcc/arm-eabi/10.3.1/thumb/v7e-m/fpv4-sp/hard\libgcc.a(libunwind.o)
                              c:/gnat/2021-arm-elf/bin/../lib/gcc/arm-eabi/10.3.1/thumb/v7e-m/fpv4-sp/hard\libgcc.a(unwind-arm.o) (restore_core_regs)
c:/gnat/2021-arm-elf/bin/../lib/gcc/arm-eabi/10.3.1/thumb/v7e-m/fpv4-sp/hard\libgcc.a(pr-support.o)
                              c:/gnat/2021-arm-elf/bin/../lib/gcc/arm-eabi/10.3.1/thumb/v7e-m/fpv4-sp/hard\libgcc.a(unwind-arm.o) (__gnu_unwind_execute)
c:/gnat/2021-arm-elf/bin/../lib/gcc/arm-eabi/10.3.1/thumb/v7e-m/fpv4-sp/hard\libgcc.a(_dvmd_tls.o)
                              c:/gnat/2021-arm-elf/bin/../lib/gcc/arm-eabi/10.3.1/thumb/v7e-m/fpv4-sp/hard\libgcc.a(_aeabi_ldivmod.o) (__aeabi_ldiv0)
c:/gnat/2021-arm-elf/bin/../lib/gcc/arm-eabi/10.3.1/../../../../arm-eabi/lib/thumb/v7e-m/fpv4-sp/hard\libc.a(lib_a-errno.o)
                              C:\gnat\2021-arm-elf\arm-eabi\lib\gnat\ravenscar-full-nrf52833\adalib\\libgnat.a(newlib-bb.o) (__errno)

Memory Configuration

Name             Origin             Length             Attributes
flash            0x0000000000000000 0x0000000000080000 xr
sram12           0x0000000020000000 0x0000000000020000 xrw
*default*        0x0000000000000000 0xffffffffffffffff

Linker script and memory map

LOAD test.o
LOAD b__test.o
LOAD C:\Users\Stigen\Documents\GitHub\ADA-project\CarProject\obj\tasking.o
LOAD C:\Users\Stigen\Documents\GitHub\Ada_Drivers_Library\boards\MicroBit_v2\obj\full_lib_Debug\libada_drivers_library.a
LOAD C:\gnat\2021-arm-elf\arm-eabi\lib\gnat\ravenscar-full-nrf52833\adalib\libgnarl.a
LOAD C:\gnat\2021-arm-elf\arm-eabi\lib\gnat\ravenscar-full-nrf52833\adalib\libgnat.a
LOAD c:/gnat/2021-arm-elf/bin/../lib/gcc/arm-eabi/10.3.1/../../../../arm-eabi/lib/thumb/v7e-m/fpv4-sp/hard\libc.a
LOAD C:\gnat\2021-arm-elf\arm-eabi\lib\gnat\ravenscar-full-nrf52833\adalib\\libgnarl.a
LOAD C:\gnat\2021-arm-elf\arm-eabi\lib\gnat\ravenscar-full-nrf52833\adalib\\libgnat.a
LOAD C:\gnat\2021-arm-elf\arm-eabi\lib\gnat\ravenscar-full-nrf52833\adalib\\libgnarl.a
START GROUP
LOAD c:/gnat/2021-arm-elf/bin/../lib/gcc/arm-eabi/10.3.1/thumb/v7e-m/fpv4-sp/hard\libgcc.a
LOAD c:/gnat/2021-arm-elf/bin/../lib/gcc/arm-eabi/10.3.1/../../../../arm-eabi/lib/thumb/v7e-m/fpv4-sp/hard\libc.a
END GROUP
                0x0000000000000000                __DYNAMIC = 0x0
                0x0000000000001000                _DEFAULT_STACK_SIZE = 0x1000

.text           0x0000000000000000     0xc718
 *(.vectors)
 .vectors       0x0000000000000000       0x14 C:\gnat\2021-arm-elf\arm-eabi\lib\gnat\ravenscar-full-nrf52833\adalib\libgnat.a(start-rom.o)
 *(.text .text.* .gnu.linkonce.t*)
 .text          0x0000000000000014       0x44 test.o
                0x0000000000000014                _ada_test
 .text          0x0000000000000058      0x27c b__test.o
                0x0000000000000058                ada_main__Tsec_default_sized_stacksBIP
                0x000000000000009c                adafinal
                0x00000000000000c8                adainit
                0x0000000000000290                main
                0x00000000000002c0                ada_main___elabb
 .text          0x00000000000002d4      0x220 C:\Users\Stigen\Documents\GitHub\ADA-project\CarProject\obj\tasking.o
                0x00000000000002d4                tasking__tTKVIP
                0x0000000000000390                tasking__tTKB
                0x00000000000004a4                tasking___elabb
                0x00000000000004c0                tasking___elabs
 .text          0x00000000000004f4        0x0 C:\gnat\2021-arm-elf\arm-eabi\lib\gnat\ravenscar-full-nrf52833\adalib\libgnarl.a(a-reatim.o)
 .text.ada__real_time__Oadd__2
                0x00000000000004f4       0x58 C:\gnat\2021-arm-elf\arm-eabi\lib\gnat\ravenscar-full-nrf52833\adalib\libgnarl.a(a-reatim.o)
                0x00000000000004f4                ada__real_time__Oadd__2
 .text.ada__real_time__Omultiply
                0x000000000000054c       0xb4 C:\gnat\2021-arm-elf\arm-eabi\lib\gnat\ravenscar-full-nrf52833\adalib\libgnarl.a(a-reatim.o)
                0x000000000000054c                ada__real_time__Omultiply
 .text.ada__real_time__Omultiply__2
                0x0000000000000600       0xb4 C:\gnat\2021-arm-elf\arm-eabi\lib\gnat\ravenscar-full-nrf52833\adalib\libgnarl.a(a-reatim.o)
                0x0000000000000600                ada__real_time__Omultiply__2
 .text.ada__real_time__Oadd
                0x00000000000006b4       0x58 C:\gnat\2021-arm-elf\arm-eabi\lib\gnat\ravenscar-full-nrf52833\adalib\libgnarl.a(a-reatim.o)
                0x00000000000006b4                ada__real_time__Oadd
 .text.ada__real_time__Oadd__3
                0x000000000000070c       0x28 C:\gnat\2021-arm-elf\arm-eabi\lib\gnat\ravenscar-full-nrf52833\adalib\libgnarl.a(a-reatim.o)
                0x000000000000070c                ada__real_time__Oadd__3
 .text.ada__real_time__Osubtract
                0x0000000000000734       0x4c C:\gnat\2021-arm-elf\arm-eabi\lib\gnat\ravenscar-full-nrf52833\adalib\libgnarl.a(a-reatim.o)
                0x0000000000000734                ada__real_time__Osubtract
 .text.ada__real_time__Osubtract__2
                0x0000000000000780       0x40 C:\gnat\2021-arm-elf\arm-eabi\lib\gnat\ravenscar-full-nrf52833\adalib\libgnarl.a(a-reatim.o)
                0x0000000000000780                ada__real_time__Osubtract__2
 .text.ada__real_time__Osubtract__3
                0x00000000000007c0       0x28 C:\gnat\2021-arm-elf\arm-eabi\lib\gnat\ravenscar-full-nrf52833\adalib\libgnarl.a(a-reatim.o)
                0x00000000000007c0                ada__real_time__Osubtract__3
 .text.ada__real_time__Osubtract__4
                0x00000000000007e8       0x24 C:\gnat\2021-arm-elf\arm-eabi\lib\gnat\ravenscar-full-nrf52833\adalib\libgnarl.a(a-reatim.o)
                0x00000000000007e8                ada__real_time__Osubtract__4
 .text.ada__real_time__Odivide
                0x000000000000080c       0x48 C:\gnat\2021-arm-elf\arm-eabi\lib\gnat\ravenscar-full-nrf52833\adalib\libgnarl.a(a-reatim.o)
                0x000000000000080c                ada__real_time__Odivide
 .text.ada__real_time__Odivide__2
                0x0000000000000854       0x3c C:\gnat\2021-arm-elf\arm-eabi\lib\gnat\ravenscar-full-nrf52833\adalib\libgnarl.a(a-reatim.o)
                0x0000000000000854                ada__real_time__Odivide__2
 .text.ada__real_time__clock
                0x0000000000000890       0x58 C:\gnat\2021-arm-elf\arm-eabi\lib\gnat\ravenscar-full-nrf52833\adalib\libgnarl.a(a-reatim.o)
                0x0000000000000890                ada__real_time__clock
 .text.ada__real_time__microseconds
                0x00000000000008e8       0x40 C:\gnat\2021-arm-elf\arm-eabi\lib\gnat\ravenscar-full-nrf52833\adalib\libgnarl.a(a-reatim.o)
                0x00000000000008e8                ada__real_time__microseconds
 .text.ada__real_time__milliseconds
                0x0000000000000928       0x38 C:\gnat\2021-arm-elf\arm-eabi\lib\gnat\ravenscar-full-nrf52833\adalib\libgnarl.a(a-reatim.o)
                0x0000000000000928                ada__real_time__milliseconds
 .text.ada__real_time__minutes
                0x0000000000000960        0xc C:\gnat\2021-arm-elf\arm-eabi\lib\gnat\ravenscar-full-nrf52833\adalib\libgnarl.a(a-reatim.o)
                0x0000000000000960                ada__real_time__minutes
 .text.ada__real_time__mul_div
                0x000000000000096c       0xfc C:\gnat\2021-arm-elf\arm-eabi\lib\gnat\ravenscar-full-nrf52833\adalib\libgnarl.a(a-reatim.o)
                0x000000000000096c                ada__real_time__mul_div
 .text.ada__real_time__nanoseconds
                0x0000000000000a68       0x48 C:\gnat\2021-arm-elf\arm-eabi\lib\gnat\ravenscar-full-nrf52833\adalib\libgnarl.a(a-reatim.o)
                0x0000000000000a68                ada__real_time__nanoseconds
 .text.ada__real_time__rounded_div
                0x0000000000000ab0       0x44 C:\gnat\2021-arm-elf\arm-eabi\lib\gnat\ravenscar-full-nrf52833\adalib\libgnarl.a(a-reatim.o)
                0x0000000000000ab0                ada__real_time__rounded_div
 .text.ada__real_time__seconds
                0x0000000000000af4       0x10 C:\gnat\2021-arm-elf\arm-eabi\lib\gnat\ravenscar-full-nrf52833\adalib\libgnarl.a(a-reatim.o)
                0x0000000000000af4                ada__real_time__seconds
 .text.ada__real_time__split
                0x0000000000000b04       0x58 C:\gnat\2021-arm-elf\arm-eabi\lib\gnat\ravenscar-full-nrf52833\adalib\libgnarl.a(a-reatim.o)
                0x0000000000000b04                ada__real_time__split
 .text.ada__real_time__time_of
                0x0000000000000b5c      0x108 C:\gnat\2021-arm-elf\arm-eabi\lib\gnat\ravenscar-full-nrf52833\adalib\libgnarl.a(a-reatim.o)
                0x0000000000000b5c                ada__real_time__time_of
 .text.ada__real_time__to_duration
                0x0000000000000c64       0x10 C:\gnat\2021-arm-elf\arm-eabi\lib\gnat\ravenscar-full-nrf52833\adalib\libgnarl.a(a-reatim.o)
                0x0000000000000c64                ada__real_time__to_duration
 .text.ada__real_time__to_time_span
                0x0000000000000c74       0x10 C:\gnat\2021-arm-elf\arm-eabi\lib\gnat\ravenscar-full-nrf52833\adalib\libgnarl.a(a-reatim.o)
                0x0000000000000c74                ada__real_time__to_time_span
 .text.ada__real_time___elabb
                0x0000000000000c84        0x4 C:\gnat\2021-arm-elf\arm-eabi\lib\gnat\ravenscar-full-nrf52833\adalib\libgnarl.a(a-reatim.o)
                0x0000000000000c84                ada__real_time___elabb
 .text          0x0000000000000c88        0x0 C:\gnat\2021-arm-elf\arm-eabi\lib\gnat\ravenscar-full-nrf52833\adalib\libgnarl.a(a-retide.o)
 .text.ada__real_time__delays__delay_until
                0x0000000000000c88       0x30 C:\gnat\2021-arm-elf\arm-eabi\lib\gnat\ravenscar-full-nrf52833\adalib\libgnarl.a(a-retide.o)
                0x0000000000000c88                ada__real_time__delays__delay_until
 .text.ada__real_time__delays__to_duration
                0x0000000000000cb8        0x8 C:\gnat\2021-arm-elf\arm-eabi\lib\gnat\ravenscar-full-nrf52833\adalib\libgnarl.a(a-retide.o)
                0x0000000000000cb8                ada__real_time__delays__to_duration
 .text          0x0000000000000cc0        0x0 C:\gnat\2021-arm-elf\arm-eabi\lib\gnat\ravenscar-full-nrf52833\adalib\libgnarl.a(s-bbbosu.o)
 .text.system__bb__board_support__interrupt_handler
                0x0000000000000cc0       0x20 C:\gnat\2021-arm-elf\arm-eabi\lib\gnat\ravenscar-full-nrf52833\adalib\libgnarl.a(s-bbbosu.o)
                0x0000000000000cc0                system__bb__board_support__interrupt_handler
 .text.system__bb__board_support__time__max_timer_interval
                0x0000000000000ce0        0x8 C:\gnat\2021-arm-elf\arm-eabi\lib\gnat\ravenscar-full-nrf52833\adalib\libgnarl.a(s-bbbosu.o)
                0x0000000000000ce0                system__bb__board_support__time__max_timer_interval
 .text.system__bb__board_support__time__read_clock
                0x0000000000000ce8       0x24 C:\gnat\2021-arm-elf\arm-eabi\lib\gnat\ravenscar-full-nrf52833\adalib\libgnarl.a(s-bbbosu.o)
                0x0000000000000ce8                system__bb__board_support__time__read_clock
 .text.system__bb__board_support__time__clear_alarm_interrupt
                0x0000000000000d0c       0x24 C:\gnat\2021-arm-elf\arm-eabi\lib\gnat\ravenscar-full-nrf52833\adalib\libgnarl.a(s-bbbosu.o)
                0x0000000000000d0c                system__bb__board_support__time__clear_alarm_interrupt
 .text.system__bb__board_support__time__set_alarm
                0x0000000000000d30       0x70 C:\gnat\2021-arm-elf\arm-eabi\lib\gnat\ravenscar-full-nrf52833\adalib\libgnarl.a(s-bbbosu.o)
                0x0000000000000d30                system__bb__board_support__time__set_alarm
 .text.system__bb__board_support__time__install_alarm_handler
                0x0000000000000da0       0x74 C:\gnat\2021-arm-elf\arm-eabi\lib\gnat\ravenscar-full-nrf52833\adalib\libgnarl.a(s-bbbosu.o)
                0x0000000000000da0                system__bb__board_support__time__install_alarm_handler
 .text.system__bb__board_support__multiprocessors__number_of_cpus
                0x0000000000000e14        0x4 C:\gnat\2021-arm-elf\arm-eabi\lib\gnat\ravenscar-full-nrf52833\adalib\libgnarl.a(s-bbbosu.o)
                0x0000000000000e14                system__bb__board_support__multiprocessors__number_of_cpus
 .text.system__bb__board_support__multiprocessors__current_cpu
                0x0000000000000e18        0x4 C:\gnat\2021-arm-elf\arm-eabi\lib\gnat\ravenscar-full-nrf52833\adalib\libgnarl.a(s-bbbosu.o)
                0x0000000000000e18                system__bb__board_support__multiprocessors__current_cpu
 .text.system__bb__board_support__multiprocessors__poke_cpu
                0x0000000000000e1c        0x4 C:\gnat\2021-arm-elf\arm-eabi\lib\gnat\ravenscar-full-nrf52833\adalib\libgnarl.a(s-bbbosu.o)
                0x0000000000000e1c                system__bb__board_support__multiprocessors__poke_cpu
 .text.system__bb__board_support__multiprocessors__start_all_cpus
                0x0000000000000e20        0x4 C:\gnat\2021-arm-elf\arm-eabi\lib\gnat\ravenscar-full-nrf52833\adalib\libgnarl.a(s-bbbosu.o)
                0x0000000000000e20                system__bb__board_support__multiprocessors__start_all_cpus
 .text.system__bb__board_support__interrupts__install_interrupt_handler
                0x0000000000000e24       0x90 C:\gnat\2021-arm-elf\arm-eabi\lib\gnat\ravenscar-full-nrf52833\adalib\libgnarl.a(s-bbbosu.o)
                0x0000000000000e24                system__bb__board_support__interrupts__install_interrupt_handler
 .text.system__bb__board_support__interrupts__priority_of_interrupt
                0x0000000000000eb4       0x20 C:\gnat\2021-arm-elf\arm-eabi\lib\gnat\ravenscar-full-nrf52833\adalib\libgnarl.a(s-bbbosu.o)
                0x0000000000000eb4                system__bb__board_support__interrupts__priority_of_interrupt
 .text.system__bb__board_support__interrupts__power_down
                0x0000000000000ed4        0x4 C:\gnat\2021-arm-elf\arm-eabi\lib\gnat\ravenscar-full-nrf52833\adalib\libgnarl.a(s-bbbosu.o)
                0x0000000000000ed4                system__bb__board_support__interrupts__power_down
 .text.system__bb__board_support__interrupts__set_current_priority
                0x0000000000000ed8       0x18 C:\gnat\2021-arm-elf\arm-eabi\lib\gnat\ravenscar-full-nrf52833\adalib\libgnarl.a(s-bbbosu.o)
                0x0000000000000ed8                system__bb__board_support__interrupts__set_current_priority
 .text.system__bb__board_support__TipBIP
                0x0000000000000ef0        0x4 C:\gnat\2021-arm-elf\arm-eabi\lib\gnat\ravenscar-full-nrf52833\adalib\libgnarl.a(s-bbbosu.o)
                0x0000000000000ef0                system__bb__board_support__TipBIP
 .text.system__bb__board_support__initialize_board
                0x0000000000000ef4       0xdc C:\gnat\2021-arm-elf\arm-eabi\lib\gnat\ravenscar-full-nrf52833\adalib\libgnarl.a(s-bbbosu.o)
                0x0000000000000ef4                system__bb__board_support__initialize_board
 .text.system__bb__board_support__enable_interrupt_request
                0x0000000000000fd0       0x68 C:\gnat\2021-arm-elf\arm-eabi\lib\gnat\ravenscar-full-nrf52833\adalib\libgnarl.a(s-bbbosu.o)
                0x0000000000000fd0                system__bb__board_support__enable_interrupt_request
 .text.system__bb__board_support__trigger_interrupt
                0x0000000000001038       0x10 C:\gnat\2021-arm-elf\arm-eabi\lib\gnat\ravenscar-full-nrf52833\adalib\libgnarl.a(s-bbbosu.o)
                0x0000000000001038                system__bb__board_support__trigger_interrupt
 .text.system__bb__board_support__to_pri
                0x0000000000001048       0x14 C:\gnat\2021-arm-elf\arm-eabi\lib\gnat\ravenscar-full-nrf52833\adalib\libgnarl.a(s-bbbosu.o)
                0x0000000000001048                system__bb__board_support__to_pri
 .text.system__bb__board_support__to_priority
                0x000000000000105c       0x10 C:\gnat\2021-arm-elf\arm-eabi\lib\gnat\ravenscar-full-nrf52833\adalib\libgnarl.a(s-bbbosu.o)
                0x000000000000105c                system__bb__board_support__to_priority
 .text          0x000000000000106c        0x0 C:\gnat\2021-arm-elf\arm-eabi\lib\gnat\ravenscar-full-nrf52833\adalib\libgnarl.a(s-bbcppr.o)
 .text.system__bb__cpu_primitives__gnat_error_handler
                0x000000000000106c       0x88 C:\gnat\2021-arm-elf\arm-eabi\lib\gnat\ravenscar-full-nrf52833\adalib\libgnarl.a(s-bbcppr.o)
                0x000000000000106c                system__bb__cpu_primitives__gnat_error_handler
 .text.system__bb__cpu_primitives__Tcontext_bufferBIP
                0x00000000000010f4        0x4 C:\gnat\2021-arm-elf\arm-eabi\lib\gnat\ravenscar-full-nrf52833\adalib\libgnarl.a(s-bbcppr.o)
                0x00000000000010f4                system__bb__cpu_primitives__Tcontext_bufferBIP
 .text.system__bb__cpu_primitives__hardware_contextIP
                0x00000000000010f8        0x4 C:\gnat\2021-arm-elf\arm-eabi\lib\gnat\ravenscar-full-nrf52833\adalib\libgnarl.a(s-bbcppr.o)
                0x00000000000010f8                system__bb__cpu_primitives__hardware_contextIP
 .text.primask  0x00000000000010fc        0x8 C:\gnat\2021-arm-elf\arm-eabi\lib\gnat\ravenscar-full-nrf52833\adalib\libgnarl.a(s-bbcppr.o)
                0x00000000000010fc                primask
 .text.system__bb__cpu_primitives__initialize_cpu
                0x0000000000001104       0x78 C:\gnat\2021-arm-elf\arm-eabi\lib\gnat\ravenscar-full-nrf52833\adalib\libgnarl.a(s-bbcppr.o)
                0x0000000000001104                system__bb__cpu_primitives__initialize_cpu
 .text.system__bb__cpu_primitives__initialize_stack
                0x000000000000117c        0x8 C:\gnat\2021-arm-elf\arm-eabi\lib\gnat\ravenscar-full-nrf52833\adalib\libgnarl.a(s-bbcppr.o)
                0x000000000000117c                system__bb__cpu_primitives__initialize_stack
 .text.system__bb__cpu_primitives__context_switch
                0x0000000000001184        0x8 C:\gnat\2021-arm-elf\arm-eabi\lib\gnat\ravenscar-full-nrf52833\adalib\libgnarl.a(s-bbcppr.o)
                0x0000000000001184                system__bb__cpu_primitives__context_switch
 .text.system__bb__cpu_primitives__get_context
                0x000000000000118c        0x8 C:\gnat\2021-arm-elf\arm-eabi\lib\gnat\ravenscar-full-nrf52833\adalib\libgnarl.a(s-bbcppr.o)
                0x000000000000118c                system__bb__cpu_primitives__get_context
 .text.__gnat_irq_trap
                0x0000000000001194       0x48 C:\gnat\2021-arm-elf\arm-eabi\lib\gnat\ravenscar-full-nrf52833\adalib\libgnarl.a(s-bbcppr.o)
                0x0000000000001194                __gnat_irq_trap
 .text.__gnat_sv_call_trap
                0x00000000000011dc        0x8 C:\gnat\2021-arm-elf\arm-eabi\lib\gnat\ravenscar-full-nrf52833\adalib\libgnarl.a(s-bbcppr.o)
                0x00000000000011dc                __gnat_sv_call_trap
 .text.system__bb__cpu_primitives__set_context
                0x00000000000011e4        0x8 C:\gnat\2021-arm-elf\arm-eabi\lib\gnat\ravenscar-full-nrf52833\adalib\libgnarl.a(s-bbcppr.o)
                0x00000000000011e4                system__bb__cpu_primitives__set_context
 .text.__gnat_sys_tick_trap
                0x00000000000011ec       0x64 C:\gnat\2021-arm-elf\arm-eabi\lib\gnat\ravenscar-full-nrf52833\adalib\libgnarl.a(s-bbcppr.o)
                0x00000000000011ec                __gnat_sys_tick_trap
 .text.system__bb__cpu_primitives__initialize_context
                0x0000000000001250       0x48 C:\gnat\2021-arm-elf\arm-eabi\lib\gnat\ravenscar-full-nrf52833\adalib\libgnarl.a(s-bbcppr.o)
                0x0000000000001250                system__bb__cpu_primitives__initialize_context
 .text.system__bb__cpu_primitives__install_error_handlers
                0x0000000000001298       0x1c C:\gnat\2021-arm-elf\arm-eabi\lib\gnat\ravenscar-full-nrf52833\adalib\libgnarl.a(s-bbcppr.o)
                0x0000000000001298                system__bb__cpu_primitives__install_error_handlers
 .text.system__bb__cpu_primitives__install_trap_handler
                0x00000000000012b4        0xc C:\gnat\2021-arm-elf\arm-eabi\lib\gnat\ravenscar-full-nrf52833\adalib\libgnarl.a(s-bbcppr.o)
                0x00000000000012b4                system__bb__cpu_primitives__install_trap_handler
 .text.system__bb__cpu_primitives__disable_interrupts
                0x00000000000012c0        0x4 C:\gnat\2021-arm-elf\arm-eabi\lib\gnat\ravenscar-full-nrf52833\adalib\libgnarl.a(s-bbcppr.o)
                0x00000000000012c0                system__bb__cpu_primitives__disable_interrupts
 .text.system__bb__cpu_primitives__enable_interrupts
                0x00000000000012c4       0x20 C:\gnat\2021-arm-elf\arm-eabi\lib\gnat\ravenscar-full-nrf52833\adalib\libgnarl.a(s-bbcppr.o)
                0x00000000000012c4                system__bb__cpu_primitives__enable_interrupts
 .text          0x00000000000012e4        0x0 C:\gnat\2021-arm-elf\arm-eabi\lib\gnat\ravenscar-full-nrf52833\adalib\libgnarl.a(s-bbinte.o)
 .text.system__bb__interrupts__Tinterrupt_stacksBIP
                0x00000000000012e4        0x4 C:\gnat\2021-arm-elf\arm-eabi\lib\gnat\ravenscar-full-nrf52833\adalib\libgnarl.a(s-bbinte.o)
                0x00000000000012e4                system__bb__interrupts__Tinterrupt_stacksBIP
 .text.system__bb__interrupts__Tinterrupt_stack_tableBIP
                0x00000000000012e8        0x4 C:\gnat\2021-arm-elf\arm-eabi\lib\gnat\ravenscar-full-nrf52833\adalib\libgnarl.a(s-bbinte.o)
                0x00000000000012e8                system__bb__interrupts__Tinterrupt_stack_tableBIP
 .text.system__bb__interrupts__Thandlers_tableBIP
                0x00000000000012ec       0x18 C:\gnat\2021-arm-elf\arm-eabi\lib\gnat\ravenscar-full-nrf52833\adalib\libgnarl.a(s-bbinte.o)
                0x00000000000012ec                system__bb__interrupts__Thandlers_tableBIP
 .text.system__bb__interrupts__attach_handler
                0x0000000000001304       0x34 C:\gnat\2021-arm-elf\arm-eabi\lib\gnat\ravenscar-full-nrf52833\adalib\libgnarl.a(s-bbinte.o)
                0x0000000000001304                system__bb__interrupts__attach_handler
 .text.system__bb__interrupts__current_interrupt
                0x0000000000001338       0x1c C:\gnat\2021-arm-elf\arm-eabi\lib\gnat\ravenscar-full-nrf52833\adalib\libgnarl.a(s-bbinte.o)
                0x0000000000001338                system__bb__interrupts__current_interrupt
 .text.system__bb__interrupts__interrupt_wrapper
                0x0000000000001354      0x124 C:\gnat\2021-arm-elf\arm-eabi\lib\gnat\ravenscar-full-nrf52833\adalib\libgnarl.a(s-bbinte.o)
                0x0000000000001354                system__bb__interrupts__interrupt_wrapper
 .text.system__bb__interrupts__within_interrupt_stack
                0x0000000000001478       0x3c C:\gnat\2021-arm-elf\arm-eabi\lib\gnat\ravenscar-full-nrf52833\adalib\libgnarl.a(s-bbinte.o)
                0x0000000000001478                system__bb__interrupts__within_interrupt_stack
 .text.system__bb__interrupts__initialize_interrupts
                0x00000000000014b4       0x1c C:\gnat\2021-arm-elf\arm-eabi\lib\gnat\ravenscar-full-nrf52833\adalib\libgnarl.a(s-bbinte.o)
                0x00000000000014b4                system__bb__interrupts__initialize_interrupts
 .text          0x00000000000014d0        0x0 C:\gnat\2021-arm-elf\arm-eabi\lib\gnat\ravenscar-full-nrf52833\adalib\libgnarl.a(s-bbthqu.o)
 .text.system__bb__threads__queues__change_priority
                0x00000000000014d0       0x6c C:\gnat\2021-arm-elf\arm-eabi\lib\gnat\ravenscar-full-nrf52833\adalib\libgnarl.a(s-bbthqu.o)
                0x00000000000014d0                system__bb__threads__queues__change_priority
 .text.__gnat_context_switch_needed
                0x000000000000153c       0x18 C:\gnat\2021-arm-elf\arm-eabi\lib\gnat\ravenscar-full-nrf52833\adalib\libgnarl.a(s-bbthqu.o)
                0x000000000000153c                __gnat_context_switch_needed
 .text.system__bb__threads__queues__current_priority
                0x0000000000001554       0x1c C:\gnat\2021-arm-elf\arm-eabi\lib\gnat\ravenscar-full-nrf52833\adalib\libgnarl.a(s-bbthqu.o)
                0x0000000000001554                system__bb__threads__queues__current_priority
 .text.system__bb__threads__queues__extract
                0x0000000000001570       0x24 C:\gnat\2021-arm-elf\arm-eabi\lib\gnat\ravenscar-full-nrf52833\adalib\libgnarl.a(s-bbthqu.o)
                0x0000000000001570                system__bb__threads__queues__extract
 .text.system__bb__threads__queues__first_thread
                0x0000000000001594        0xc C:\gnat\2021-arm-elf\arm-eabi\lib\gnat\ravenscar-full-nrf52833\adalib\libgnarl.a(s-bbthqu.o)
                0x0000000000001594                system__bb__threads__queues__first_thread
 .text.system__bb__threads__queues__get_next_alarm_time
                0x00000000000015a0       0x20 C:\gnat\2021-arm-elf\arm-eabi\lib\gnat\ravenscar-full-nrf52833\adalib\libgnarl.a(s-bbthqu.o)
                0x00000000000015a0                system__bb__threads__queues__get_next_alarm_time
 .text.system__bb__threads__queues__insert
                0x00000000000015c0       0x8c C:\gnat\2021-arm-elf\arm-eabi\lib\gnat\ravenscar-full-nrf52833\adalib\libgnarl.a(s-bbthqu.o)
                0x00000000000015c0                system__bb__threads__queues__insert
 .text.system__bb__threads__queues__insert_alarm
                0x000000000000164c       0x58 C:\gnat\2021-arm-elf\arm-eabi\lib\gnat\ravenscar-full-nrf52833\adalib\libgnarl.a(s-bbthqu.o)
                0x000000000000164c                system__bb__threads__queues__insert_alarm
 .text.system__bb__threads__queues__running_thread
                0x00000000000016a4        0xc C:\gnat\2021-arm-elf\arm-eabi\lib\gnat\ravenscar-full-nrf52833\adalib\libgnarl.a(s-bbthqu.o)
                0x00000000000016a4                system__bb__threads__queues__running_thread
 .text.system__bb__threads__queues__wakeup_expired_alarms
                0x00000000000016b0       0xd8 C:\gnat\2021-arm-elf\arm-eabi\lib\gnat\ravenscar-full-nrf52833\adalib\libgnarl.a(s-bbthqu.o)
                0x00000000000016b0                system__bb__threads__queues__wakeup_expired_alarms
 .text.system__bb__threads__queues__yield
                0x0000000000001788       0x4c C:\gnat\2021-arm-elf\arm-eabi\lib\gnat\ravenscar-full-nrf52833\adalib\libgnarl.a(s-bbthqu.o)
                0x0000000000001788                system__bb__threads__queues__yield
 .text          0x00000000000017d4        0x0 C:\gnat\2021-arm-elf\arm-eabi\lib\gnat\ravenscar-full-nrf52833\adalib\libgnarl.a(s-bbtiev.o)
 .text.system__bb__timing_events___size
                0x00000000000017d4        0x8 C:\gnat\2021-arm-elf\arm-eabi\lib\gnat\ravenscar-full-nrf52833\adalib\libgnarl.a(s-bbtiev.o)
                0x00000000000017d4                system__bb__timing_events___size
 .text.system__bb__timing_events__timing_eventDF
                0x00000000000017dc        0x4 C:\gnat\2021-arm-elf\arm-eabi\lib\gnat\ravenscar-full-nrf52833\adalib\libgnarl.a(s-bbtiev.o)
                0x00000000000017dc                system__bb__timing_events__timing_eventDF
 .text.system__bb__timing_events__time_of_event
                0x00000000000017e0       0x10 C:\gnat\2021-arm-elf\arm-eabi\lib\gnat\ravenscar-full-nrf52833\adalib\libgnarl.a(s-bbtiev.o)
                0x00000000000017e0                system__bb__timing_events__time_of_event
 .text.system__bb__timing_events__timing_eventPI
                0x00000000000017f0       0x10 C:\gnat\2021-arm-elf\arm-eabi\lib\gnat\ravenscar-full-nrf52833\adalib\libgnarl.a(s-bbtiev.o)
                0x00000000000017f0                system__bb__timing_events__timing_eventPI
 .text.system__bb__timing_events__set_handler
                0x0000000000001800       0xa4 C:\gnat\2021-arm-elf\arm-eabi\lib\gnat\ravenscar-full-nrf52833\adalib\libgnarl.a(s-bbtiev.o)
                0x0000000000001800                system__bb__timing_events__set_handler
 .text.system__bb__timing_events__cancel_handler
                0x00000000000018a4       0x58 C:\gnat\2021-arm-elf\arm-eabi\lib\gnat\ravenscar-full-nrf52833\adalib\libgnarl.a(s-bbtiev.o)
                0x00000000000018a4                system__bb__timing_events__cancel_handler
 .text.system__bb__timing_events__timing_eventIP
                0x00000000000018fc       0x1c C:\gnat\2021-arm-elf\arm-eabi\lib\gnat\ravenscar-full-nrf52833\adalib\libgnarl.a(s-bbtiev.o)
                0x00000000000018fc                system__bb__timing_events__timing_eventIP
 .text.system__bb__timing_events__Ttiming_eventCFD
                0x0000000000001918        0xc C:\gnat\2021-arm-elf\arm-eabi\lib\gnat\ravenscar-full-nrf52833\adalib\libgnarl.a(s-bbtiev.o)
                0x0000000000001918                system__bb__timing_events__Ttiming_eventCFD
 .text.system__bb__timing_events__finalize_spec
                0x0000000000001924        0xc C:\gnat\2021-arm-elf\arm-eabi\lib\gnat\ravenscar-full-nrf52833\adalib\libgnarl.a(s-bbtiev.o)
                0x0000000000001924                system__bb__timing_events__finalize_spec
 .text.system__bb__timing_events__execute_expired_timing_events
                0x0000000000001930       0x70 C:\gnat\2021-arm-elf\arm-eabi\lib\gnat\ravenscar-full-nrf52833\adalib\libgnarl.a(s-bbtiev.o)
                0x0000000000001930                system__bb__timing_events__execute_expired_timing_events
 .text.system__bb__timing_events__get_next_timeout
                0x00000000000019a0       0x20 C:\gnat\2021-arm-elf\arm-eabi\lib\gnat\ravenscar-full-nrf52833\adalib\libgnarl.a(s-bbtiev.o)
                0x00000000000019a0                system__bb__timing_events__get_next_timeout
 .text.system__bb__timing_events___elabs
                0x00000000000019c0        0xc C:\gnat\2021-arm-elf\arm-eabi\lib\gnat\ravenscar-full-nrf52833\adalib\libgnarl.a(s-bbtiev.o)
                0x00000000000019c0                system__bb__timing_events___elabs
 .text          0x00000000000019cc        0x0 C:\gnat\2021-arm-elf\arm-eabi\lib\gnat\ravenscar-full-nrf52833\adalib\libgnarl.a(s-bbtime.o)
 .text.system__bb__time__alarm_handler
                0x00000000000019cc      0x170 C:\gnat\2021-arm-elf\arm-eabi\lib\gnat\ravenscar-full-nrf52833\adalib\libgnarl.a(s-bbtime.o)
 .text.system__bb__time__composite_execution_timeIP
                0x0000000000001b3c        0x4 C:\gnat\2021-arm-elf\arm-eabi\lib\gnat\ravenscar-full-nrf52833\adalib\libgnarl.a(s-bbtime.o)
                0x0000000000001b3c                system__bb__time__composite_execution_timeIP
 .text.system__bb__time__composite_timeIP
                0x0000000000001b40        0xc C:\gnat\2021-arm-elf\arm-eabi\lib\gnat\ravenscar-full-nrf52833\adalib\libgnarl.a(s-bbtime.o)
                0x0000000000001b40                system__bb__time__composite_timeIP
 .text.system__bb__time__clock
                0x0000000000001b4c       0x58 C:\gnat\2021-arm-elf\arm-eabi\lib\gnat\ravenscar-full-nrf52833\adalib\libgnarl.a(s-bbtime.o)
                0x0000000000001b4c                system__bb__time__clock
 .text.system__bb__time__epoch
                0x0000000000001ba4        0xc C:\gnat\2021-arm-elf\arm-eabi\lib\gnat\ravenscar-full-nrf52833\adalib\libgnarl.a(s-bbtime.o)
                0x0000000000001ba4                system__bb__time__epoch
 .text.system__bb__time__get_next_timeout
                0x0000000000001bb0       0x38 C:\gnat\2021-arm-elf\arm-eabi\lib\gnat\ravenscar-full-nrf52833\adalib\libgnarl.a(s-bbtime.o)
                0x0000000000001bb0                system__bb__time__get_next_timeout
 .text.system__bb__time__initialize_timers
                0x0000000000001be8       0x98 C:\gnat\2021-arm-elf\arm-eabi\lib\gnat\ravenscar-full-nrf52833\adalib\libgnarl.a(s-bbtime.o)
                0x0000000000001be8                system__bb__time__initialize_timers
 .text.system__bb__time__update_alarm
                0x0000000000001c80       0xb8 C:\gnat\2021-arm-elf\arm-eabi\lib\gnat\ravenscar-full-nrf52833\adalib\libgnarl.a(s-bbtime.o)
                0x0000000000001c80                system__bb__time__update_alarm
 .text.system__bb__time__delay_until
                0x0000000000001d38       0xf0 C:\gnat\2021-arm-elf\arm-eabi\lib\gnat\ravenscar-full-nrf52833\adalib\libgnarl.a(s-bbtime.o)
                0x0000000000001d38                system__bb__time__delay_until
 .text.system__bb__time__Oconcat
                0x0000000000001e28       0x14 C:\gnat\2021-arm-elf\arm-eabi\lib\gnat\ravenscar-full-nrf52833\adalib\libgnarl.a(s-bbtime.o)
                0x0000000000001e28                system__bb__time__Oconcat
 .text          0x0000000000001e3c        0x0 C:\gnat\2021-arm-elf\arm-eabi\lib\gnat\ravenscar-full-nrf52833\adalib\libgnarl.a(s-bcpcst.o)
 .text.system__bb__cpu_primitives__context_switch_trigger__initialize_context_switch
                0x0000000000001e3c        0x4 C:\gnat\2021-arm-elf\arm-eabi\lib\gnat\ravenscar-full-nrf52833\adalib\libgnarl.a(s-bcpcst.o)
                0x0000000000001e3c                system__bb__cpu_primitives__context_switch_trigger__initialize_context_switch
 .text.system__bb__cpu_primitives__context_switch_trigger__trigger_context_switch
                0x0000000000001e40       0x14 C:\gnat\2021-arm-elf\arm-eabi\lib\gnat\ravenscar-full-nrf52833\adalib\libgnarl.a(s-bcpcst.o)
                0x0000000000001e40                system__bb__cpu_primitives__context_switch_trigger__trigger_context_switch
 .text.__gnat_pend_sv_trap
                0x0000000000001e54       0x48 C:\gnat\2021-arm-elf\arm-eabi\lib\gnat\ravenscar-full-nrf52833\adalib\libgnarl.a(s-bcpcst.o)
                0x0000000000001e54                __gnat_pend_sv_trap
 .text          0x0000000000001e9c        0x0 C:\gnat\2021-arm-elf\arm-eabi\lib\gnat\ravenscar-full-nrf52833\adalib\libgnarl.a(s-tarest.o)
 .text.system__tasking__restricted__stages__create_restricted_task__2
                0x0000000000001e9c       0x88 C:\gnat\2021-arm-elf\arm-eabi\lib\gnat\ravenscar-full-nrf52833\adalib\libgnarl.a(s-tarest.o)
 .text.system__tasking__restricted__stages__task_wrapper
                0x0000000000001f24       0xa8 C:\gnat\2021-arm-elf\arm-eabi\lib\gnat\ravenscar-full-nrf52833\adalib\libgnarl.a(s-tarest.o)
 .text.system__tasking__restricted__stages__activate_tasks
                0x0000000000001fcc       0x94 C:\gnat\2021-arm-elf\arm-eabi\lib\gnat\ravenscar-full-nrf52833\adalib\libgnarl.a(s-tarest.o)
 .text.__gnat_activate_all_tasks
                0x0000000000002060       0x14 C:\gnat\2021-arm-elf\arm-eabi\lib\gnat\ravenscar-full-nrf52833\adalib\libgnarl.a(s-tarest.o)
                0x0000000000002060                __gnat_activate_all_tasks
 .text.system__tasking__restricted__stages__activate_restricted_tasks
                0x0000000000002074       0x20 C:\gnat\2021-arm-elf\arm-eabi\lib\gnat\ravenscar-full-nrf52833\adalib\libgnarl.a(s-tarest.o)
                0x0000000000002074                system__tasking__restricted__stages__activate_restricted_tasks
 .text.system__tasking__restricted__stages__complete_restricted_activation
                0x0000000000002094        0x4 C:\gnat\2021-arm-elf\arm-eabi\lib\gnat\ravenscar-full-nrf52833\adalib\libgnarl.a(s-tarest.o)
                0x0000000000002094                system__tasking__restricted__stages__complete_restricted_activation
 .text.system__tasking__restricted__stages__complete_restricted_task
                0x0000000000002098       0x10 C:\gnat\2021-arm-elf\arm-eabi\lib\gnat\ravenscar-full-nrf52833\adalib\libgnarl.a(s-tarest.o)
                0x0000000000002098                system__tasking__restricted__stages__complete_restricted_task
 .text.system__tasking__restricted__stages__create_restricted_task
                0x00000000000020a8       0x6c C:\gnat\2021-arm-elf\arm-eabi\lib\gnat\ravenscar-full-nrf52833\adalib\libgnarl.a(s-tarest.o)
                0x00000000000020a8                system__tasking__restricted__stages__create_restricted_task
 .text.system__tasking__restricted__stages__create_restricted_task_sequential
                0x0000000000002114       0x98 C:\gnat\2021-arm-elf\arm-eabi\lib\gnat\ravenscar-full-nrf52833\adalib\libgnarl.a(s-tarest.o)
                0x0000000000002114                system__tasking__restricted__stages__create_restricted_task_sequential
 .text.system__tasking__restricted__stages__finalize_global_tasks
                0x00000000000021ac       0x10 C:\gnat\2021-arm-elf\arm-eabi\lib\gnat\ravenscar-full-nrf52833\adalib\libgnarl.a(s-tarest.o)
                0x00000000000021ac                system__tasking__restricted__stages__finalize_global_tasks
 .text.system__tasking__restricted__stages__restricted_terminated
                0x00000000000021bc       0x10 C:\gnat\2021-arm-elf\arm-eabi\lib\gnat\ravenscar-full-nrf52833\adalib\libgnarl.a(s-tarest.o)
                0x00000000000021bc                system__tasking__restricted__stages__restricted_terminated
 .text.system__tasking__restricted__stages___elabb
                0x00000000000021cc        0x4 C:\gnat\2021-arm-elf\arm-eabi\lib\gnat\ravenscar-full-nrf52833\adalib\libgnarl.a(s-tarest.o)
                0x00000000000021cc                system__tasking__restricted__stages___elabb
 .text          0x00000000000021d0        0x0 C:\gnat\2021-arm-elf\arm-eabi\lib\gnat\ravenscar-full-nrf52833\adalib\libgnarl.a(s-tasdeb.o)
 .text.system__tasking__debug__add_task_id
                0x00000000000021d0       0x3c C:\gnat\2021-arm-elf\arm-eabi\lib\gnat\ravenscar-full-nrf52833\adalib\libgnarl.a(s-tasdeb.o)
                0x00000000000021d0                system__tasking__debug__add_task_id
 .text          0x000000000000220c        0x0 C:\gnat\2021-arm-elf\arm-eabi\lib\gnat\ravenscar-full-nrf52833\adalib\libgnarl.a(s-taskin.o)
 .text.system__tasking__E5sIP
                0x000000000000220c        0x8 C:\gnat\2021-arm-elf\arm-eabi\lib\gnat\ravenscar-full-nrf52833\adalib\libgnarl.a(s-taskin.o)
                0x000000000000220c                system__tasking__E5sIP
 .text.system__tasking__task_statesH
                0x0000000000002214       0xa0 C:\gnat\2021-arm-elf\arm-eabi\lib\gnat\ravenscar-full-nrf52833\adalib\libgnarl.a(s-taskin.o)
                0x0000000000002214                system__tasking__task_statesH
 .text.system__tasking__call_modesH
                0x00000000000022b4       0x54 C:\gnat\2021-arm-elf\arm-eabi\lib\gnat\ravenscar-full-nrf52833\adalib\libgnarl.a(s-taskin.o)
                0x00000000000022b4                system__tasking__call_modesH
 .text.system__tasking__entry_queueIP
                0x0000000000002308        0x8 C:\gnat\2021-arm-elf\arm-eabi\lib\gnat\ravenscar-full-nrf52833\adalib\libgnarl.a(s-taskin.o)
                0x0000000000002308                system__tasking__entry_queueIP
 .text.system__tasking__activation_chainIP
                0x0000000000002310        0x8 C:\gnat\2021-arm-elf\arm-eabi\lib\gnat\ravenscar-full-nrf52833\adalib\libgnarl.a(s-taskin.o)
                0x0000000000002310                system__tasking__activation_chainIP
 .text.__gnat_get_secondary_stack
                0x0000000000002318       0x10 C:\gnat\2021-arm-elf\arm-eabi\lib\gnat\ravenscar-full-nrf52833\adalib\libgnarl.a(s-taskin.o)
                0x0000000000002318                __gnat_get_secondary_stack
 .text.system__tasking__initialize_atcb
                0x0000000000002328       0x34 C:\gnat\2021-arm-elf\arm-eabi\lib\gnat\ravenscar-full-nrf52833\adalib\libgnarl.a(s-taskin.o)
                0x0000000000002328                system__tasking__initialize_atcb
 .text.system__tasking__initialize
                0x000000000000235c      0x148 C:\gnat\2021-arm-elf\arm-eabi\lib\gnat\ravenscar-full-nrf52833\adalib\libgnarl.a(s-taskin.o)
                0x000000000000235c                system__tasking__initialize
 .text.system__tasking__self
                0x00000000000024a4        0xc C:\gnat\2021-arm-elf\arm-eabi\lib\gnat\ravenscar-full-nrf52833\adalib\libgnarl.a(s-taskin.o)
                0x00000000000024a4                system__tasking__self
 .text.system__tasking__storage_size
                0x00000000000024b0        0x8 C:\gnat\2021-arm-elf\arm-eabi\lib\gnat\ravenscar-full-nrf52833\adalib\libgnarl.a(s-taskin.o)
                0x00000000000024b0                system__tasking__storage_size
 .text          0x00000000000024b8        0x0 C:\gnat\2021-arm-elf\arm-eabi\lib\gnat\ravenscar-full-nrf52833\adalib\libgnarl.a(s-bbprot.o)
 .text.system__bb__protection__enter_kernel
                0x00000000000024b8        0x4 C:\gnat\2021-arm-elf\arm-eabi\lib\gnat\ravenscar-full-nrf52833\adalib\libgnarl.a(s-bbprot.o)
                0x00000000000024b8                system__bb__protection__enter_kernel
 .text.system__bb__protection__leave_kernel
                0x00000000000024bc       0x34 C:\gnat\2021-arm-elf\arm-eabi\lib\gnat\ravenscar-full-nrf52833\adalib\libgnarl.a(s-bbprot.o)
                0x00000000000024bc                system__bb__protection__leave_kernel
 .text          0x00000000000024f0        0x0 C:\gnat\2021-arm-elf\arm-eabi\lib\gnat\ravenscar-full-nrf52833\adalib\libgnarl.a(s-bbthre.o)
 .text.system__bb__threads__thread_descriptorIP
                0x00000000000024f0        0xc C:\gnat\2021-arm-elf\arm-eabi\lib\gnat\ravenscar-full-nrf52833\adalib\libgnarl.a(s-bbthre.o)
                0x00000000000024f0                system__bb__threads__thread_descriptorIP
 .text.system__bb__threads__get_affinity
                0x00000000000024fc        0x8 C:\gnat\2021-arm-elf\arm-eabi\lib\gnat\ravenscar-full-nrf52833\adalib\libgnarl.a(s-bbthre.o)
                0x00000000000024fc                system__bb__threads__get_affinity
 .text.system__bb__threads__get_cpu
                0x0000000000002504        0xc C:\gnat\2021-arm-elf\arm-eabi\lib\gnat\ravenscar-full-nrf52833\adalib\libgnarl.a(s-bbthre.o)
                0x0000000000002504                system__bb__threads__get_cpu
 .text.system__bb__threads__get_atcb
                0x0000000000002510        0xc C:\gnat\2021-arm-elf\arm-eabi\lib\gnat\ravenscar-full-nrf52833\adalib\libgnarl.a(s-bbthre.o)
                0x0000000000002510                system__bb__threads__get_atcb
 .text.system__bb__threads__get_priority
                0x000000000000251c        0x4 C:\gnat\2021-arm-elf\arm-eabi\lib\gnat\ravenscar-full-nrf52833\adalib\libgnarl.a(s-bbthre.o)
                0x000000000000251c                system__bb__threads__get_priority
 .text.system__bb__threads__initialize
                0x0000000000002520      0x144 C:\gnat\2021-arm-elf\arm-eabi\lib\gnat\ravenscar-full-nrf52833\adalib\libgnarl.a(s-bbthre.o)
                0x0000000000002520                system__bb__threads__initialize
 .text.system__bb__threads__initialize_slave
                0x0000000000002664       0xa4 C:\gnat\2021-arm-elf\arm-eabi\lib\gnat\ravenscar-full-nrf52833\adalib\libgnarl.a(s-bbthre.o)
                0x0000000000002664                system__bb__threads__initialize_slave
 .text.system__bb__threads__set_atcb
                0x0000000000002708        0x4 C:\gnat\2021-arm-elf\arm-eabi\lib\gnat\ravenscar-full-nrf52833\adalib\libgnarl.a(s-bbthre.o)
                0x0000000000002708                system__bb__threads__set_atcb
 .text.system__bb__threads__set_priority
                0x000000000000270c       0x1c C:\gnat\2021-arm-elf\arm-eabi\lib\gnat\ravenscar-full-nrf52833\adalib\libgnarl.a(s-bbthre.o)
                0x000000000000270c                system__bb__threads__set_priority
 .text.system__bb__threads__sleep
                0x0000000000002728       0x48 C:\gnat\2021-arm-elf\arm-eabi\lib\gnat\ravenscar-full-nrf52833\adalib\libgnarl.a(s-bbthre.o)
                0x0000000000002728                system__bb__threads__sleep
 .text.system__bb__threads__thread_create
                0x0000000000002770      0x10c C:\gnat\2021-arm-elf\arm-eabi\lib\gnat\ravenscar-full-nrf52833\adalib\libgnarl.a(s-bbthre.o)
                0x0000000000002770                system__bb__threads__thread_create
 .text.system__bb__threads__thread_self
                0x000000000000287c        0xc C:\gnat\2021-arm-elf\arm-eabi\lib\gnat\ravenscar-full-nrf52833\adalib\libgnarl.a(s-bbthre.o)
                0x000000000000287c                system__bb__threads__thread_self
 .text.system__bb__threads__wakeup
                0x0000000000002888       0xa4 C:\gnat\2021-arm-elf\arm-eabi\lib\gnat\ravenscar-full-nrf52833\adalib\libgnarl.a(s-bbthre.o)
                0x0000000000002888                system__bb__threads__wakeup
 .text          0x000000000000292c        0x0 C:\gnat\2021-arm-elf\arm-eabi\lib\gnat\ravenscar-full-nrf52833\adalib\libgnarl.a(s-taprop.o)
 .text.system__task_primitives__operations__Tidle_stacksBIP
                0x000000000000292c        0x4 C:\gnat\2021-arm-elf\arm-eabi\lib\gnat\ravenscar-full-nrf52833\adalib\libgnarl.a(s-taprop.o)
                0x000000000000292c                system__task_primitives__operations__Tidle_stacksBIP
 .text.system__task_primitives__operations__Tidle_stacks_tableBIP
                0x0000000000002930        0x4 C:\gnat\2021-arm-elf\arm-eabi\lib\gnat\ravenscar-full-nrf52833\adalib\libgnarl.a(s-taprop.o)
                0x0000000000002930                system__task_primitives__operations__Tidle_stacks_tableBIP
 .text.system__task_primitives__operations__Tidle_tasksBIP
                0x0000000000002934        0x4 C:\gnat\2021-arm-elf\arm-eabi\lib\gnat\ravenscar-full-nrf52833\adalib\libgnarl.a(s-taprop.o)
                0x0000000000002934                system__task_primitives__operations__Tidle_tasksBIP
 .text.system__task_primitives__operations__self
                0x0000000000002938        0xc C:\gnat\2021-arm-elf\arm-eabi\lib\gnat\ravenscar-full-nrf52833\adalib\libgnarl.a(s-taprop.o)
                0x0000000000002938                system__task_primitives__operations__self
 .text.system__task_primitives__operations__sleep
                0x0000000000002944        0x4 C:\gnat\2021-arm-elf\arm-eabi\lib\gnat\ravenscar-full-nrf52833\adalib\libgnarl.a(s-taprop.o)
                0x0000000000002944                system__task_primitives__operations__sleep
 .text.system__task_primitives__operations__delay_until
                0x0000000000002948       0x1c C:\gnat\2021-arm-elf\arm-eabi\lib\gnat\ravenscar-full-nrf52833\adalib\libgnarl.a(s-taprop.o)
                0x0000000000002948                system__task_primitives__operations__delay_until
 .text.system__task_primitives__operations__monotonic_clock
                0x0000000000002964       0x58 C:\gnat\2021-arm-elf\arm-eabi\lib\gnat\ravenscar-full-nrf52833\adalib\libgnarl.a(s-taprop.o)
                0x0000000000002964                system__task_primitives__operations__monotonic_clock
 .text.system__task_primitives__operations__wakeup
                0x00000000000029bc        0x8 C:\gnat\2021-arm-elf\arm-eabi\lib\gnat\ravenscar-full-nrf52833\adalib\libgnarl.a(s-taprop.o)
                0x00000000000029bc                system__task_primitives__operations__wakeup
 .text.system__task_primitives__operations__set_priority
                0x00000000000029c4       0x18 C:\gnat\2021-arm-elf\arm-eabi\lib\gnat\ravenscar-full-nrf52833\adalib\libgnarl.a(s-taprop.o)
                0x00000000000029c4                system__task_primitives__operations__set_priority
 .text.system__task_primitives__operations__get_priority
                0x00000000000029dc        0x8 C:\gnat\2021-arm-elf\arm-eabi\lib\gnat\ravenscar-full-nrf52833\adalib\libgnarl.a(s-taprop.o)
                0x00000000000029dc                system__task_primitives__operations__get_priority
 .text.system__task_primitives__operations__get_affinity
                0x00000000000029e4        0xc C:\gnat\2021-arm-elf\arm-eabi\lib\gnat\ravenscar-full-nrf52833\adalib\libgnarl.a(s-taprop.o)
                0x00000000000029e4                system__task_primitives__operations__get_affinity
 .text.system__task_primitives__operations__get_cpu
                0x00000000000029f0       0x10 C:\gnat\2021-arm-elf\arm-eabi\lib\gnat\ravenscar-full-nrf52833\adalib\libgnarl.a(s-taprop.o)
                0x00000000000029f0                system__task_primitives__operations__get_cpu
 .text.system__task_primitives__operations__get_thread_id
                0x0000000000002a00        0x8 C:\gnat\2021-arm-elf\arm-eabi\lib\gnat\ravenscar-full-nrf52833\adalib\libgnarl.a(s-taprop.o)
                0x0000000000002a00                system__task_primitives__operations__get_thread_id
 .text.system__task_primitives__operations__enter_task
                0x0000000000002a08       0x3c C:\gnat\2021-arm-elf\arm-eabi\lib\gnat\ravenscar-full-nrf52833\adalib\libgnarl.a(s-taprop.o)
                0x0000000000002a08                system__task_primitives__operations__enter_task
 .text.system__task_primitives__operations__idle
                0x0000000000002a44       0x14 C:\gnat\2021-arm-elf\arm-eabi\lib\gnat\ravenscar-full-nrf52833\adalib\libgnarl.a(s-taprop.o)
                0x0000000000002a44                system__task_primitives__operations__idle
 .text.system__task_primitives__operations__initialize_tcb
                0x0000000000002a58        0x4 C:\gnat\2021-arm-elf\arm-eabi\lib\gnat\ravenscar-full-nrf52833\adalib\libgnarl.a(s-taprop.o)
                0x0000000000002a58                system__task_primitives__operations__initialize_tcb
 .text.system__task_primitives__operations__create_task
                0x0000000000002a5c       0x34 C:\gnat\2021-arm-elf\arm-eabi\lib\gnat\ravenscar-full-nrf52833\adalib\libgnarl.a(s-taprop.o)
                0x0000000000002a5c                system__task_primitives__operations__create_task
 .text.system__task_primitives__operations__initialize_idle
                0x0000000000002a90       0x68 C:\gnat\2021-arm-elf\arm-eabi\lib\gnat\ravenscar-full-nrf52833\adalib\libgnarl.a(s-taprop.o)
                0x0000000000002a90                system__task_primitives__operations__initialize_idle
 .text.__gnat_initialize_slave
                0x0000000000002af8       0x44 C:\gnat\2021-arm-elf\arm-eabi\lib\gnat\ravenscar-full-nrf52833\adalib\libgnarl.a(s-taprop.o)
                0x0000000000002af8                __gnat_initialize_slave
 .text.system__task_primitives__operations__initialize
                0x0000000000002b3c       0xac C:\gnat\2021-arm-elf\arm-eabi\lib\gnat\ravenscar-full-nrf52833\adalib\libgnarl.a(s-taprop.o)
                0x0000000000002b3c                system__task_primitives__operations__initialize
 .text.system__task_primitives__operations__is_task_context
                0x0000000000002be8       0x14 C:\gnat\2021-arm-elf\arm-eabi\lib\gnat\ravenscar-full-nrf52833\adalib\libgnarl.a(s-taprop.o)
                0x0000000000002be8                system__task_primitives__operations__is_task_context
 .text          0x0000000000002bfc        0x0 C:\gnat\2021-arm-elf\arm-eabi\lib\gnat\ravenscar-full-nrf52833\adalib\libgnat.a(a-except.o)
 .text.ada__exceptions__exception_occurrenceIP
                0x0000000000002bfc       0x14 C:\gnat\2021-arm-elf\arm-eabi\lib\gnat\ravenscar-full-nrf52833\adalib\libgnat.a(a-except.o)
                0x0000000000002bfc                ada__exceptions__exception_occurrenceIP
 .text.ada__exceptions__exception_data__append_info_addressXn
                0x0000000000002c10       0x6c C:\gnat\2021-arm-elf\arm-eabi\lib\gnat\ravenscar-full-nrf52833\adalib\libgnat.a(a-except.o)
                0x0000000000002c10                ada__exceptions__exception_data__append_info_addressXn
 .text.ada__exceptions__exception_data__append_info_basic_exception_informationXn
                0x0000000000002c7c       0xe8 C:\gnat\2021-arm-elf\arm-eabi\lib\gnat\ravenscar-full-nrf52833\adalib\libgnat.a(a-except.o)
                0x0000000000002c7c                ada__exceptions__exception_data__append_info_basic_exception_informationXn
 .text.ada__exceptions__exception_data__append_info_characterXn
                0x0000000000002d64       0x20 C:\gnat\2021-arm-elf\arm-eabi\lib\gnat\ravenscar-full-nrf52833\adalib\libgnat.a(a-except.o)
                0x0000000000002d64                ada__exceptions__exception_data__append_info_characterXn
 .text.__gnat_append_info_e_msg
                0x0000000000002d84       0x60 C:\gnat\2021-arm-elf\arm-eabi\lib\gnat\ravenscar-full-nrf52833\adalib\libgnat.a(a-except.o)
                0x0000000000002d84                __gnat_append_info_e_msg
 .text.ada__exceptions__exception_data__append_info_exception_nameXn
                0x0000000000002de4       0x60 C:\gnat\2021-arm-elf\arm-eabi\lib\gnat\ravenscar-full-nrf52833\adalib\libgnat.a(a-except.o)
                0x0000000000002de4                ada__exceptions__exception_data__append_info_exception_nameXn
 .text.ada__exceptions__exception_data__append_info_exception_name__2Xn
                0x0000000000002e44        0xc C:\gnat\2021-arm-elf\arm-eabi\lib\gnat\ravenscar-full-nrf52833\adalib\libgnat.a(a-except.o)
                0x0000000000002e44                ada__exceptions__exception_data__append_info_exception_name__2Xn
 .text.ada__exceptions__exception_data__exception_info_maxlengthXn
                0x0000000000002e50       0x14 C:\gnat\2021-arm-elf\arm-eabi\lib\gnat\ravenscar-full-nrf52833\adalib\libgnat.a(a-except.o)
                0x0000000000002e50                ada__exceptions__exception_data__exception_info_maxlengthXn
 .text.ada__exceptions__exception_data__append_info_natXn
                0x0000000000002e64       0x4c C:\gnat\2021-arm-elf\arm-eabi\lib\gnat\ravenscar-full-nrf52833\adalib\libgnat.a(a-except.o)
                0x0000000000002e64                ada__exceptions__exception_data__append_info_natXn
 .text.ada__exceptions__exception_data__append_info_nlXn
                0x0000000000002eb0       0x10 C:\gnat\2021-arm-elf\arm-eabi\lib\gnat\ravenscar-full-nrf52833\adalib\libgnat.a(a-except.o)
                0x0000000000002eb0                ada__exceptions__exception_data__append_info_nlXn
 .text.ada__exceptions__exception_data__append_info_stringXn
                0x0000000000002ec0       0x48 C:\gnat\2021-arm-elf\arm-eabi\lib\gnat\ravenscar-full-nrf52833\adalib\libgnat.a(a-except.o)
                0x0000000000002ec0                ada__exceptions__exception_data__append_info_stringXn
 .text.__gnat_append_info_u_e_info
                0x0000000000002f08       0x1c C:\gnat\2021-arm-elf\arm-eabi\lib\gnat\ravenscar-full-nrf52833\adalib\libgnat.a(a-except.o)
                0x0000000000002f08                __gnat_append_info_u_e_info
 .text.ada__exceptions__exception_data__append_info_untailored_exception_tracebackXn
                0x0000000000002f24       0xc4 C:\gnat\2021-arm-elf\arm-eabi\lib\gnat\ravenscar-full-nrf52833\adalib\libgnat.a(a-except.o)
                0x0000000000002f24                ada__exceptions__exception_data__append_info_untailored_exception_tracebackXn
 .text.ada__exceptions__exception_data__basic_exception_info_maxlengthXn
                0x0000000000002fe8       0x18 C:\gnat\2021-arm-elf\arm-eabi\lib\gnat\ravenscar-full-nrf52833\adalib\libgnat.a(a-except.o)
                0x0000000000002fe8                ada__exceptions__exception_data__basic_exception_info_maxlengthXn
 .text.ada__exceptions__exception_data__exception_informationXn
                0x0000000000003000       0xac C:\gnat\2021-arm-elf\arm-eabi\lib\gnat\ravenscar-full-nrf52833\adalib\libgnat.a(a-except.o)
                0x0000000000003000                ada__exceptions__exception_data__exception_informationXn
 .text.__gnat_exception_msg_len
                0x00000000000030ac        0x4 C:\gnat\2021-arm-elf\arm-eabi\lib\gnat\ravenscar-full-nrf52833\adalib\libgnat.a(a-except.o)
                0x00000000000030ac                __gnat_exception_msg_len
 .text.ada__exceptions__exception_data__exception_name_lengthXn
                0x00000000000030b0        0x8 C:\gnat\2021-arm-elf\arm-eabi\lib\gnat\ravenscar-full-nrf52833\adalib\libgnat.a(a-except.o)
                0x00000000000030b0                ada__exceptions__exception_data__exception_name_lengthXn
 .text.ada__exceptions__exception_data__exception_name_length__2Xn
                0x00000000000030b8        0xc C:\gnat\2021-arm-elf\arm-eabi\lib\gnat\ravenscar-full-nrf52833\adalib\libgnat.a(a-except.o)
                0x00000000000030b8                ada__exceptions__exception_data__exception_name_length__2Xn
 .text.ada__exceptions__exception_data__untailored_exception_tracebackXn
                0x00000000000030c4       0x80 C:\gnat\2021-arm-elf\arm-eabi\lib\gnat\ravenscar-full-nrf52833\adalib\libgnat.a(a-except.o)
                0x00000000000030c4                ada__exceptions__exception_data__untailored_exception_tracebackXn
 .text.ada__exceptions__exception_data__untailored_exception_informationXn
                0x0000000000003144       0x68 C:\gnat\2021-arm-elf\arm-eabi\lib\gnat\ravenscar-full-nrf52833\adalib\libgnat.a(a-except.o)
                0x0000000000003144                ada__exceptions__exception_data__untailored_exception_informationXn
 .text.ada__exceptions__exception_data__set_exception_c_msg__append_number.0
                0x00000000000031ac       0x80 C:\gnat\2021-arm-elf\arm-eabi\lib\gnat\ravenscar-full-nrf52833\adalib\libgnat.a(a-except.o)
 .text.ada__exceptions__exception_data__set_exception_c_msgXn
                0x000000000000322c       0x98 C:\gnat\2021-arm-elf\arm-eabi\lib\gnat\ravenscar-full-nrf52833\adalib\libgnat.a(a-except.o)
                0x000000000000322c                ada__exceptions__exception_data__set_exception_c_msgXn
 .text.ada__exceptions__exception_data__set_exception_msgXn
                0x00000000000032c4       0x48 C:\gnat\2021-arm-elf\arm-eabi\lib\gnat\ravenscar-full-nrf52833\adalib\libgnat.a(a-except.o)
                0x00000000000032c4                ada__exceptions__exception_data__set_exception_msgXn
 .text.ada__exceptions__exception_data__tailored_exception_tracebackXn
                0x000000000000330c       0x38 C:\gnat\2021-arm-elf\arm-eabi\lib\gnat\ravenscar-full-nrf52833\adalib\libgnat.a(a-except.o)
                0x000000000000330c                ada__exceptions__exception_data__tailored_exception_tracebackXn
 .text.ada__exceptions__exception_data__untailored_exception_traceback_maxlengthXn
                0x0000000000003344       0x10 C:\gnat\2021-arm-elf\arm-eabi\lib\gnat\ravenscar-full-nrf52833\adalib\libgnat.a(a-except.o)
                0x0000000000003344                ada__exceptions__exception_data__untailored_exception_traceback_maxlengthXn
 .text.ada__exceptions__exception_propagation__allocate_occurrenceXn
                0x0000000000003354       0x14 C:\gnat\2021-arm-elf\arm-eabi\lib\gnat\ravenscar-full-nrf52833\adalib\libgnat.a(a-except.o)
                0x0000000000003354                ada__exceptions__exception_propagation__allocate_occurrenceXn
 .text.ada__exceptions__exception_propagation__gnat_gcc_exception_cleanupXn
                0x0000000000003368       0x10 C:\gnat\2021-arm-elf\arm-eabi\lib\gnat\ravenscar-full-nrf52833\adalib\libgnat.a(a-except.o)
                0x0000000000003368                ada__exceptions__exception_propagation__gnat_gcc_exception_cleanupXn
 .text.ada__exceptions__exception_propagation__set_foreign_occurrenceXn
                0x0000000000003378       0x28 C:\gnat\2021-arm-elf\arm-eabi\lib\gnat\ravenscar-full-nrf52833\adalib\libgnat.a(a-except.o)
                0x0000000000003378                ada__exceptions__exception_propagation__set_foreign_occurrenceXn
 .text.__gnat_setup_current_excep
                0x00000000000033a0       0x40 C:\gnat\2021-arm-elf\arm-eabi\lib\gnat\ravenscar-full-nrf52833\adalib\libgnat.a(a-except.o)
                0x00000000000033a0                __gnat_setup_current_excep
 .text.__gnat_begin_handler_v1
                0x00000000000033e0       0x10 C:\gnat\2021-arm-elf\arm-eabi\lib\gnat\ravenscar-full-nrf52833\adalib\libgnat.a(a-except.o)
                0x00000000000033e0                __gnat_begin_handler_v1
 .text.__gnat_end_handler_v1
                0x00000000000033f0       0x2c C:\gnat\2021-arm-elf\arm-eabi\lib\gnat\ravenscar-full-nrf52833\adalib\libgnat.a(a-except.o)
                0x00000000000033f0                __gnat_end_handler_v1
 .text.__gnat_claimed_cleanup
                0x000000000000341c        0x4 C:\gnat\2021-arm-elf\arm-eabi\lib\gnat\ravenscar-full-nrf52833\adalib\libgnat.a(a-except.o)
                0x000000000000341c                __gnat_claimed_cleanup
 .text.__gnat_begin_handler
                0x0000000000003420        0x4 C:\gnat\2021-arm-elf\arm-eabi\lib\gnat\ravenscar-full-nrf52833\adalib\libgnat.a(a-except.o)
                0x0000000000003420                __gnat_begin_handler
 .text.__gnat_end_handler
                0x0000000000003424        0xc C:\gnat\2021-arm-elf\arm-eabi\lib\gnat\ravenscar-full-nrf52833\adalib\libgnat.a(a-except.o)
                0x0000000000003424                __gnat_end_handler
 .text.__gnat_reraise_zcx
                0x0000000000003430        0x8 C:\gnat\2021-arm-elf\arm-eabi\lib\gnat\ravenscar-full-nrf52833\adalib\libgnat.a(a-except.o)
                0x0000000000003430                __gnat_reraise_zcx
 .text.ada__exceptions__exception_propagation__propagate_gcc_exceptionXn
                0x0000000000003438       0x2c C:\gnat\2021-arm-elf\arm-eabi\lib\gnat\ravenscar-full-nrf52833\adalib\libgnat.a(a-except.o)
                0x0000000000003438                ada__exceptions__exception_propagation__propagate_gcc_exceptionXn
 .text.ada__exceptions__exception_propagation__propagate_exceptionXn
                0x0000000000003464        0x8 C:\gnat\2021-arm-elf\arm-eabi\lib\gnat\ravenscar-full-nrf52833\adalib\libgnat.a(a-except.o)
                0x0000000000003464                ada__exceptions__exception_propagation__propagate_exceptionXn
 .text.__gnat_set_exception_parameter
                0x000000000000346c       0x2c C:\gnat\2021-arm-elf\arm-eabi\lib\gnat\ravenscar-full-nrf52833\adalib\libgnat.a(a-except.o)
                0x000000000000346c                __gnat_set_exception_parameter
 .text.__gnat_unhandled_except_handler
                0x0000000000003498        0xc C:\gnat\2021-arm-elf\arm-eabi\lib\gnat\ravenscar-full-nrf52833\adalib\libgnat.a(a-except.o)
                0x0000000000003498                __gnat_unhandled_except_handler
 .text.__gnat_eid_for
                0x00000000000034a4        0x4 C:\gnat\2021-arm-elf\arm-eabi\lib\gnat\ravenscar-full-nrf52833\adalib\libgnat.a(a-except.o)
                0x00000000000034a4                __gnat_eid_for
 .text.__gnat_foreign_data_for
                0x00000000000034a8        0x4 C:\gnat\2021-arm-elf\arm-eabi\lib\gnat\ravenscar-full-nrf52833\adalib\libgnat.a(a-except.o)
                0x00000000000034a8                __gnat_foreign_data_for
 .text.__gnat_is_handled_by_others
                0x00000000000034ac        0xc C:\gnat\2021-arm-elf\arm-eabi\lib\gnat\ravenscar-full-nrf52833\adalib\libgnat.a(a-except.o)
                0x00000000000034ac                __gnat_is_handled_by_others
 .text.__gnat_language_for
                0x00000000000034b8        0x4 C:\gnat\2021-arm-elf\arm-eabi\lib\gnat\ravenscar-full-nrf52833\adalib\libgnat.a(a-except.o)
                0x00000000000034b8                __gnat_language_for
 .text.ada__exceptions__exception_traces__notify_exception__B295b___finalizerXn.1
                0x00000000000034bc        0xc C:\gnat\2021-arm-elf\arm-eabi\lib\gnat\ravenscar-full-nrf52833\adalib\libgnat.a(a-except.o)
 .text.ada__exceptions__exception_traces__notify_exceptionXn
                0x00000000000034c8      0x130 C:\gnat\2021-arm-elf\arm-eabi\lib\gnat\ravenscar-full-nrf52833\adalib\libgnat.a(a-except.o)
                0x00000000000034c8                ada__exceptions__exception_traces__notify_exceptionXn
 .text.__gnat_notify_handled_exception
                0x00000000000035f8        0xc C:\gnat\2021-arm-elf\arm-eabi\lib\gnat\ravenscar-full-nrf52833\adalib\libgnat.a(a-except.o)
                0x00000000000035f8                __gnat_notify_handled_exception
 .text.__gnat_notify_unhandled_exception
                0x0000000000003604       0x20 C:\gnat\2021-arm-elf\arm-eabi\lib\gnat\ravenscar-full-nrf52833\adalib\libgnat.a(a-except.o)
                0x0000000000003604                __gnat_notify_unhandled_exception
 .text.ada__exceptions__exception_traces__unhandled_exception_terminateXn
                0x0000000000003624       0x1c C:\gnat\2021-arm-elf\arm-eabi\lib\gnat\ravenscar-full-nrf52833\adalib\libgnat.a(a-except.o)
                0x0000000000003624                ada__exceptions__exception_traces__unhandled_exception_terminateXn
 .text.ada__exceptions__stream_attributes__eid_to_stringXn
                0x0000000000003640       0x34 C:\gnat\2021-arm-elf\arm-eabi\lib\gnat\ravenscar-full-nrf52833\adalib\libgnat.a(a-except.o)
                0x0000000000003640                ada__exceptions__stream_attributes__eid_to_stringXn
 .text.ada__exceptions__stream_attributes__eo_to_stringXn
                0x0000000000003674       0x38 C:\gnat\2021-arm-elf\arm-eabi\lib\gnat\ravenscar-full-nrf52833\adalib\libgnat.a(a-except.o)
                0x0000000000003674                ada__exceptions__stream_attributes__eo_to_stringXn
 .text.ada__exceptions__stream_attributes__string_to_eidXn
                0x00000000000036ac       0x18 C:\gnat\2021-arm-elf\arm-eabi\lib\gnat\ravenscar-full-nrf52833\adalib\libgnat.a(a-except.o)
                0x00000000000036ac                ada__exceptions__stream_attributes__string_to_eidXn
 .text.ada__exceptions__stream_attributes__string_to_eo__bad_eo.3
                0x00000000000036c4       0x18 C:\gnat\2021-arm-elf\arm-eabi\lib\gnat\ravenscar-full-nrf52833\adalib\libgnat.a(a-except.o)
 .text.ada__exceptions__stream_attributes__string_to_eoXn
                0x00000000000036dc      0x254 C:\gnat\2021-arm-elf\arm-eabi\lib\gnat\ravenscar-full-nrf52833\adalib\libgnat.a(a-except.o)
                0x00000000000036dc                ada__exceptions__stream_attributes__string_to_eoXn
 .text.ada__exceptions__stream_attributes__string_to_eo__next_string.2
                0x0000000000003930       0x54 C:\gnat\2021-arm-elf\arm-eabi\lib\gnat\ravenscar-full-nrf52833\adalib\libgnat.a(a-except.o)
 .text.ada__exceptions__code_address_for_aaa
                0x0000000000003984        0x8 C:\gnat\2021-arm-elf\arm-eabi\lib\gnat\ravenscar-full-nrf52833\adalib\libgnat.a(a-except.o)
                0x0000000000003984                ada__exceptions__code_address_for_aaa
 .text.ada__exceptions__call_chain
                0x000000000000398c       0x50 C:\gnat\2021-arm-elf\arm-eabi\lib\gnat\ravenscar-full-nrf52833\adalib\libgnat.a(a-except.o)
                0x000000000000398c                ada__exceptions__call_chain
 .text.ada__exceptions__eid_to_string
                0x00000000000039dc       0x1c C:\gnat\2021-arm-elf\arm-eabi\lib\gnat\ravenscar-full-nrf52833\adalib\libgnat.a(a-except.o)
                0x00000000000039dc                ada__exceptions__eid_to_string
 .text.ada__exceptions__eo_to_string
                0x00000000000039f8       0x1c C:\gnat\2021-arm-elf\arm-eabi\lib\gnat\ravenscar-full-nrf52833\adalib\libgnat.a(a-except.o)
                0x00000000000039f8                ada__exceptions__eo_to_string
 .text.ada__exceptions__exception_identity
                0x0000000000003a14        0x4 C:\gnat\2021-arm-elf\arm-eabi\lib\gnat\ravenscar-full-nrf52833\adalib\libgnat.a(a-except.o)
                0x0000000000003a14                ada__exceptions__exception_identity
 .text.ada__exceptions__exception_information
                0x0000000000003a18       0x2c C:\gnat\2021-arm-elf\arm-eabi\lib\gnat\ravenscar-full-nrf52833\adalib\libgnat.a(a-except.o)
                0x0000000000003a18                ada__exceptions__exception_information
 .text.ada__exceptions__exception_message
                0x0000000000003a44       0x54 C:\gnat\2021-arm-elf\arm-eabi\lib\gnat\ravenscar-full-nrf52833\adalib\libgnat.a(a-except.o)
                0x0000000000003a44                ada__exceptions__exception_message
 .text.ada__exceptions__exception_name
                0x0000000000003a98       0x4c C:\gnat\2021-arm-elf\arm-eabi\lib\gnat\ravenscar-full-nrf52833\adalib\libgnat.a(a-except.o)
                0x0000000000003a98                ada__exceptions__exception_name
 .text.ada__exceptions__exception_name__2
                0x0000000000003ae4       0x1c C:\gnat\2021-arm-elf\arm-eabi\lib\gnat\ravenscar-full-nrf52833\adalib\libgnat.a(a-except.o)
                0x0000000000003ae4                ada__exceptions__exception_name__2
 .text.ada__exceptions__exception_name_simple
                0x0000000000003b00       0x80 C:\gnat\2021-arm-elf\arm-eabi\lib\gnat\ravenscar-full-nrf52833\adalib\libgnat.a(a-except.o)
                0x0000000000003b00                ada__exceptions__exception_name_simple
 .text.__gnat_get_exception_machine_occurrence
                0x0000000000003b80        0x4 C:\gnat\2021-arm-elf\arm-eabi\lib\gnat\ravenscar-full-nrf52833\adalib\libgnat.a(a-except.o)
                0x0000000000003b80                __gnat_get_exception_machine_occurrence
 .text.ada__exceptions__image
                0x0000000000003b84       0x8c C:\gnat\2021-arm-elf\arm-eabi\lib\gnat\ravenscar-full-nrf52833\adalib\libgnat.a(a-except.o)
                0x0000000000003b84                ada__exceptions__image
 .text.__gnat_raise_constraint_error
                0x0000000000003c10       0x18 C:\gnat\2021-arm-elf\arm-eabi\lib\gnat\ravenscar-full-nrf52833\adalib\libgnat.a(a-except.o)
                0x0000000000003c10                __gnat_raise_constraint_error
 .text.__gnat_raise_constraint_error_msg
                0x0000000000003c28       0x18 C:\gnat\2021-arm-elf\arm-eabi\lib\gnat\ravenscar-full-nrf52833\adalib\libgnat.a(a-except.o)
                0x0000000000003c28                __gnat_raise_constraint_error_msg
 .text.ada__exceptions__complete_occurrence
                0x0000000000003c40       0x24 C:\gnat\2021-arm-elf\arm-eabi\lib\gnat\ravenscar-full-nrf52833\adalib\libgnat.a(a-except.o)
                0x0000000000003c40                ada__exceptions__complete_occurrence
 .text.ada__exceptions__complete_and_propagate_occurrence
                0x0000000000003c64       0x10 C:\gnat\2021-arm-elf\arm-eabi\lib\gnat\ravenscar-full-nrf52833\adalib\libgnat.a(a-except.o)
                0x0000000000003c64                ada__exceptions__complete_and_propagate_occurrence
 .text.ada__exceptions__raise_exception
                0x0000000000003c74       0x14 C:\gnat\2021-arm-elf\arm-eabi\lib\gnat\ravenscar-full-nrf52833\adalib\libgnat.a(a-except.o)
                0x0000000000003c74                ada__exceptions__raise_exception
 .text.__gnat_raise_exception
                0x0000000000003c88       0x20 C:\gnat\2021-arm-elf\arm-eabi\lib\gnat\ravenscar-full-nrf52833\adalib\libgnat.a(a-except.o)
                0x0000000000003c88                __gnat_raise_exception
 .text.ada__exceptions__raise_exception_no_defer
                0x0000000000003ca8       0x20 C:\gnat\2021-arm-elf\arm-eabi\lib\gnat\ravenscar-full-nrf52833\adalib\libgnat.a(a-except.o)
                0x0000000000003ca8                ada__exceptions__raise_exception_no_defer
 .text.ada__exceptions__raise_from_controlled_operation___finalizer.5
                0x0000000000003cc8        0xc C:\gnat\2021-arm-elf\arm-eabi\lib\gnat\ravenscar-full-nrf52833\adalib\libgnat.a(a-except.o)
 .text.__gnat_raise_from_controlled_operation
                0x0000000000003cd4      0x160 C:\gnat\2021-arm-elf\arm-eabi\lib\gnat\ravenscar-full-nrf52833\adalib\libgnat.a(a-except.o)
                0x0000000000003cd4                __gnat_raise_from_controlled_operation
 .text.ada__exceptions__raise_from_controlled_operation__B_3___finalizer.4
                0x0000000000003e34        0xc C:\gnat\2021-arm-elf\arm-eabi\lib\gnat\ravenscar-full-nrf52833\adalib\libgnat.a(a-except.o)
 .text.ada__exceptions__create_occurrence_from_signal_handler
                0x0000000000003e40       0x28 C:\gnat\2021-arm-elf\arm-eabi\lib\gnat\ravenscar-full-nrf52833\adalib\libgnat.a(a-except.o)
                0x0000000000003e40                ada__exceptions__create_occurrence_from_signal_handler
 .text.__gnat_create_machine_occurrence_from_signal_handler
                0x0000000000003e68        0xc C:\gnat\2021-arm-elf\arm-eabi\lib\gnat\ravenscar-full-nrf52833\adalib\libgnat.a(a-except.o)
                0x0000000000003e68                __gnat_create_machine_occurrence_from_signal_handler
 .text.__gnat_raise_from_signal_handler
                0x0000000000003e74        0xc C:\gnat\2021-arm-elf\arm-eabi\lib\gnat\ravenscar-full-nrf52833\adalib\libgnat.a(a-except.o)
                0x0000000000003e74                __gnat_raise_from_signal_handler
 .text.__gnat_raise_program_error
                0x0000000000003e80       0x18 C:\gnat\2021-arm-elf\arm-eabi\lib\gnat\ravenscar-full-nrf52833\adalib\libgnat.a(a-except.o)
                0x0000000000003e80                __gnat_raise_program_error
 .text.__gnat_raise_program_error_msg
                0x0000000000003e98       0x18 C:\gnat\2021-arm-elf\arm-eabi\lib\gnat\ravenscar-full-nrf52833\adalib\libgnat.a(a-except.o)
                0x0000000000003e98                __gnat_raise_program_error_msg
 .text.__gnat_raise_storage_error
                0x0000000000003eb0       0x18 C:\gnat\2021-arm-elf\arm-eabi\lib\gnat\ravenscar-full-nrf52833\adalib\libgnat.a(a-except.o)
                0x0000000000003eb0                __gnat_raise_storage_error
 .text.__gnat_raise_storage_error_msg
                0x0000000000003ec8       0x18 C:\gnat\2021-arm-elf\arm-eabi\lib\gnat\ravenscar-full-nrf52833\adalib\libgnat.a(a-except.o)
                0x0000000000003ec8                __gnat_raise_storage_error_msg
 .text.ada__exceptions__raise_with_location_and_msg
                0x0000000000003ee0       0x2c C:\gnat\2021-arm-elf\arm-eabi\lib\gnat\ravenscar-full-nrf52833\adalib\libgnat.a(a-except.o)
                0x0000000000003ee0                ada__exceptions__raise_with_location_and_msg
 .text.__gnat_raise_with_msg
                0x0000000000003f0c       0x40 C:\gnat\2021-arm-elf\arm-eabi\lib\gnat\ravenscar-full-nrf52833\adalib\libgnat.a(a-except.o)
                0x0000000000003f0c                __gnat_raise_with_msg
 .text.__gnat_rcheck_CE_Access_Check
                0x0000000000003f4c       0x10 C:\gnat\2021-arm-elf\arm-eabi\lib\gnat\ravenscar-full-nrf52833\adalib\libgnat.a(a-except.o)
                0x0000000000003f4c                __gnat_rcheck_CE_Access_Check
 .text.__gnat_rcheck_CE_Null_Access_Parameter
                0x0000000000003f5c       0x10 C:\gnat\2021-arm-elf\arm-eabi\lib\gnat\ravenscar-full-nrf52833\adalib\libgnat.a(a-except.o)
                0x0000000000003f5c                __gnat_rcheck_CE_Null_Access_Parameter
 .text.__gnat_rcheck_CE_Discriminant_Check
                0x0000000000003f6c       0x10 C:\gnat\2021-arm-elf\arm-eabi\lib\gnat\ravenscar-full-nrf52833\adalib\libgnat.a(a-except.o)
                0x0000000000003f6c                __gnat_rcheck_CE_Discriminant_Check
 .text.__gnat_rcheck_CE_Divide_By_Zero
                0x0000000000003f7c       0x10 C:\gnat\2021-arm-elf\arm-eabi\lib\gnat\ravenscar-full-nrf52833\adalib\libgnat.a(a-except.o)
                0x0000000000003f7c                __gnat_rcheck_CE_Divide_By_Zero
 .text.__gnat_rcheck_CE_Explicit_Raise
                0x0000000000003f8c       0x10 C:\gnat\2021-arm-elf\arm-eabi\lib\gnat\ravenscar-full-nrf52833\adalib\libgnat.a(a-except.o)
                0x0000000000003f8c                __gnat_rcheck_CE_Explicit_Raise
 .text.__gnat_rcheck_CE_Index_Check
                0x0000000000003f9c       0x10 C:\gnat\2021-arm-elf\arm-eabi\lib\gnat\ravenscar-full-nrf52833\adalib\libgnat.a(a-except.o)
                0x0000000000003f9c                __gnat_rcheck_CE_Index_Check
 .text.__gnat_rcheck_CE_Invalid_Data
                0x0000000000003fac       0x10 C:\gnat\2021-arm-elf\arm-eabi\lib\gnat\ravenscar-full-nrf52833\adalib\libgnat.a(a-except.o)
                0x0000000000003fac                __gnat_rcheck_CE_Invalid_Data
 .text.__gnat_rcheck_CE_Length_Check
                0x0000000000003fbc       0x10 C:\gnat\2021-arm-elf\arm-eabi\lib\gnat\ravenscar-full-nrf52833\adalib\libgnat.a(a-except.o)
                0x0000000000003fbc                __gnat_rcheck_CE_Length_Check
 .text.__gnat_rcheck_CE_Null_Exception_Id
                0x0000000000003fcc       0x10 C:\gnat\2021-arm-elf\arm-eabi\lib\gnat\ravenscar-full-nrf52833\adalib\libgnat.a(a-except.o)
                0x0000000000003fcc                __gnat_rcheck_CE_Null_Exception_Id
 .text.__gnat_rcheck_CE_Null_Not_Allowed
                0x0000000000003fdc       0x10 C:\gnat\2021-arm-elf\arm-eabi\lib\gnat\ravenscar-full-nrf52833\adalib\libgnat.a(a-except.o)
                0x0000000000003fdc                __gnat_rcheck_CE_Null_Not_Allowed
 .text.__gnat_rcheck_CE_Overflow_Check
                0x0000000000003fec       0x10 C:\gnat\2021-arm-elf\arm-eabi\lib\gnat\ravenscar-full-nrf52833\adalib\libgnat.a(a-except.o)
                0x0000000000003fec                __gnat_rcheck_CE_Overflow_Check
 .text.__gnat_rcheck_CE_Partition_Check
                0x0000000000003ffc       0x10 C:\gnat\2021-arm-elf\arm-eabi\lib\gnat\ravenscar-full-nrf52833\adalib\libgnat.a(a-except.o)
                0x0000000000003ffc                __gnat_rcheck_CE_Partition_Check
 .text.__gnat_rcheck_CE_Range_Check
                0x000000000000400c       0x10 C:\gnat\2021-arm-elf\arm-eabi\lib\gnat\ravenscar-full-nrf52833\adalib\libgnat.a(a-except.o)
                0x000000000000400c                __gnat_rcheck_CE_Range_Check
 .text.__gnat_rcheck_CE_Tag_Check
                0x000000000000401c       0x10 C:\gnat\2021-arm-elf\arm-eabi\lib\gnat\ravenscar-full-nrf52833\adalib\libgnat.a(a-except.o)
                0x000000000000401c                __gnat_rcheck_CE_Tag_Check
 .text.__gnat_rcheck_PE_Access_Before_Elaboration
                0x000000000000402c        0xc C:\gnat\2021-arm-elf\arm-eabi\lib\gnat\ravenscar-full-nrf52833\adalib\libgnat.a(a-except.o)
                0x000000000000402c                __gnat_rcheck_PE_Access_Before_Elaboration
 .text.__gnat_rcheck_PE_Accessibility_Check
                0x0000000000004038        0xc C:\gnat\2021-arm-elf\arm-eabi\lib\gnat\ravenscar-full-nrf52833\adalib\libgnat.a(a-except.o)
                0x0000000000004038                __gnat_rcheck_PE_Accessibility_Check
 .text.__gnat_rcheck_PE_Address_Of_Intrinsic
                0x0000000000004044        0xc C:\gnat\2021-arm-elf\arm-eabi\lib\gnat\ravenscar-full-nrf52833\adalib\libgnat.a(a-except.o)
                0x0000000000004044                __gnat_rcheck_PE_Address_Of_Intrinsic
 .text.__gnat_rcheck_PE_Aliased_Parameters
                0x0000000000004050        0xc C:\gnat\2021-arm-elf\arm-eabi\lib\gnat\ravenscar-full-nrf52833\adalib\libgnat.a(a-except.o)
                0x0000000000004050                __gnat_rcheck_PE_Aliased_Parameters
 .text.__gnat_rcheck_PE_All_Guards_Closed
                0x000000000000405c        0xc C:\gnat\2021-arm-elf\arm-eabi\lib\gnat\ravenscar-full-nrf52833\adalib\libgnat.a(a-except.o)
                0x000000000000405c                __gnat_rcheck_PE_All_Guards_Closed
 .text.__gnat_rcheck_PE_Bad_Predicated_Generic_Type
                0x0000000000004068        0xc C:\gnat\2021-arm-elf\arm-eabi\lib\gnat\ravenscar-full-nrf52833\adalib\libgnat.a(a-except.o)
                0x0000000000004068                __gnat_rcheck_PE_Bad_Predicated_Generic_Type
 .text.__gnat_rcheck_PE_Build_In_Place_Mismatch
                0x0000000000004074        0xc C:\gnat\2021-arm-elf\arm-eabi\lib\gnat\ravenscar-full-nrf52833\adalib\libgnat.a(a-except.o)
                0x0000000000004074                __gnat_rcheck_PE_Build_In_Place_Mismatch
 .text.__gnat_rcheck_PE_Current_Task_In_Entry_Body
                0x0000000000004080        0xc C:\gnat\2021-arm-elf\arm-eabi\lib\gnat\ravenscar-full-nrf52833\adalib\libgnat.a(a-except.o)
                0x0000000000004080                __gnat_rcheck_PE_Current_Task_In_Entry_Body
 .text.__gnat_rcheck_PE_Duplicated_Entry_Address
                0x000000000000408c        0xc C:\gnat\2021-arm-elf\arm-eabi\lib\gnat\ravenscar-full-nrf52833\adalib\libgnat.a(a-except.o)
                0x000000000000408c                __gnat_rcheck_PE_Duplicated_Entry_Address
 .text.__gnat_rcheck_PE_Explicit_Raise
                0x0000000000004098        0xc C:\gnat\2021-arm-elf\arm-eabi\lib\gnat\ravenscar-full-nrf52833\adalib\libgnat.a(a-except.o)
                0x0000000000004098                __gnat_rcheck_PE_Explicit_Raise
 .text.__gnat_rcheck_PE_Implicit_Return
                0x00000000000040a4        0xc C:\gnat\2021-arm-elf\arm-eabi\lib\gnat\ravenscar-full-nrf52833\adalib\libgnat.a(a-except.o)
                0x00000000000040a4                __gnat_rcheck_PE_Implicit_Return
 .text.__gnat_rcheck_PE_Misaligned_Address_Value
                0x00000000000040b0        0xc C:\gnat\2021-arm-elf\arm-eabi\lib\gnat\ravenscar-full-nrf52833\adalib\libgnat.a(a-except.o)
                0x00000000000040b0                __gnat_rcheck_PE_Misaligned_Address_Value
 .text.__gnat_rcheck_PE_Missing_Return
                0x00000000000040bc        0xc C:\gnat\2021-arm-elf\arm-eabi\lib\gnat\ravenscar-full-nrf52833\adalib\libgnat.a(a-except.o)
                0x00000000000040bc                __gnat_rcheck_PE_Missing_Return
 .text.__gnat_rcheck_PE_Non_Transportable_Actual
                0x00000000000040c8        0xc C:\gnat\2021-arm-elf\arm-eabi\lib\gnat\ravenscar-full-nrf52833\adalib\libgnat.a(a-except.o)
                0x00000000000040c8                __gnat_rcheck_PE_Non_Transportable_Actual
 .text.__gnat_rcheck_PE_Overlaid_Controlled_Object
                0x00000000000040d4        0xc C:\gnat\2021-arm-elf\arm-eabi\lib\gnat\ravenscar-full-nrf52833\adalib\libgnat.a(a-except.o)
                0x00000000000040d4                __gnat_rcheck_PE_Overlaid_Controlled_Object
 .text.__gnat_rcheck_PE_Potentially_Blocking_Operation
                0x00000000000040e0        0xc C:\gnat\2021-arm-elf\arm-eabi\lib\gnat\ravenscar-full-nrf52833\adalib\libgnat.a(a-except.o)
                0x00000000000040e0                __gnat_rcheck_PE_Potentially_Blocking_Operation
 .text.__gnat_rcheck_PE_Stream_Operation_Not_Allowed
                0x00000000000040ec        0xc C:\gnat\2021-arm-elf\arm-eabi\lib\gnat\ravenscar-full-nrf52833\adalib\libgnat.a(a-except.o)
                0x00000000000040ec                __gnat_rcheck_PE_Stream_Operation_Not_Allowed
 .text.__gnat_rcheck_PE_Stubbed_Subprogram_Called
                0x00000000000040f8        0xc C:\gnat\2021-arm-elf\arm-eabi\lib\gnat\ravenscar-full-nrf52833\adalib\libgnat.a(a-except.o)
                0x00000000000040f8                __gnat_rcheck_PE_Stubbed_Subprogram_Called
 .text.__gnat_rcheck_PE_Unchecked_Union_Restriction
                0x0000000000004104        0xc C:\gnat\2021-arm-elf\arm-eabi\lib\gnat\ravenscar-full-nrf52833\adalib\libgnat.a(a-except.o)
                0x0000000000004104                __gnat_rcheck_PE_Unchecked_Union_Restriction
 .text.__gnat_rcheck_SE_Empty_Storage_Pool
                0x0000000000004110        0xc C:\gnat\2021-arm-elf\arm-eabi\lib\gnat\ravenscar-full-nrf52833\adalib\libgnat.a(a-except.o)
                0x0000000000004110                __gnat_rcheck_SE_Empty_Storage_Pool
 .text.__gnat_rcheck_SE_Explicit_Raise
                0x000000000000411c        0xc C:\gnat\2021-arm-elf\arm-eabi\lib\gnat\ravenscar-full-nrf52833\adalib\libgnat.a(a-except.o)
                0x000000000000411c                __gnat_rcheck_SE_Explicit_Raise
 .text.__gnat_rcheck_SE_Infinite_Recursion
                0x0000000000004128        0xc C:\gnat\2021-arm-elf\arm-eabi\lib\gnat\ravenscar-full-nrf52833\adalib\libgnat.a(a-except.o)
                0x0000000000004128                __gnat_rcheck_SE_Infinite_Recursion
 .text.__gnat_rcheck_SE_Object_Too_Large
                0x0000000000004134        0xc C:\gnat\2021-arm-elf\arm-eabi\lib\gnat\ravenscar-full-nrf52833\adalib\libgnat.a(a-except.o)
                0x0000000000004134                __gnat_rcheck_SE_Object_Too_Large
 .text.__gnat_rcheck_CE_Access_Check_ext
                0x0000000000004140        0xc C:\gnat\2021-arm-elf\arm-eabi\lib\gnat\ravenscar-full-nrf52833\adalib\libgnat.a(a-except.o)
                0x0000000000004140                __gnat_rcheck_CE_Access_Check_ext
 .text.ada__exceptions__rcheck_ce_index_check_ext___finalizer.6
                0x000000000000414c        0xc C:\gnat\2021-arm-elf\arm-eabi\lib\gnat\ravenscar-full-nrf52833\adalib\libgnat.a(a-except.o)
 .text.__gnat_rcheck_CE_Index_Check_ext
                0x0000000000004158      0x13c C:\gnat\2021-arm-elf\arm-eabi\lib\gnat\ravenscar-full-nrf52833\adalib\libgnat.a(a-except.o)
                0x0000000000004158                __gnat_rcheck_CE_Index_Check_ext
 .text.ada__exceptions__rcheck_ce_invalid_data_ext___finalizer.7
                0x0000000000004294        0xc C:\gnat\2021-arm-elf\arm-eabi\lib\gnat\ravenscar-full-nrf52833\adalib\libgnat.a(a-except.o)
 .text.__gnat_rcheck_CE_Invalid_Data_ext
                0x00000000000042a0      0x130 C:\gnat\2021-arm-elf\arm-eabi\lib\gnat\ravenscar-full-nrf52833\adalib\libgnat.a(a-except.o)
                0x00000000000042a0                __gnat_rcheck_CE_Invalid_Data_ext
 .text.ada__exceptions__rcheck_ce_range_check_ext___finalizer.8
                0x00000000000043d0        0xc C:\gnat\2021-arm-elf\arm-eabi\lib\gnat\ravenscar-full-nrf52833\adalib\libgnat.a(a-except.o)
 .text.__gnat_rcheck_CE_Range_Check_ext
                0x00000000000043dc      0x13c C:\gnat\2021-arm-elf\arm-eabi\lib\gnat\ravenscar-full-nrf52833\adalib\libgnat.a(a-except.o)
                0x00000000000043dc                __gnat_rcheck_CE_Range_Check_ext
 .text.__gnat_rcheck_PE_Finalize_Raised_Exception
                0x0000000000004518       0x30 C:\gnat\2021-arm-elf\arm-eabi\lib\gnat\ravenscar-full-nrf52833\adalib\libgnat.a(a-except.o)
                0x0000000000004518                __gnat_rcheck_PE_Finalize_Raised_Exception
 .text.__gnat_reraise
                0x0000000000004548       0x20 C:\gnat\2021-arm-elf\arm-eabi\lib\gnat\ravenscar-full-nrf52833\adalib\libgnat.a(a-except.o)
                0x0000000000004548                __gnat_reraise
 .text.__gnat_reraise_library_exception_if_any
                0x0000000000004568       0x4c C:\gnat\2021-arm-elf\arm-eabi\lib\gnat\ravenscar-full-nrf52833\adalib\libgnat.a(a-except.o)
                0x0000000000004568                __gnat_reraise_library_exception_if_any
 .text.ada__exceptions__reraise_occurrence
                0x00000000000045b4        0xc C:\gnat\2021-arm-elf\arm-eabi\lib\gnat\ravenscar-full-nrf52833\adalib\libgnat.a(a-except.o)
                0x00000000000045b4                ada__exceptions__reraise_occurrence
 .text.ada__exceptions__reraise_occurrence_always
                0x00000000000045c0        0x8 C:\gnat\2021-arm-elf\arm-eabi\lib\gnat\ravenscar-full-nrf52833\adalib\libgnat.a(a-except.o)
                0x00000000000045c0                ada__exceptions__reraise_occurrence_always
 .text.ada__exceptions__reraise_occurrence_no_defer
                0x00000000000045c8       0x24 C:\gnat\2021-arm-elf\arm-eabi\lib\gnat\ravenscar-full-nrf52833\adalib\libgnat.a(a-except.o)
                0x00000000000045c8                ada__exceptions__reraise_occurrence_no_defer
 .text.ada__exceptions__save_occurrence
                0x00000000000045ec       0x50 C:\gnat\2021-arm-elf\arm-eabi\lib\gnat\ravenscar-full-nrf52833\adalib\libgnat.a(a-except.o)
                0x00000000000045ec                ada__exceptions__save_occurrence
 .text.ada__exceptions__save_occurrence__2
                0x000000000000463c       0x20 C:\gnat\2021-arm-elf\arm-eabi\lib\gnat\ravenscar-full-nrf52833\adalib\libgnat.a(a-except.o)
                0x000000000000463c                ada__exceptions__save_occurrence__2
 .text.ada__exceptions__string_to_eid
                0x000000000000465c        0x8 C:\gnat\2021-arm-elf\arm-eabi\lib\gnat\ravenscar-full-nrf52833\adalib\libgnat.a(a-except.o)
                0x000000000000465c                ada__exceptions__string_to_eid
 .text.ada__exceptions__string_to_eo
                0x0000000000004664        0xc C:\gnat\2021-arm-elf\arm-eabi\lib\gnat\ravenscar-full-nrf52833\adalib\libgnat.a(a-except.o)
                0x0000000000004664                ada__exceptions__string_to_eo
 .text.__gnat_to_stderr_char
                0x0000000000004670        0x8 C:\gnat\2021-arm-elf\arm-eabi\lib\gnat\ravenscar-full-nrf52833\adalib\libgnat.a(a-except.o)
                0x0000000000004670                __gnat_to_stderr_char
 .text.__gnat_to_stderr
                0x0000000000004678       0x28 C:\gnat\2021-arm-elf\arm-eabi\lib\gnat\ravenscar-full-nrf52833\adalib\libgnat.a(a-except.o)
                0x0000000000004678                __gnat_to_stderr
 .text.__gnat_transfer_occurrence
                0x00000000000046a0        0x8 C:\gnat\2021-arm-elf\arm-eabi\lib\gnat\ravenscar-full-nrf52833\adalib\libgnat.a(a-except.o)
                0x00000000000046a0                __gnat_transfer_occurrence
 .text.ada__exceptions__triggered_by_abort
                0x00000000000046a8       0x20 C:\gnat\2021-arm-elf\arm-eabi\lib\gnat\ravenscar-full-nrf52833\adalib\libgnat.a(a-except.o)
                0x00000000000046a8                ada__exceptions__triggered_by_abort
 .text.ada__exceptions__wide_exception_name
                0x00000000000046c8       0x9c C:\gnat\2021-arm-elf\arm-eabi\lib\gnat\ravenscar-full-nrf52833\adalib\libgnat.a(a-except.o)
                0x00000000000046c8                ada__exceptions__wide_exception_name
 .text.ada__exceptions__wide_exception_name__2
                0x0000000000004764       0x9c C:\gnat\2021-arm-elf\arm-eabi\lib\gnat\ravenscar-full-nrf52833\adalib\libgnat.a(a-except.o)
                0x0000000000004764                ada__exceptions__wide_exception_name__2
 .text.ada__exceptions__wide_wide_exception_name
                0x0000000000004800       0x94 C:\gnat\2021-arm-elf\arm-eabi\lib\gnat\ravenscar-full-nrf52833\adalib\libgnat.a(a-except.o)
                0x0000000000004800                ada__exceptions__wide_wide_exception_name
 .text.ada__exceptions__wide_wide_exception_name__2
                0x0000000000004894       0x94 C:\gnat\2021-arm-elf\arm-eabi\lib\gnat\ravenscar-full-nrf52833\adalib\libgnat.a(a-except.o)
                0x0000000000004894                ada__exceptions__wide_wide_exception_name__2
 .text.ada__exceptions__code_address_for_zzz
                0x0000000000004928        0x8 C:\gnat\2021-arm-elf\arm-eabi\lib\gnat\ravenscar-full-nrf52833\adalib\libgnat.a(a-except.o)
                0x0000000000004928                ada__exceptions__code_address_for_zzz
 .text.ada__exceptions___elabs
                0x0000000000004930       0x1c C:\gnat\2021-arm-elf\arm-eabi\lib\gnat\ravenscar-full-nrf52833\adalib\libgnat.a(a-except.o)
                0x0000000000004930                ada__exceptions___elabs
 .text          0x000000000000494c        0x0 C:\gnat\2021-arm-elf\arm-eabi\lib\gnat\ravenscar-full-nrf52833\adalib\libgnat.a(a-sttebu.o)
 .text.ada__strings__text_buffers___size
                0x000000000000494c        0x8 C:\gnat\2021-arm-elf\arm-eabi\lib\gnat\ravenscar-full-nrf52833\adalib\libgnat.a(a-sttebu.o)
                0x000000000000494c                ada__strings__text_buffers___size
 .text.ada__strings__text_buffers__root_buffer_typeDF
                0x0000000000004954        0x4 C:\gnat\2021-arm-elf\arm-eabi\lib\gnat\ravenscar-full-nrf52833\adalib\libgnat.a(a-sttebu.o)
                0x0000000000004954                ada__strings__text_buffers__root_buffer_typeDF
 .text.ada__strings__text_buffers__current_indent
                0x0000000000004958        0x4 C:\gnat\2021-arm-elf\arm-eabi\lib\gnat\ravenscar-full-nrf52833\adalib\libgnat.a(a-sttebu.o)
                0x0000000000004958                ada__strings__text_buffers__current_indent
 .text.ada__strings__text_buffers__increase_indent
                0x000000000000495c        0x8 C:\gnat\2021-arm-elf\arm-eabi\lib\gnat\ravenscar-full-nrf52833\adalib\libgnat.a(a-sttebu.o)
                0x000000000000495c                ada__strings__text_buffers__increase_indent
 .text.ada__strings__text_buffers__decrease_indent
                0x0000000000004964        0x8 C:\gnat\2021-arm-elf\arm-eabi\lib\gnat\ravenscar-full-nrf52833\adalib\libgnat.a(a-sttebu.o)
                0x0000000000004964                ada__strings__text_buffers__decrease_indent
 .text.ada__strings__text_buffers__root_buffer_typePI
                0x000000000000496c       0x10 C:\gnat\2021-arm-elf\arm-eabi\lib\gnat\ravenscar-full-nrf52833\adalib\libgnat.a(a-sttebu.o)
                0x000000000000496c                ada__strings__text_buffers__root_buffer_typePI
 .text.ada__strings__text_buffers__root_buffer_typePartial_DIC
                0x000000000000497c        0x4 C:\gnat\2021-arm-elf\arm-eabi\lib\gnat\ravenscar-full-nrf52833\adalib\libgnat.a(a-sttebu.o)
                0x000000000000497c                ada__strings__text_buffers__root_buffer_typePartial_DIC
 .text.ada__strings__text_buffers__root_buffer_typeIP
                0x0000000000004980       0x20 C:\gnat\2021-arm-elf\arm-eabi\lib\gnat\ravenscar-full-nrf52833\adalib\libgnat.a(a-sttebu.o)
                0x0000000000004980                ada__strings__text_buffers__root_buffer_typeIP
 .text.ada__strings__text_buffers__root_buffer_typeDIC
                0x00000000000049a0        0x4 C:\gnat\2021-arm-elf\arm-eabi\lib\gnat\ravenscar-full-nrf52833\adalib\libgnat.a(a-sttebu.o)
                0x00000000000049a0                ada__strings__text_buffers__root_buffer_typeDIC
 .text.ada__strings__text_buffers__Troot_buffer_typeCFD
                0x00000000000049a4        0xc C:\gnat\2021-arm-elf\arm-eabi\lib\gnat\ravenscar-full-nrf52833\adalib\libgnat.a(a-sttebu.o)
                0x00000000000049a4                ada__strings__text_buffers__Troot_buffer_typeCFD
 .text.ada__strings__text_buffers__increase_indentCL
                0x00000000000049b0        0x8 C:\gnat\2021-arm-elf\arm-eabi\lib\gnat\ravenscar-full-nrf52833\adalib\libgnat.a(a-sttebu.o)
                0x00000000000049b0                ada__strings__text_buffers__increase_indentCL
 .text.ada__strings__text_buffers__decrease_indentCL
                0x00000000000049b8        0x8 C:\gnat\2021-arm-elf\arm-eabi\lib\gnat\ravenscar-full-nrf52833\adalib\libgnat.a(a-sttebu.o)
                0x00000000000049b8                ada__strings__text_buffers__decrease_indentCL
 .text.ada__strings__text_buffers___elabs
                0x00000000000049c0        0xc C:\gnat\2021-arm-elf\arm-eabi\lib\gnat\ravenscar-full-nrf52833\adalib\libgnat.a(a-sttebu.o)
                0x00000000000049c0                ada__strings__text_buffers___elabs
 .text          0x00000000000049cc        0x0 C:\gnat\2021-arm-elf\arm-eabi\lib\gnat\ravenscar-full-nrf52833\adalib\libgnat.a(a-tags.o)
 .text.ada__tags__htable_subprograms__hashXn
                0x00000000000049cc       0x48 C:\gnat\2021-arm-elf\arm-eabi\lib\gnat\ravenscar-full-nrf52833\adalib\libgnat.a(a-tags.o)
 .text.ada__tags__external_tag_htable__getXn
                0x0000000000004a14       0x40 C:\gnat\2021-arm-elf\arm-eabi\lib\gnat\ravenscar-full-nrf52833\adalib\libgnat.a(a-tags.o)
 .text.ada__tags__tag_arrayIP
                0x0000000000004a54       0x18 C:\gnat\2021-arm-elf\arm-eabi\lib\gnat\ravenscar-full-nrf52833\adalib\libgnat.a(a-tags.o)
                0x0000000000004a54                ada__tags__tag_arrayIP
 .text.ada__tags__interface_data_elementIP
                0x0000000000004a6c        0x8 C:\gnat\2021-arm-elf\arm-eabi\lib\gnat\ravenscar-full-nrf52833\adalib\libgnat.a(a-tags.o)
                0x0000000000004a6c                ada__tags__interface_data_elementIP
 .text.ada__tags__interfaces_arrayIP
                0x0000000000004a74       0x24 C:\gnat\2021-arm-elf\arm-eabi\lib\gnat\ravenscar-full-nrf52833\adalib\libgnat.a(a-tags.o)
                0x0000000000004a74                ada__tags__interfaces_arrayIP
 .text.ada__tags__interface_dataIP
                0x0000000000004a98       0x28 C:\gnat\2021-arm-elf\arm-eabi\lib\gnat\ravenscar-full-nrf52833\adalib\libgnat.a(a-tags.o)
                0x0000000000004a98                ada__tags__interface_dataIP
 .text.ada__tags__prim_op_kindH
                0x0000000000004ac0       0xa4 C:\gnat\2021-arm-elf\arm-eabi\lib\gnat\ravenscar-full-nrf52833\adalib\libgnat.a(a-tags.o)
                0x0000000000004ac0                ada__tags__prim_op_kindH
 .text.ada__tags__select_specific_data_elementIP
                0x0000000000004b64        0x4 C:\gnat\2021-arm-elf\arm-eabi\lib\gnat\ravenscar-full-nrf52833\adalib\libgnat.a(a-tags.o)
                0x0000000000004b64                ada__tags__select_specific_data_elementIP
 .text.ada__tags__select_specific_data_arrayIP
                0x0000000000004b68        0x4 C:\gnat\2021-arm-elf\arm-eabi\lib\gnat\ravenscar-full-nrf52833\adalib\libgnat.a(a-tags.o)
                0x0000000000004b68                ada__tags__select_specific_data_arrayIP
 .text.ada__tags__select_specific_dataIP
                0x0000000000004b6c        0x4 C:\gnat\2021-arm-elf\arm-eabi\lib\gnat\ravenscar-full-nrf52833\adalib\libgnat.a(a-tags.o)
                0x0000000000004b6c                ada__tags__select_specific_dataIP
 .text.ada__tags__address_arrayIP
                0x0000000000004b70       0x18 C:\gnat\2021-arm-elf\arm-eabi\lib\gnat\ravenscar-full-nrf52833\adalib\libgnat.a(a-tags.o)
                0x0000000000004b70                ada__tags__address_arrayIP
 .text.ada__tags__tag_tableIP
                0x0000000000004b88       0x18 C:\gnat\2021-arm-elf\arm-eabi\lib\gnat\ravenscar-full-nrf52833\adalib\libgnat.a(a-tags.o)
                0x0000000000004b88                ada__tags__tag_tableIP
 .text.ada__tags__type_specific_dataIP
                0x0000000000004ba0       0x24 C:\gnat\2021-arm-elf\arm-eabi\lib\gnat\ravenscar-full-nrf52833\adalib\libgnat.a(a-tags.o)
                0x0000000000004ba0                ada__tags__type_specific_dataIP
 .text.ada__tags__tagged_kindH
                0x0000000000004bc4       0xcc C:\gnat\2021-arm-elf\arm-eabi\lib\gnat\ravenscar-full-nrf52833\adalib\libgnat.a(a-tags.o)
                0x0000000000004bc4                ada__tags__tagged_kindH
 .text.ada__tags__dispatch_table_wrapperIP
                0x0000000000004c90       0x14 C:\gnat\2021-arm-elf\arm-eabi\lib\gnat\ravenscar-full-nrf52833\adalib\libgnat.a(a-tags.o)
                0x0000000000004c90                ada__tags__dispatch_table_wrapperIP
 .text.ada__tags__no_dispatch_table_wrapperIP
                0x0000000000004ca4        0x4 C:\gnat\2021-arm-elf\arm-eabi\lib\gnat\ravenscar-full-nrf52833\adalib\libgnat.a(a-tags.o)
                0x0000000000004ca4                ada__tags__no_dispatch_table_wrapperIP
 .text.ada__tags__object_specific_data_arrayIP
                0x0000000000004ca8        0x4 C:\gnat\2021-arm-elf\arm-eabi\lib\gnat\ravenscar-full-nrf52833\adalib\libgnat.a(a-tags.o)
                0x0000000000004ca8                ada__tags__object_specific_data_arrayIP
 .text.ada__tags__object_specific_dataIP
                0x0000000000004cac        0x4 C:\gnat\2021-arm-elf\arm-eabi\lib\gnat\ravenscar-full-nrf52833\adalib\libgnat.a(a-tags.o)
                0x0000000000004cac                ada__tags__object_specific_dataIP
 .text.ada__tags__cw_membership
                0x0000000000004cb0       0x24 C:\gnat\2021-arm-elf\arm-eabi\lib\gnat\ravenscar-full-nrf52833\adalib\libgnat.a(a-tags.o)
                0x0000000000004cb0                ada__tags__cw_membership
 .text.ada__tags__external_tag_htable__TtableBIPXn
                0x0000000000004cd4       0x1c C:\gnat\2021-arm-elf\arm-eabi\lib\gnat\ravenscar-full-nrf52833\adalib\libgnat.a(a-tags.o)
                0x0000000000004cd4                ada__tags__external_tag_htable__TtableBIPXn
 .text.ada__tags__is_abstract
                0x0000000000004cf0       0x24 C:\gnat\2021-arm-elf\arm-eabi\lib\gnat\ravenscar-full-nrf52833\adalib\libgnat.a(a-tags.o)
                0x0000000000004cf0                ada__tags__is_abstract
 .text.ada__tags__base_address
                0x0000000000004d14       0x14 C:\gnat\2021-arm-elf\arm-eabi\lib\gnat\ravenscar-full-nrf52833\adalib\libgnat.a(a-tags.o)
                0x0000000000004d14                ada__tags__base_address
 .text.ada__tags__check_tsd
                0x0000000000004d28       0x8c C:\gnat\2021-arm-elf\arm-eabi\lib\gnat\ravenscar-full-nrf52833\adalib\libgnat.a(a-tags.o)
                0x0000000000004d28                ada__tags__check_tsd
 .text.ada__tags__displace
                0x0000000000004db4       0x90 C:\gnat\2021-arm-elf\arm-eabi\lib\gnat\ravenscar-full-nrf52833\adalib\libgnat.a(a-tags.o)
                0x0000000000004db4                ada__tags__displace
 .text.ada__tags__dt
                0x0000000000004e44        0x4 C:\gnat\2021-arm-elf\arm-eabi\lib\gnat\ravenscar-full-nrf52833\adalib\libgnat.a(a-tags.o)
                0x0000000000004e44                ada__tags__dt
 .text.ada__tags__iw_membership__2
                0x0000000000004e48       0x54 C:\gnat\2021-arm-elf\arm-eabi\lib\gnat\ravenscar-full-nrf52833\adalib\libgnat.a(a-tags.o)
                0x0000000000004e48                ada__tags__iw_membership__2
 .text.ada__tags__iw_membership
                0x0000000000004e9c       0x1c C:\gnat\2021-arm-elf\arm-eabi\lib\gnat\ravenscar-full-nrf52833\adalib\libgnat.a(a-tags.o)
                0x0000000000004e9c                ada__tags__iw_membership
 .text.ada__tags__expanded_name
                0x0000000000004eb8       0x70 C:\gnat\2021-arm-elf\arm-eabi\lib\gnat\ravenscar-full-nrf52833\adalib\libgnat.a(a-tags.o)
                0x0000000000004eb8                ada__tags__expanded_name
 .text.ada__tags__external_tag
                0x0000000000004f28       0x70 C:\gnat\2021-arm-elf\arm-eabi\lib\gnat\ravenscar-full-nrf52833\adalib\libgnat.a(a-tags.o)
                0x0000000000004f28                ada__tags__external_tag
 .text.ada__tags__get_entry_index
                0x0000000000004f98       0x10 C:\gnat\2021-arm-elf\arm-eabi\lib\gnat\ravenscar-full-nrf52833\adalib\libgnat.a(a-tags.o)
                0x0000000000004f98                ada__tags__get_entry_index
 .text.ada__tags__get_prim_op_kind
                0x0000000000004fa8        0xc C:\gnat\2021-arm-elf\arm-eabi\lib\gnat\ravenscar-full-nrf52833\adalib\libgnat.a(a-tags.o)
                0x0000000000004fa8                ada__tags__get_prim_op_kind
 .text.ada__tags__get_offset_index
                0x0000000000004fb4       0x14 C:\gnat\2021-arm-elf\arm-eabi\lib\gnat\ravenscar-full-nrf52833\adalib\libgnat.a(a-tags.o)
                0x0000000000004fb4                ada__tags__get_offset_index
 .text.ada__tags__get_tagged_kind
                0x0000000000004fc8        0x8 C:\gnat\2021-arm-elf\arm-eabi\lib\gnat\ravenscar-full-nrf52833\adalib\libgnat.a(a-tags.o)
                0x0000000000004fc8                ada__tags__get_tagged_kind
 .text.ada__tags__interface_ancestor_tags
                0x0000000000004fd0       0x84 C:\gnat\2021-arm-elf\arm-eabi\lib\gnat\ravenscar-full-nrf52833\adalib\libgnat.a(a-tags.o)
                0x0000000000004fd0                ada__tags__interface_ancestor_tags
 .text.ada__tags__internal_tag
                0x0000000000005054      0x350 C:\gnat\2021-arm-elf\arm-eabi\lib\gnat\ravenscar-full-nrf52833\adalib\libgnat.a(a-tags.o)
                0x0000000000005054                ada__tags__internal_tag
 .text.ada__tags__descendant_tag
                0x00000000000053a4       0x54 C:\gnat\2021-arm-elf\arm-eabi\lib\gnat\ravenscar-full-nrf52833\adalib\libgnat.a(a-tags.o)
                0x00000000000053a4                ada__tags__descendant_tag
 .text.ada__tags__is_descendant_at_same_level
                0x00000000000053f8       0x44 C:\gnat\2021-arm-elf\arm-eabi\lib\gnat\ravenscar-full-nrf52833\adalib\libgnat.a(a-tags.o)
                0x00000000000053f8                ada__tags__is_descendant_at_same_level
 .text.ada__tags__length
                0x000000000000543c       0x1c C:\gnat\2021-arm-elf\arm-eabi\lib\gnat\ravenscar-full-nrf52833\adalib\libgnat.a(a-tags.o)
                0x000000000000543c                ada__tags__length
 .text.ada__tags__offset_to_top
                0x0000000000005458       0x14 C:\gnat\2021-arm-elf\arm-eabi\lib\gnat\ravenscar-full-nrf52833\adalib\libgnat.a(a-tags.o)
                0x0000000000005458                ada__tags__offset_to_top
 .text.ada__tags__needs_finalization
                0x000000000000546c        0x8 C:\gnat\2021-arm-elf\arm-eabi\lib\gnat\ravenscar-full-nrf52833\adalib\libgnat.a(a-tags.o)
                0x000000000000546c                ada__tags__needs_finalization
 .text.ada__tags__parent_size
                0x0000000000005474       0x14 C:\gnat\2021-arm-elf\arm-eabi\lib\gnat\ravenscar-full-nrf52833\adalib\libgnat.a(a-tags.o)
                0x0000000000005474                ada__tags__parent_size
 .text.ada__tags__parent_tag
                0x0000000000005488       0x28 C:\gnat\2021-arm-elf\arm-eabi\lib\gnat\ravenscar-full-nrf52833\adalib\libgnat.a(a-tags.o)
                0x0000000000005488                ada__tags__parent_tag
 .text.ada__tags__register_interface_offset
                0x00000000000054b0       0x60 C:\gnat\2021-arm-elf\arm-eabi\lib\gnat\ravenscar-full-nrf52833\adalib\libgnat.a(a-tags.o)
                0x00000000000054b0                ada__tags__register_interface_offset
 .text.ada__tags__register_tag
                0x0000000000005510       0x24 C:\gnat\2021-arm-elf\arm-eabi\lib\gnat\ravenscar-full-nrf52833\adalib\libgnat.a(a-tags.o)
                0x0000000000005510                ada__tags__register_tag
 .text.ada__tags__secondary_tag
                0x0000000000005534       0x60 C:\gnat\2021-arm-elf\arm-eabi\lib\gnat\ravenscar-full-nrf52833\adalib\libgnat.a(a-tags.o)
                0x0000000000005534                ada__tags__secondary_tag
 .text.ada__tags__set_entry_index
                0x0000000000005594       0x10 C:\gnat\2021-arm-elf\arm-eabi\lib\gnat\ravenscar-full-nrf52833\adalib\libgnat.a(a-tags.o)
                0x0000000000005594                ada__tags__set_entry_index
 .text.ada__tags__set_dynamic_offset_to_top
                0x00000000000055a4       0x28 C:\gnat\2021-arm-elf\arm-eabi\lib\gnat\ravenscar-full-nrf52833\adalib\libgnat.a(a-tags.o)
                0x00000000000055a4                ada__tags__set_dynamic_offset_to_top
 .text.ada__tags__set_prim_op_kind
                0x00000000000055cc        0xc C:\gnat\2021-arm-elf\arm-eabi\lib\gnat\ravenscar-full-nrf52833\adalib\libgnat.a(a-tags.o)
                0x00000000000055cc                ada__tags__set_prim_op_kind
 .text.ada__tags__unregister_tag
                0x00000000000055d8       0x74 C:\gnat\2021-arm-elf\arm-eabi\lib\gnat\ravenscar-full-nrf52833\adalib\libgnat.a(a-tags.o)
                0x00000000000055d8                ada__tags__unregister_tag
 .text.ada__tags__wide_expanded_name
                0x000000000000564c       0x98 C:\gnat\2021-arm-elf\arm-eabi\lib\gnat\ravenscar-full-nrf52833\adalib\libgnat.a(a-tags.o)
                0x000000000000564c                ada__tags__wide_expanded_name
 .text.ada__tags__wide_wide_expanded_name
                0x00000000000056e4       0x94 C:\gnat\2021-arm-elf\arm-eabi\lib\gnat\ravenscar-full-nrf52833\adalib\libgnat.a(a-tags.o)
                0x00000000000056e4                ada__tags__wide_wide_expanded_name
 .text.ada__tags___elabb
                0x0000000000005778       0x2c C:\gnat\2021-arm-elf\arm-eabi\lib\gnat\ravenscar-full-nrf52833\adalib\libgnat.a(a-tags.o)
                0x0000000000005778                ada__tags___elabb
 .text          0x00000000000057a4        0x0 C:\gnat\2021-arm-elf\arm-eabi\lib\gnat\ravenscar-full-nrf52833\adalib\libgnat.a(a-textio.o)
 .text.ada__text_io__get
                0x00000000000057a4       0x14 C:\gnat\2021-arm-elf\arm-eabi\lib\gnat\ravenscar-full-nrf52833\adalib\libgnat.a(a-textio.o)
                0x00000000000057a4                ada__text_io__get
 .text.ada__text_io__new_line
                0x00000000000057b8       0x2c C:\gnat\2021-arm-elf\arm-eabi\lib\gnat\ravenscar-full-nrf52833\adalib\libgnat.a(a-textio.o)
                0x00000000000057b8                ada__text_io__new_line
 .text.ada__text_io__put
                0x00000000000057e4       0x18 C:\gnat\2021-arm-elf\arm-eabi\lib\gnat\ravenscar-full-nrf52833\adalib\libgnat.a(a-textio.o)
                0x00000000000057e4                ada__text_io__put
 .text.ada__text_io__put__2
                0x00000000000057fc       0x2c C:\gnat\2021-arm-elf\arm-eabi\lib\gnat\ravenscar-full-nrf52833\adalib\libgnat.a(a-textio.o)
                0x00000000000057fc                ada__text_io__put__2
 .text.ada__text_io__put_line
                0x0000000000005828       0x50 C:\gnat\2021-arm-elf\arm-eabi\lib\gnat\ravenscar-full-nrf52833\adalib\libgnat.a(a-textio.o)
                0x0000000000005828                ada__text_io__put_line
 .text.ada__text_io___elabb
                0x0000000000005878       0x10 C:\gnat\2021-arm-elf\arm-eabi\lib\gnat\ravenscar-full-nrf52833\adalib\libgnat.a(a-textio.o)
                0x0000000000005878                ada__text_io___elabb
 .text          0x0000000000005888        0x0 C:\gnat\2021-arm-elf\arm-eabi\lib\gnat\ravenscar-full-nrf52833\adalib\libgnat.a(adaint-xi.o)
 .text.__gnat_get_executable_load_address
                0x0000000000005888        0x4 C:\gnat\2021-arm-elf\arm-eabi\lib\gnat\ravenscar-full-nrf52833\adalib\libgnat.a(adaint-xi.o)
                0x0000000000005888                __gnat_get_executable_load_address
 *fill*         0x000000000000588c       0x74 
 .text          0x0000000000005900      0x10c C:\gnat\2021-arm-elf\arm-eabi\lib\gnat\ravenscar-full-nrf52833\adalib\libgnat.a(handler.o)
                0x0000000000005900                __vectors
 .text          0x0000000000005a0c        0x0 C:\gnat\2021-arm-elf\arm-eabi\lib\gnat\ravenscar-full-nrf52833\adalib\libgnat.a(raise-gcc.o)
 .text.read_encoded_value_with_base
                0x0000000000005a0c       0xc0 C:\gnat\2021-arm-elf\arm-eabi\lib\gnat\ravenscar-full-nrf52833\adalib\libgnat.a(raise-gcc.o)
 .text.base_of_encoded_value
                0x0000000000005acc       0x50 C:\gnat\2021-arm-elf\arm-eabi\lib\gnat\ravenscar-full-nrf52833\adalib\libgnat.a(raise-gcc.o)
 .text.__gnat_personality_v0
                0x0000000000005b1c      0x408 C:\gnat\2021-arm-elf\arm-eabi\lib\gnat\ravenscar-full-nrf52833\adalib\libgnat.a(raise-gcc.o)
                0x0000000000005b1c                __gnat_personality_v0
 .text.__gnat_cleanupunwind_handler
                0x0000000000005f24       0x14 C:\gnat\2021-arm-elf\arm-eabi\lib\gnat\ravenscar-full-nrf52833\adalib\libgnat.a(raise-gcc.o)
                0x0000000000005f24                __gnat_cleanupunwind_handler
 .text.__gnat_Unwind_RaiseException
                0x0000000000005f38        0x4 C:\gnat\2021-arm-elf\arm-eabi\lib\gnat\ravenscar-full-nrf52833\adalib\libgnat.a(raise-gcc.o)
                0x0000000000005f38                __gnat_Unwind_RaiseException
 .text.__gnat_Unwind_ForcedUnwind
                0x0000000000005f3c        0x4 C:\gnat\2021-arm-elf\arm-eabi\lib\gnat\ravenscar-full-nrf52833\adalib\libgnat.a(raise-gcc.o)
                0x0000000000005f3c                __gnat_Unwind_ForcedUnwind
 .text          0x0000000000005f40        0x0 C:\gnat\2021-arm-elf\arm-eabi\lib\gnat\ravenscar-full-nrf52833\adalib\libgnat.a(s-excdeb.o)
 .text.__gnat_debug_raise_exception
                0x0000000000005f40       0x1c C:\gnat\2021-arm-elf\arm-eabi\lib\gnat\ravenscar-full-nrf52833\adalib\libgnat.a(s-excdeb.o)
                0x0000000000005f40                __gnat_debug_raise_exception
 .text.__gnat_unhandled_exception
                0x0000000000005f5c       0x14 C:\gnat\2021-arm-elf\arm-eabi\lib\gnat\ravenscar-full-nrf52833\adalib\libgnat.a(s-excdeb.o)
                0x0000000000005f5c                __gnat_unhandled_exception
 .text.__gnat_debug_raise_assert_failure
                0x0000000000005f70       0x10 C:\gnat\2021-arm-elf\arm-eabi\lib\gnat\ravenscar-full-nrf52833\adalib\libgnat.a(s-excdeb.o)
                0x0000000000005f70                __gnat_debug_raise_assert_failure
 .text.local_raise
                0x0000000000005f80       0x14 C:\gnat\2021-arm-elf\arm-eabi\lib\gnat\ravenscar-full-nrf52833\adalib\libgnat.a(s-excdeb.o)
                0x0000000000005f80                local_raise
 .text          0x0000000000005f94        0x0 C:\gnat\2021-arm-elf\arm-eabi\lib\gnat\ravenscar-full-nrf52833\adalib\libgnat.a(s-except.o)
 .text          0x0000000000005f94        0x0 C:\gnat\2021-arm-elf\arm-eabi\lib\gnat\ravenscar-full-nrf52833\adalib\libgnat.a(s-excmac.o)
 .text.system__exceptions__machine__Texception_classBIP
                0x0000000000005f94        0x4 C:\gnat\2021-arm-elf\arm-eabi\lib\gnat\ravenscar-full-nrf52833\adalib\libgnat.a(s-excmac.o)
                0x0000000000005f94                system__exceptions__machine__Texception_classBIP
 .text.system__exceptions__machine__unwind_reason_codeH
                0x0000000000005f98       0xdc C:\gnat\2021-arm-elf\arm-eabi\lib\gnat\ravenscar-full-nrf52833\adalib\libgnat.a(s-excmac.o)
                0x0000000000005f98                system__exceptions__machine__unwind_reason_codeH
 .text.system__exceptions__machine__uint32_t_arrayIP
                0x0000000000006074        0x4 C:\gnat\2021-arm-elf\arm-eabi\lib\gnat\ravenscar-full-nrf52833\adalib\libgnat.a(s-excmac.o)
                0x0000000000006074                system__exceptions__machine__uint32_t_arrayIP
 .text.system__exceptions__machine__unwinder_cache_typeIP
                0x0000000000006078        0x4 C:\gnat\2021-arm-elf\arm-eabi\lib\gnat\ravenscar-full-nrf52833\adalib\libgnat.a(s-excmac.o)
                0x0000000000006078                system__exceptions__machine__unwinder_cache_typeIP
 .text.system__exceptions__machine__barrier_cache_typeIP
                0x000000000000607c        0x4 C:\gnat\2021-arm-elf\arm-eabi\lib\gnat\ravenscar-full-nrf52833\adalib\libgnat.a(s-excmac.o)
                0x000000000000607c                system__exceptions__machine__barrier_cache_typeIP
 .text.system__exceptions__machine__cleanup_cache_typeIP
                0x0000000000006080        0x4 C:\gnat\2021-arm-elf\arm-eabi\lib\gnat\ravenscar-full-nrf52833\adalib\libgnat.a(s-excmac.o)
                0x0000000000006080                system__exceptions__machine__cleanup_cache_typeIP
 .text.system__exceptions__machine__pr_cache_typeIP
                0x0000000000006084        0x4 C:\gnat\2021-arm-elf\arm-eabi\lib\gnat\ravenscar-full-nrf52833\adalib\libgnat.a(s-excmac.o)
                0x0000000000006084                system__exceptions__machine__pr_cache_typeIP
 .text.system__exceptions__machine__unwind_control_blockIP
                0x0000000000006088        0x4 C:\gnat\2021-arm-elf\arm-eabi\lib\gnat\ravenscar-full-nrf52833\adalib\libgnat.a(s-excmac.o)
                0x0000000000006088                system__exceptions__machine__unwind_control_blockIP
 .text.system__exceptions__machine__gnat_gcc_exceptionIP
                0x000000000000608c       0x10 C:\gnat\2021-arm-elf\arm-eabi\lib\gnat\ravenscar-full-nrf52833\adalib\libgnat.a(s-excmac.o)
                0x000000000000608c                system__exceptions__machine__gnat_gcc_exceptionIP
 .text.system__exceptions__machine__new_occurrence
                0x000000000000609c       0x30 C:\gnat\2021-arm-elf\arm-eabi\lib\gnat\ravenscar-full-nrf52833\adalib\libgnat.a(s-excmac.o)
                0x000000000000609c                system__exceptions__machine__new_occurrence
 .text          0x00000000000060cc        0x0 C:\gnat\2021-arm-elf\arm-eabi\lib\gnat\ravenscar-full-nrf52833\adalib\libgnat.a(s-exctab.o)
 .text.system__exception_table__register.part.0
                0x00000000000060cc       0x5c C:\gnat\2021-arm-elf\arm-eabi\lib\gnat\ravenscar-full-nrf52833\adalib\libgnat.a(s-exctab.o)
 .text.system__exception_table__exception_data_arrayIP
                0x0000000000006128       0x18 C:\gnat\2021-arm-elf\arm-eabi\lib\gnat\ravenscar-full-nrf52833\adalib\libgnat.a(s-exctab.o)
                0x0000000000006128                system__exception_table__exception_data_arrayIP
 .text.system__exception_table__ThtableBIP
                0x0000000000006140       0x18 C:\gnat\2021-arm-elf\arm-eabi\lib\gnat\ravenscar-full-nrf52833\adalib\libgnat.a(s-exctab.o)
                0x0000000000006140                system__exception_table__ThtableBIP
 .text.system__exception_table__has_name
                0x0000000000006158       0x34 C:\gnat\2021-arm-elf\arm-eabi\lib\gnat\ravenscar-full-nrf52833\adalib\libgnat.a(s-exctab.o)
                0x0000000000006158                system__exception_table__has_name
 .text.system__exception_table__lookup
                0x000000000000618c       0x90 C:\gnat\2021-arm-elf\arm-eabi\lib\gnat\ravenscar-full-nrf52833\adalib\libgnat.a(s-exctab.o)
                0x000000000000618c                system__exception_table__lookup
 .text.system__exception_table__hash
                0x000000000000621c       0x7c C:\gnat\2021-arm-elf\arm-eabi\lib\gnat\ravenscar-full-nrf52833\adalib\libgnat.a(s-exctab.o)
                0x000000000000621c                system__exception_table__hash
 .text.system__exception_table__register
                0x0000000000006298        0xc C:\gnat\2021-arm-elf\arm-eabi\lib\gnat\ravenscar-full-nrf52833\adalib\libgnat.a(s-exctab.o)
                0x0000000000006298                system__exception_table__register
 .text.system__exception_table__get_registered_exceptions
                0x00000000000062a4       0x60 C:\gnat\2021-arm-elf\arm-eabi\lib\gnat\ravenscar-full-nrf52833\adalib\libgnat.a(s-exctab.o)
                0x00000000000062a4                system__exception_table__get_registered_exceptions
 .text.system__exception_table__internal_exception
                0x0000000000006304      0x124 C:\gnat\2021-arm-elf\arm-eabi\lib\gnat\ravenscar-full-nrf52833\adalib\libgnat.a(s-exctab.o)
                0x0000000000006304                system__exception_table__internal_exception
 .text.system__exception_table__register_exception
                0x0000000000006428       0x30 C:\gnat\2021-arm-elf\arm-eabi\lib\gnat\ravenscar-full-nrf52833\adalib\libgnat.a(s-exctab.o)
                0x0000000000006428                system__exception_table__register_exception
 .text.system__exception_table__registered_exceptions_count
                0x0000000000006458       0x5c C:\gnat\2021-arm-elf\arm-eabi\lib\gnat\ravenscar-full-nrf52833\adalib\libgnat.a(s-exctab.o)
                0x0000000000006458                system__exception_table__registered_exceptions_count
 .text.system__exception_table___elabb
                0x00000000000064b4       0xa8 C:\gnat\2021-arm-elf\arm-eabi\lib\gnat\ravenscar-full-nrf52833\adalib\libgnat.a(s-exctab.o)
                0x00000000000064b4                system__exception_table___elabb
 .text          0x000000000000655c        0x0 C:\gnat\2021-arm-elf\arm-eabi\lib\gnat\ravenscar-full-nrf52833\adalib\libgnat.a(s-imgint.o)
 .text.system__img_int__impl__set_image_integer
                0x000000000000655c       0xbc C:\gnat\2021-arm-elf\arm-eabi\lib\gnat\ravenscar-full-nrf52833\adalib\libgnat.a(s-imgint.o)
                0x000000000000655c                system__img_int__impl__set_image_integer
 .text.system__img_int__impl__image_integer
                0x0000000000006618       0x20 C:\gnat\2021-arm-elf\arm-eabi\lib\gnat\ravenscar-full-nrf52833\adalib\libgnat.a(s-imgint.o)
                0x0000000000006618                system__img_int__impl__image_integer
 .text          0x0000000000006638        0x0 C:\gnat\2021-arm-elf\arm-eabi\lib\gnat\ravenscar-full-nrf52833\adalib\libgnat.a(s-init.o)
 .text.__gnat_finalize
                0x0000000000006638        0x4 C:\gnat\2021-arm-elf\arm-eabi\lib\gnat\ravenscar-full-nrf52833\adalib\libgnat.a(s-init.o)
                0x0000000000006638                __gnat_finalize
 .text.__gnat_initialize
                0x000000000000663c        0x4 C:\gnat\2021-arm-elf\arm-eabi\lib\gnat\ravenscar-full-nrf52833\adalib\libgnat.a(s-init.o)
                0x000000000000663c                __gnat_initialize
 .text.__gnat_install_handler
                0x0000000000006640       0x50 C:\gnat\2021-arm-elf\arm-eabi\lib\gnat\ravenscar-full-nrf52833\adalib\libgnat.a(s-init.o)
                0x0000000000006640                __gnat_install_handler
 .text.__gnat_runtime_initialize
                0x0000000000006690       0x58 C:\gnat\2021-arm-elf\arm-eabi\lib\gnat\ravenscar-full-nrf52833\adalib\libgnat.a(s-init.o)
                0x0000000000006690                __gnat_runtime_initialize
 .text.__gnat_runtime_finalize
                0x00000000000066e8        0x4 C:\gnat\2021-arm-elf\arm-eabi\lib\gnat\ravenscar-full-nrf52833\adalib\libgnat.a(s-init.o)
                0x00000000000066e8                __gnat_runtime_finalize
 .text          0x00000000000066ec        0x0 C:\gnat\2021-arm-elf\arm-eabi\lib\gnat\ravenscar-full-nrf52833\adalib\libgnat.a(s-io.o)
 .text.system__io__new_line
                0x00000000000066ec       0x54 C:\gnat\2021-arm-elf\arm-eabi\lib\gnat\ravenscar-full-nrf52833\adalib\libgnat.a(s-io.o)
                0x00000000000066ec                system__io__new_line
 .text.system__io__put__2
                0x0000000000006740       0x28 C:\gnat\2021-arm-elf\arm-eabi\lib\gnat\ravenscar-full-nrf52833\adalib\libgnat.a(s-io.o)
                0x0000000000006740                system__io__put__2
 .text.system__io__put__3
                0x0000000000006768       0x44 C:\gnat\2021-arm-elf\arm-eabi\lib\gnat\ravenscar-full-nrf52833\adalib\libgnat.a(s-io.o)
                0x0000000000006768                system__io__put__3
 .text.system__io__put
                0x00000000000067ac       0x28 C:\gnat\2021-arm-elf\arm-eabi\lib\gnat\ravenscar-full-nrf52833\adalib\libgnat.a(s-io.o)
                0x00000000000067ac                system__io__put
 .text.put_char_stderr
                0x00000000000067d4       0x28 C:\gnat\2021-arm-elf\arm-eabi\lib\gnat\ravenscar-full-nrf52833\adalib\libgnat.a(s-io.o)
                0x00000000000067d4                put_char_stderr
 .text.system__io__put_line
                0x00000000000067fc       0x48 C:\gnat\2021-arm-elf\arm-eabi\lib\gnat\ravenscar-full-nrf52833\adalib\libgnat.a(s-io.o)
                0x00000000000067fc                system__io__put_line
 .text.system__io__standard_output
                0x0000000000006844        0x4 C:\gnat\2021-arm-elf\arm-eabi\lib\gnat\ravenscar-full-nrf52833\adalib\libgnat.a(s-io.o)
                0x0000000000006844                system__io__standard_output
 .text.system__io__standard_error
                0x0000000000006848        0x4 C:\gnat\2021-arm-elf\arm-eabi\lib\gnat\ravenscar-full-nrf52833\adalib\libgnat.a(s-io.o)
                0x0000000000006848                system__io__standard_error
 .text.system__io__set_output
                0x000000000000684c        0x4 C:\gnat\2021-arm-elf\arm-eabi\lib\gnat\ravenscar-full-nrf52833\adalib\libgnat.a(s-io.o)
                0x000000000000684c                system__io__set_output
 .text          0x0000000000006850        0x0 C:\gnat\2021-arm-elf\arm-eabi\lib\gnat\ravenscar-full-nrf52833\adalib\libgnat.a(s-macres.o)
 .text._exit    0x0000000000006850       0x10 C:\gnat\2021-arm-elf\arm-eabi\lib\gnat\ravenscar-full-nrf52833\adalib\libgnat.a(s-macres.o)
                0x0000000000006850                _exit
 .text.abort    0x0000000000006860        0x8 C:\gnat\2021-arm-elf\arm-eabi\lib\gnat\ravenscar-full-nrf52833\adalib\libgnat.a(s-macres.o)
                0x0000000000006860                abort
 .text.system__machine_reset__stop
                0x0000000000006868        0x8 C:\gnat\2021-arm-elf\arm-eabi\lib\gnat\ravenscar-full-nrf52833\adalib\libgnat.a(s-macres.o)
                0x0000000000006868                system__machine_reset__stop
 .text          0x0000000000006870        0x0 C:\gnat\2021-arm-elf\arm-eabi\lib\gnat\ravenscar-full-nrf52833\adalib\libgnat.a(s-memory.o)
 .text.__gnat_malloc
                0x0000000000006870       0x58 C:\gnat\2021-arm-elf\arm-eabi\lib\gnat\ravenscar-full-nrf52833\adalib\libgnat.a(s-memory.o)
                0x0000000000006870                __gnat_malloc
 .text.__gnat_free
                0x00000000000068c8       0x28 C:\gnat\2021-arm-elf\arm-eabi\lib\gnat\ravenscar-full-nrf52833\adalib\libgnat.a(s-memory.o)
                0x00000000000068c8                __gnat_free
 .text.__gnat_realloc
                0x00000000000068f0       0x58 C:\gnat\2021-arm-elf\arm-eabi\lib\gnat\ravenscar-full-nrf52833\adalib\libgnat.a(s-memory.o)
                0x00000000000068f0                __gnat_realloc
 .text          0x0000000000006948        0x0 C:\gnat\2021-arm-elf\arm-eabi\lib\gnat\ravenscar-full-nrf52833\adalib\libgnat.a(s-parame.o)
 .text.system__parameters__adjust_storage_size
                0x0000000000006948        0xc C:\gnat\2021-arm-elf\arm-eabi\lib\gnat\ravenscar-full-nrf52833\adalib\libgnat.a(s-parame.o)
                0x0000000000006948                system__parameters__adjust_storage_size
 .text          0x0000000000006954        0x0 C:\gnat\2021-arm-elf\arm-eabi\lib\gnat\ravenscar-full-nrf52833\adalib\libgnat.a(s-putima.o)
 .text.system__put_images__hex__put_digitsXn
                0x0000000000006954       0x40 C:\gnat\2021-arm-elf\arm-eabi\lib\gnat\ravenscar-full-nrf52833\adalib\libgnat.a(s-putima.o)
 .text.system__put_images__thin_instance
                0x0000000000006994       0x64 C:\gnat\2021-arm-elf\arm-eabi\lib\gnat\ravenscar-full-nrf52833\adalib\libgnat.a(s-putima.o)
 .text.system__put_images__ll_integer_images__put_digitsXn
                0x00000000000069f8      0x104 C:\gnat\2021-arm-elf\arm-eabi\lib\gnat\ravenscar-full-nrf52833\adalib\libgnat.a(s-putima.o)
 .text.system__put_images__integer_images__put_digitsXn
                0x0000000000006afc       0xe0 C:\gnat\2021-arm-elf\arm-eabi\lib\gnat\ravenscar-full-nrf52833\adalib\libgnat.a(s-putima.o)
 .text.system__put_images__byte_stringIP
                0x0000000000006bdc        0x4 C:\gnat\2021-arm-elf\arm-eabi\lib\gnat\ravenscar-full-nrf52833\adalib\libgnat.a(s-putima.o)
                0x0000000000006bdc                system__put_images__byte_stringIP
 .text.system__put_images__integer_images__put_imageXn
                0x0000000000006be0      0x130 C:\gnat\2021-arm-elf\arm-eabi\lib\gnat\ravenscar-full-nrf52833\adalib\libgnat.a(s-putima.o)
                0x0000000000006be0                system__put_images__integer_images__put_imageXn
 .text.system__put_images__integer_images__put_image__2Xn
                0x0000000000006d10       0xf0 C:\gnat\2021-arm-elf\arm-eabi\lib\gnat\ravenscar-full-nrf52833\adalib\libgnat.a(s-putima.o)
                0x0000000000006d10                system__put_images__integer_images__put_image__2Xn
 .text.system__put_images__ll_integer_images__put_imageXn
                0x0000000000006e00       0xf0 C:\gnat\2021-arm-elf\arm-eabi\lib\gnat\ravenscar-full-nrf52833\adalib\libgnat.a(s-putima.o)
                0x0000000000006e00                system__put_images__ll_integer_images__put_imageXn
 .text.system__put_images__ll_integer_images__put_image__2Xn
                0x0000000000006ef0      0x10c C:\gnat\2021-arm-elf\arm-eabi\lib\gnat\ravenscar-full-nrf52833\adalib\libgnat.a(s-putima.o)
                0x0000000000006ef0                system__put_images__ll_integer_images__put_image__2Xn
 .text.system__put_images__lll_integer_images__put_imageXn
                0x0000000000006ffc       0xf0 C:\gnat\2021-arm-elf\arm-eabi\lib\gnat\ravenscar-full-nrf52833\adalib\libgnat.a(s-putima.o)
                0x0000000000006ffc                system__put_images__lll_integer_images__put_imageXn
 .text.system__put_images__lll_integer_images__put_image__2Xn
                0x00000000000070ec      0x10c C:\gnat\2021-arm-elf\arm-eabi\lib\gnat\ravenscar-full-nrf52833\adalib\libgnat.a(s-putima.o)
                0x00000000000070ec                system__put_images__lll_integer_images__put_image__2Xn
 .text.system__put_images__hex__put_imageXn
                0x00000000000071f8       0x2c C:\gnat\2021-arm-elf\arm-eabi\lib\gnat\ravenscar-full-nrf52833\adalib\libgnat.a(s-putima.o)
                0x00000000000071f8                system__put_images__hex__put_imageXn
 .text.system__put_images__hex__put_image__2Xn
                0x0000000000007224       0x18 C:\gnat\2021-arm-elf\arm-eabi\lib\gnat\ravenscar-full-nrf52833\adalib\libgnat.a(s-putima.o)
                0x0000000000007224                system__put_images__hex__put_image__2Xn
 .text.system__put_images__put_image_integer
                0x000000000000723c      0x130 C:\gnat\2021-arm-elf\arm-eabi\lib\gnat\ravenscar-full-nrf52833\adalib\libgnat.a(s-putima.o)
                0x000000000000723c                system__put_images__put_image_integer
 .text.system__put_images__put_image_long_long_integer
                0x000000000000736c       0xf0 C:\gnat\2021-arm-elf\arm-eabi\lib\gnat\ravenscar-full-nrf52833\adalib\libgnat.a(s-putima.o)
                0x000000000000736c                system__put_images__put_image_long_long_integer
 .text.system__put_images__put_image_long_long_long_integer
                0x000000000000745c       0xf0 C:\gnat\2021-arm-elf\arm-eabi\lib\gnat\ravenscar-full-nrf52833\adalib\libgnat.a(s-putima.o)
                0x000000000000745c                system__put_images__put_image_long_long_long_integer
 .text.system__put_images__put_image_unsigned
                0x000000000000754c       0xf0 C:\gnat\2021-arm-elf\arm-eabi\lib\gnat\ravenscar-full-nrf52833\adalib\libgnat.a(s-putima.o)
                0x000000000000754c                system__put_images__put_image_unsigned
 .text.system__put_images__put_image_long_long_unsigned
                0x000000000000763c      0x10c C:\gnat\2021-arm-elf\arm-eabi\lib\gnat\ravenscar-full-nrf52833\adalib\libgnat.a(s-putima.o)
                0x000000000000763c                system__put_images__put_image_long_long_unsigned
 .text.system__put_images__put_image_long_long_long_unsigned
                0x0000000000007748      0x10c C:\gnat\2021-arm-elf\arm-eabi\lib\gnat\ravenscar-full-nrf52833\adalib\libgnat.a(s-putima.o)
                0x0000000000007748                system__put_images__put_image_long_long_long_unsigned
 .text.system__put_images__put_image_thin_pointer
                0x0000000000007854       0x10 C:\gnat\2021-arm-elf\arm-eabi\lib\gnat\ravenscar-full-nrf52833\adalib\libgnat.a(s-putima.o)
                0x0000000000007854                system__put_images__put_image_thin_pointer
 .text.system__put_images__put_image_fat_pointer
                0x0000000000007864       0x60 C:\gnat\2021-arm-elf\arm-eabi\lib\gnat\ravenscar-full-nrf52833\adalib\libgnat.a(s-putima.o)
                0x0000000000007864                system__put_images__put_image_fat_pointer
 .text.system__put_images__put_image_access_subp
                0x00000000000078c4       0x10 C:\gnat\2021-arm-elf\arm-eabi\lib\gnat\ravenscar-full-nrf52833\adalib\libgnat.a(s-putima.o)
                0x00000000000078c4                system__put_images__put_image_access_subp
 .text.system__put_images__put_image_access_prot_subp
                0x00000000000078d4       0x10 C:\gnat\2021-arm-elf\arm-eabi\lib\gnat\ravenscar-full-nrf52833\adalib\libgnat.a(s-putima.o)
                0x00000000000078d4                system__put_images__put_image_access_prot_subp
 .text.system__put_images__put_image_string
                0x00000000000078e4       0x6c C:\gnat\2021-arm-elf\arm-eabi\lib\gnat\ravenscar-full-nrf52833\adalib\libgnat.a(s-putima.o)
                0x00000000000078e4                system__put_images__put_image_string
 .text.system__put_images__put_image_wide_string
                0x0000000000007950       0x74 C:\gnat\2021-arm-elf\arm-eabi\lib\gnat\ravenscar-full-nrf52833\adalib\libgnat.a(s-putima.o)
                0x0000000000007950                system__put_images__put_image_wide_string
 .text.system__put_images__put_image_wide_wide_string
                0x00000000000079c4       0x74 C:\gnat\2021-arm-elf\arm-eabi\lib\gnat\ravenscar-full-nrf52833\adalib\libgnat.a(s-putima.o)
                0x00000000000079c4                system__put_images__put_image_wide_wide_string
 .text.system__put_images__array_before
                0x0000000000007a38       0x20 C:\gnat\2021-arm-elf\arm-eabi\lib\gnat\ravenscar-full-nrf52833\adalib\libgnat.a(s-putima.o)
                0x0000000000007a38                system__put_images__array_before
 .text.system__put_images__array_between
                0x0000000000007a58       0x18 C:\gnat\2021-arm-elf\arm-eabi\lib\gnat\ravenscar-full-nrf52833\adalib\libgnat.a(s-putima.o)
                0x0000000000007a58                system__put_images__array_between
 .text.system__put_images__array_after
                0x0000000000007a70       0x18 C:\gnat\2021-arm-elf\arm-eabi\lib\gnat\ravenscar-full-nrf52833\adalib\libgnat.a(s-putima.o)
                0x0000000000007a70                system__put_images__array_after
 .text.system__put_images__simple_array_between
                0x0000000000007a88       0x28 C:\gnat\2021-arm-elf\arm-eabi\lib\gnat\ravenscar-full-nrf52833\adalib\libgnat.a(s-putima.o)
                0x0000000000007a88                system__put_images__simple_array_between
 .text.system__put_images__record_before
                0x0000000000007ab0       0x20 C:\gnat\2021-arm-elf\arm-eabi\lib\gnat\ravenscar-full-nrf52833\adalib\libgnat.a(s-putima.o)
                0x0000000000007ab0                system__put_images__record_before
 .text.system__put_images__record_between
                0x0000000000007ad0       0x18 C:\gnat\2021-arm-elf\arm-eabi\lib\gnat\ravenscar-full-nrf52833\adalib\libgnat.a(s-putima.o)
                0x0000000000007ad0                system__put_images__record_between
 .text.system__put_images__record_after
                0x0000000000007ae8       0x18 C:\gnat\2021-arm-elf\arm-eabi\lib\gnat\ravenscar-full-nrf52833\adalib\libgnat.a(s-putima.o)
                0x0000000000007ae8                system__put_images__record_after
 .text.system__put_images__put_arrow
                0x0000000000007b00       0x14 C:\gnat\2021-arm-elf\arm-eabi\lib\gnat\ravenscar-full-nrf52833\adalib\libgnat.a(s-putima.o)
                0x0000000000007b00                system__put_images__put_arrow
 .text.system__put_images__put_image_unknown
                0x0000000000007b14       0x44 C:\gnat\2021-arm-elf\arm-eabi\lib\gnat\ravenscar-full-nrf52833\adalib\libgnat.a(s-putima.o)
                0x0000000000007b14                system__put_images__put_image_unknown
 .text          0x0000000000007b58        0x0 C:\gnat\2021-arm-elf\arm-eabi\lib\gnat\ravenscar-full-nrf52833\adalib\libgnat.a(s-secsta.o)
 .text.system__secondary_stack__memoryIP
                0x0000000000007b58        0x4 C:\gnat\2021-arm-elf\arm-eabi\lib\gnat\ravenscar-full-nrf52833\adalib\libgnat.a(s-secsta.o)
                0x0000000000007b58                system__secondary_stack__memoryIP
 .text.system__secondary_stack__ss_stackIP
                0x0000000000007b5c        0x4 C:\gnat\2021-arm-elf\arm-eabi\lib\gnat\ravenscar-full-nrf52833\adalib\libgnat.a(s-secsta.o)
                0x0000000000007b5c                system__secondary_stack__ss_stackIP
 .text.system__secondary_stack__ss_allocate
                0x0000000000007b60       0x60 C:\gnat\2021-arm-elf\arm-eabi\lib\gnat\ravenscar-full-nrf52833\adalib\libgnat.a(s-secsta.o)
                0x0000000000007b60                system__secondary_stack__ss_allocate
 .text.system__secondary_stack__ss_get_max
                0x0000000000007bc0       0x10 C:\gnat\2021-arm-elf\arm-eabi\lib\gnat\ravenscar-full-nrf52833\adalib\libgnat.a(s-secsta.o)
                0x0000000000007bc0                system__secondary_stack__ss_get_max
 .text.system__secondary_stack__ss_init
                0x0000000000007bd0       0x6c C:\gnat\2021-arm-elf\arm-eabi\lib\gnat\ravenscar-full-nrf52833\adalib\libgnat.a(s-secsta.o)
                0x0000000000007bd0                system__secondary_stack__ss_init
 .text.system__secondary_stack__ss_mark
                0x0000000000007c3c        0xc C:\gnat\2021-arm-elf\arm-eabi\lib\gnat\ravenscar-full-nrf52833\adalib\libgnat.a(s-secsta.o)
                0x0000000000007c3c                system__secondary_stack__ss_mark
 .text.system__secondary_stack__ss_release
                0x0000000000007c48        0xc C:\gnat\2021-arm-elf\arm-eabi\lib\gnat\ravenscar-full-nrf52833\adalib\libgnat.a(s-secsta.o)
                0x0000000000007c48                system__secondary_stack__ss_release
 .text          0x0000000000007c54        0x0 C:\gnat\2021-arm-elf\arm-eabi\lib\gnat\ravenscar-full-nrf52833\adalib\libgnat.a(s-soflin.o)
 .text.system__soft_links__abort_defer_raven
                0x0000000000007c54        0x4 C:\gnat\2021-arm-elf\arm-eabi\lib\gnat\ravenscar-full-nrf52833\adalib\libgnat.a(s-soflin.o)
                0x0000000000007c54                system__soft_links__abort_defer_raven
 .text.system__soft_links__get_current_excep_soft
                0x0000000000007c58       0x10 C:\gnat\2021-arm-elf\arm-eabi\lib\gnat\ravenscar-full-nrf52833\adalib\libgnat.a(s-soflin.o)
                0x0000000000007c58                system__soft_links__get_current_excep_soft
 .text.system__soft_links__adafinal_soft
                0x0000000000007c68       0x10 C:\gnat\2021-arm-elf\arm-eabi\lib\gnat\ravenscar-full-nrf52833\adalib\libgnat.a(s-soflin.o)
                0x0000000000007c68                system__soft_links__adafinal_soft
 .text.system__soft_links__task_lock_soft
                0x0000000000007c78       0x3c C:\gnat\2021-arm-elf\arm-eabi\lib\gnat\ravenscar-full-nrf52833\adalib\libgnat.a(s-soflin.o)
                0x0000000000007c78                system__soft_links__task_lock_soft
 .text.system__soft_links__abort_undefer_raven
                0x0000000000007cb4        0x4 C:\gnat\2021-arm-elf\arm-eabi\lib\gnat\ravenscar-full-nrf52833\adalib\libgnat.a(s-soflin.o)
                0x0000000000007cb4                system__soft_links__abort_undefer_raven
 .text.system__soft_links__task_termination_soft
                0x0000000000007cb8       0x64 C:\gnat\2021-arm-elf\arm-eabi\lib\gnat\ravenscar-full-nrf52833\adalib\libgnat.a(s-soflin.o)
                0x0000000000007cb8                system__soft_links__task_termination_soft
 .text.system__soft_links__task_unlock_soft
                0x0000000000007d1c       0x34 C:\gnat\2021-arm-elf\arm-eabi\lib\gnat\ravenscar-full-nrf52833\adalib\libgnat.a(s-soflin.o)
                0x0000000000007d1c                system__soft_links__task_unlock_soft
 .text.system__soft_links__get_gnat_exception
                0x0000000000007d50       0x10 C:\gnat\2021-arm-elf\arm-eabi\lib\gnat\ravenscar-full-nrf52833\adalib\libgnat.a(s-soflin.o)
                0x0000000000007d50                system__soft_links__get_gnat_exception
 .text.system__soft_links___elabs
                0x0000000000007d60       0x18 C:\gnat\2021-arm-elf\arm-eabi\lib\gnat\ravenscar-full-nrf52833\adalib\libgnat.a(s-soflin.o)
                0x0000000000007d60                system__soft_links___elabs
 .text          0x0000000000007d78        0x0 C:\gnat\2021-arm-elf\arm-eabi\lib\gnat\ravenscar-full-nrf52833\adalib\libgnat.a(s-stalib.o)
 .text.system__standard_library__exception_dataIP
                0x0000000000007d78        0x8 C:\gnat\2021-arm-elf\arm-eabi\lib\gnat\ravenscar-full-nrf52833\adalib\libgnat.a(s-stalib.o)
                0x0000000000007d78                system__standard_library__exception_dataIP
 .text.system__standard_library__exception_trace_kindH
                0x0000000000007d80       0x78 C:\gnat\2021-arm-elf\arm-eabi\lib\gnat\ravenscar-full-nrf52833\adalib\libgnat.a(s-stalib.o)
                0x0000000000007d80                system__standard_library__exception_trace_kindH
 .text.system__standard_library__abort_undefer_direct
                0x0000000000007df8        0x4 C:\gnat\2021-arm-elf\arm-eabi\lib\gnat\ravenscar-full-nrf52833\adalib\libgnat.a(s-stalib.o)
                0x0000000000007df8                system__standard_library__abort_undefer_direct
 .text.system__standard_library__adafinal
                0x0000000000007dfc       0x1c C:\gnat\2021-arm-elf\arm-eabi\lib\gnat\ravenscar-full-nrf52833\adalib\libgnat.a(s-stalib.o)
                0x0000000000007dfc                system__standard_library__adafinal
 .text.__gnat_break_start
                0x0000000000007e18        0x4 C:\gnat\2021-arm-elf\arm-eabi\lib\gnat\ravenscar-full-nrf52833\adalib\libgnat.a(s-stalib.o)
                0x0000000000007e18                __gnat_break_start
 .text          0x0000000000007e1c        0x0 C:\gnat\2021-arm-elf\arm-eabi\lib\gnat\ravenscar-full-nrf52833\adalib\libgnat.a(s-textio.o)
 .text.system__text_io__get
                0x0000000000007e1c       0x1c C:\gnat\2021-arm-elf\arm-eabi\lib\gnat\ravenscar-full-nrf52833\adalib\libgnat.a(s-textio.o)
                0x0000000000007e1c                system__text_io__get
 .text.system__text_io__is_rx_ready
                0x0000000000007e38       0x34 C:\gnat\2021-arm-elf\arm-eabi\lib\gnat\ravenscar-full-nrf52833\adalib\libgnat.a(s-textio.o)
                0x0000000000007e38                system__text_io__is_rx_ready
 .text.system__text_io__is_tx_ready
                0x0000000000007e6c       0x34 C:\gnat\2021-arm-elf\arm-eabi\lib\gnat\ravenscar-full-nrf52833\adalib\libgnat.a(s-textio.o)
                0x0000000000007e6c                system__text_io__is_tx_ready
 .text.system__text_io__put
                0x0000000000007ea0       0x24 C:\gnat\2021-arm-elf\arm-eabi\lib\gnat\ravenscar-full-nrf52833\adalib\libgnat.a(s-textio.o)
                0x0000000000007ea0                system__text_io__put
 .text.system__text_io__initialize
                0x0000000000007ec4       0x74 C:\gnat\2021-arm-elf\arm-eabi\lib\gnat\ravenscar-full-nrf52833\adalib\libgnat.a(s-textio.o)
                0x0000000000007ec4                system__text_io__initialize
 .text.system__text_io__use_cr_lf_for_new_line
                0x0000000000007f38        0x4 C:\gnat\2021-arm-elf\arm-eabi\lib\gnat\ravenscar-full-nrf52833\adalib\libgnat.a(s-textio.o)
                0x0000000000007f38                system__text_io__use_cr_lf_for_new_line
 .text          0x0000000000007f3c        0x0 C:\gnat\2021-arm-elf\arm-eabi\lib\gnat\ravenscar-full-nrf52833\adalib\libgnat.a(s-traceb.o)
 .text.system__traceback__backtrace_callback
                0x0000000000007f3c       0x58 C:\gnat\2021-arm-elf\arm-eabi\lib\gnat\ravenscar-full-nrf52833\adalib\libgnat.a(s-traceb.o)
 .text.system__traceback__unwind_context_typeIP
                0x0000000000007f94        0x8 C:\gnat\2021-arm-elf\arm-eabi\lib\gnat\ravenscar-full-nrf52833\adalib\libgnat.a(s-traceb.o)
                0x0000000000007f94                system__traceback__unwind_context_typeIP
 .text.system__traceback__callback_params_typeIP
                0x0000000000007f9c        0x8 C:\gnat\2021-arm-elf\arm-eabi\lib\gnat\ravenscar-full-nrf52833\adalib\libgnat.a(s-traceb.o)
                0x0000000000007f9c                system__traceback__callback_params_typeIP
 .text.system__traceback__call_chain
                0x0000000000007fa4       0x2c C:\gnat\2021-arm-elf\arm-eabi\lib\gnat\ravenscar-full-nrf52833\adalib\libgnat.a(s-traceb.o)
                0x0000000000007fa4                system__traceback__call_chain
 .text          0x0000000000007fd0        0x0 C:\gnat\2021-arm-elf\arm-eabi\lib\gnat\ravenscar-full-nrf52833\adalib\libgnat.a(s-traent.o)
 .text.system__traceback_entries__tracebacks_arrayIP
                0x0000000000007fd0        0x4 C:\gnat\2021-arm-elf\arm-eabi\lib\gnat\ravenscar-full-nrf52833\adalib\libgnat.a(s-traent.o)
                0x0000000000007fd0                system__traceback_entries__tracebacks_arrayIP
 .text.system__traceback_entries__pc_for
                0x0000000000007fd4        0x4 C:\gnat\2021-arm-elf\arm-eabi\lib\gnat\ravenscar-full-nrf52833\adalib\libgnat.a(s-traent.o)
                0x0000000000007fd4                system__traceback_entries__pc_for
 .text.system__traceback_entries__tb_entry_for
                0x0000000000007fd8        0x4 C:\gnat\2021-arm-elf\arm-eabi\lib\gnat\ravenscar-full-nrf52833\adalib\libgnat.a(s-traent.o)
                0x0000000000007fd8                system__traceback_entries__tb_entry_for
 .text          0x0000000000007fdc        0x0 C:\gnat\2021-arm-elf\arm-eabi\lib\gnat\ravenscar-full-nrf52833\adalib\libgnat.a(s-valuns.o)
 .text.system__val_uns__impl__scan_raw_unsigned
                0x0000000000007fdc      0x218 C:\gnat\2021-arm-elf\arm-eabi\lib\gnat\ravenscar-full-nrf52833\adalib\libgnat.a(s-valuns.o)
                0x0000000000007fdc                system__val_uns__impl__scan_raw_unsigned
 .text.system__val_uns__impl__scan_unsigned
                0x00000000000081f4       0x4c C:\gnat\2021-arm-elf\arm-eabi\lib\gnat\ravenscar-full-nrf52833\adalib\libgnat.a(s-valuns.o)
                0x00000000000081f4                system__val_uns__impl__scan_unsigned
 .text.system__val_uns__impl__value_unsigned
                0x0000000000008240       0x4c C:\gnat\2021-arm-elf\arm-eabi\lib\gnat\ravenscar-full-nrf52833\adalib\libgnat.a(s-valuns.o)
                0x0000000000008240                system__val_uns__impl__value_unsigned
 .text          0x000000000000828c        0x0 C:\gnat\2021-arm-elf\arm-eabi\lib\gnat\ravenscar-full-nrf52833\adalib\libgnat.a(s-valuti.o)
 .text.system__val_util__bad_value
                0x000000000000828c       0xc0 C:\gnat\2021-arm-elf\arm-eabi\lib\gnat\ravenscar-full-nrf52833\adalib\libgnat.a(s-valuti.o)
                0x000000000000828c                system__val_util__bad_value
 .text.system__val_util__normalize_string
                0x000000000000834c       0x74 C:\gnat\2021-arm-elf\arm-eabi\lib\gnat\ravenscar-full-nrf52833\adalib\libgnat.a(s-valuti.o)
                0x000000000000834c                system__val_util__normalize_string
 .text.system__val_util__scan_exponent
                0x00000000000083c0       0xd4 C:\gnat\2021-arm-elf\arm-eabi\lib\gnat\ravenscar-full-nrf52833\adalib\libgnat.a(s-valuti.o)
                0x00000000000083c0                system__val_util__scan_exponent
 .text.system__val_util__scan_plus_sign
                0x0000000000008494       0x40 C:\gnat\2021-arm-elf\arm-eabi\lib\gnat\ravenscar-full-nrf52833\adalib\libgnat.a(s-valuti.o)
                0x0000000000008494                system__val_util__scan_plus_sign
 .text.system__val_util__scan_sign
                0x00000000000084d4       0x5c C:\gnat\2021-arm-elf\arm-eabi\lib\gnat\ravenscar-full-nrf52833\adalib\libgnat.a(s-valuti.o)
                0x00000000000084d4                system__val_util__scan_sign
 .text.system__val_util__scan_trailing_blanks
                0x0000000000008530       0x2c C:\gnat\2021-arm-elf\arm-eabi\lib\gnat\ravenscar-full-nrf52833\adalib\libgnat.a(s-valuti.o)
                0x0000000000008530                system__val_util__scan_trailing_blanks
 .text.system__val_util__scan_underscore
                0x000000000000855c       0x48 C:\gnat\2021-arm-elf\arm-eabi\lib\gnat\ravenscar-full-nrf52833\adalib\libgnat.a(s-valuti.o)
                0x000000000000855c                system__val_util__scan_underscore
 .text          0x00000000000085a4        0x0 C:\gnat\2021-arm-elf\arm-eabi\lib\gnat\ravenscar-full-nrf52833\adalib\libgnat.a(s-wchcon.o)
 .text.system__wch_con__get_wc_encoding_method
                0x00000000000085a4       0x40 C:\gnat\2021-arm-elf\arm-eabi\lib\gnat\ravenscar-full-nrf52833\adalib\libgnat.a(s-wchcon.o)
                0x00000000000085a4                system__wch_con__get_wc_encoding_method
 .text.system__wch_con__get_wc_encoding_method__2
                0x00000000000085e4       0xbc C:\gnat\2021-arm-elf\arm-eabi\lib\gnat\ravenscar-full-nrf52833\adalib\libgnat.a(s-wchcon.o)
                0x00000000000085e4                system__wch_con__get_wc_encoding_method__2
 .text.system__wch_con__is_start_of_encoding
                0x00000000000086a0       0x1c C:\gnat\2021-arm-elf\arm-eabi\lib\gnat\ravenscar-full-nrf52833\adalib\libgnat.a(s-wchcon.o)
                0x00000000000086a0                system__wch_con__is_start_of_encoding
 .text          0x00000000000086bc        0x0 C:\gnat\2021-arm-elf\arm-eabi\lib\gnat\ravenscar-full-nrf52833\adalib\libgnat.a(s-wchstw.o)
 .text.system__wch_stw__get_next_code__in_char.0
                0x00000000000086bc       0x38 C:\gnat\2021-arm-elf\arm-eabi\lib\gnat\ravenscar-full-nrf52833\adalib\libgnat.a(s-wchstw.o)
 .text.system__wch_stw__get_next_code__get_utf_32__get_hex.3
                0x00000000000086f4       0x58 C:\gnat\2021-arm-elf\arm-eabi\lib\gnat\ravenscar-full-nrf52833\adalib\libgnat.a(s-wchstw.o)
 .text.system__wch_stw__get_next_code__get_utf_32.1
                0x000000000000874c      0x2d8 C:\gnat\2021-arm-elf\arm-eabi\lib\gnat\ravenscar-full-nrf52833\adalib\libgnat.a(s-wchstw.o)
 .text.system__wch_stw__get_next_code
                0x0000000000008a24       0xa4 C:\gnat\2021-arm-elf\arm-eabi\lib\gnat\ravenscar-full-nrf52833\adalib\libgnat.a(s-wchstw.o)
 .text.system__wch_stw__string_to_wide_string
                0x0000000000008ac8       0x68 C:\gnat\2021-arm-elf\arm-eabi\lib\gnat\ravenscar-full-nrf52833\adalib\libgnat.a(s-wchstw.o)
                0x0000000000008ac8                system__wch_stw__string_to_wide_string
 .text.system__wch_stw__string_to_wide_wide_string
                0x0000000000008b30       0x54 C:\gnat\2021-arm-elf\arm-eabi\lib\gnat\ravenscar-full-nrf52833\adalib\libgnat.a(s-wchstw.o)
                0x0000000000008b30                system__wch_stw__string_to_wide_wide_string
 .text          0x0000000000008b84       0x4e C:\gnat\2021-arm-elf\arm-eabi\lib\gnat\ravenscar-full-nrf52833\adalib\libgnat.a(start-rom.o)
                0x0000000000008b84                _start_rom
 .text          0x0000000000008bd2        0x0 C:\gnat\2021-arm-elf\arm-eabi\lib\gnat\ravenscar-full-nrf52833\adalib\libgnat.a(a-elchha.o)
 *fill*         0x0000000000008bd2        0x2 
 .text.__gnat_last_chance_handler
                0x0000000000008bd4      0x160 C:\gnat\2021-arm-elf\arm-eabi\lib\gnat\ravenscar-full-nrf52833\adalib\libgnat.a(a-elchha.o)
                0x0000000000008bd4                __gnat_last_chance_handler
 .text          0x0000000000008d34        0x0 C:\gnat\2021-arm-elf\arm-eabi\lib\gnat\ravenscar-full-nrf52833\adalib\libgnat.a(a-stbuut.o)
 .text.ada__strings__text_buffers__utils__utf_8_length
                0x0000000000008d34        0x4 C:\gnat\2021-arm-elf\arm-eabi\lib\gnat\ravenscar-full-nrf52833\adalib\libgnat.a(a-stbuut.o)
                0x0000000000008d34                ada__strings__text_buffers__utils__utf_8_length
 .text.ada__strings__text_buffers__utils__utf_8_linesPredicate
                0x0000000000008d38       0xb4 C:\gnat\2021-arm-elf\arm-eabi\lib\gnat\ravenscar-full-nrf52833\adalib\libgnat.a(a-stbuut.o)
                0x0000000000008d38                ada__strings__text_buffers__utils__utf_8_linesPredicate
 .text.ada__strings__text_buffers__utils__utf_8Predicate
                0x0000000000008dec       0xac C:\gnat\2021-arm-elf\arm-eabi\lib\gnat\ravenscar-full-nrf52833\adalib\libgnat.a(a-stbuut.o)
                0x0000000000008dec                ada__strings__text_buffers__utils__utf_8Predicate
 .text.ada__strings__text_buffers__utils__nl
                0x0000000000008e98        0x4 C:\gnat\2021-arm-elf\arm-eabi\lib\gnat\ravenscar-full-nrf52833\adalib\libgnat.a(a-stbuut.o)
                0x0000000000008e98                ada__strings__text_buffers__utils__nl
 .text.ada__strings__text_buffers__utils__put_7bit
                0x0000000000008e9c       0x20 C:\gnat\2021-arm-elf\arm-eabi\lib\gnat\ravenscar-full-nrf52833\adalib\libgnat.a(a-stbuut.o)
                0x0000000000008e9c                ada__strings__text_buffers__utils__put_7bit
 .text.ada__strings__text_buffers__utils__put_character
                0x0000000000008ebc       0x20 C:\gnat\2021-arm-elf\arm-eabi\lib\gnat\ravenscar-full-nrf52833\adalib\libgnat.a(a-stbuut.o)
                0x0000000000008ebc                ada__strings__text_buffers__utils__put_character
 .text.ada__strings__text_buffers__utils__put_wide_character
                0x0000000000008edc       0x1c C:\gnat\2021-arm-elf\arm-eabi\lib\gnat\ravenscar-full-nrf52833\adalib\libgnat.a(a-stbuut.o)
                0x0000000000008edc                ada__strings__text_buffers__utils__put_wide_character
 .text.ada__strings__text_buffers__utils__put_wide_wide_character
                0x0000000000008ef8       0x1c C:\gnat\2021-arm-elf\arm-eabi\lib\gnat\ravenscar-full-nrf52833\adalib\libgnat.a(a-stbuut.o)
                0x0000000000008ef8                ada__strings__text_buffers__utils__put_wide_wide_character
 .text.ada__strings__text_buffers__utils__put_utf_8_lines
                0x0000000000008f14        0x8 C:\gnat\2021-arm-elf\arm-eabi\lib\gnat\ravenscar-full-nrf52833\adalib\libgnat.a(a-stbuut.o)
                0x0000000000008f14                ada__strings__text_buffers__utils__put_utf_8_lines
 .text.ada__strings__text_buffers__utils__column
                0x0000000000008f1c        0x4 C:\gnat\2021-arm-elf\arm-eabi\lib\gnat\ravenscar-full-nrf52833\adalib\libgnat.a(a-stbuut.o)
                0x0000000000008f1c                ada__strings__text_buffers__utils__column
 .text.ada__strings__text_buffers__utils__tab_to_column
                0x0000000000008f20       0x44 C:\gnat\2021-arm-elf\arm-eabi\lib\gnat\ravenscar-full-nrf52833\adalib\libgnat.a(a-stbuut.o)
                0x0000000000008f20                ada__strings__text_buffers__utils__tab_to_column
 .text          0x0000000000008f64        0x0 C:\gnat\2021-arm-elf\arm-eabi\lib\gnat\ravenscar-full-nrf52833\adalib\libgnat.a(a-suezst.o)
 .text.ada__strings__utf_encoding__wide_wide_strings__decode__get_continuation__2.0
                0x0000000000008f64       0x48 C:\gnat\2021-arm-elf\arm-eabi\lib\gnat\ravenscar-full-nrf52833\adalib\libgnat.a(a-suezst.o)
 .text.ada__strings__utf_encoding__wide_wide_strings__decode__2
                0x0000000000008fac      0x17c C:\gnat\2021-arm-elf\arm-eabi\lib\gnat\ravenscar-full-nrf52833\adalib\libgnat.a(a-suezst.o)
                0x0000000000008fac                ada__strings__utf_encoding__wide_wide_strings__decode__2
 .text.ada__strings__utf_encoding__wide_wide_strings__decode__3
                0x0000000000009128      0x11c C:\gnat\2021-arm-elf\arm-eabi\lib\gnat\ravenscar-full-nrf52833\adalib\libgnat.a(a-suezst.o)
                0x0000000000009128                ada__strings__utf_encoding__wide_wide_strings__decode__3
 .text.ada__strings__utf_encoding__wide_wide_strings__decode
                0x0000000000009244       0x40 C:\gnat\2021-arm-elf\arm-eabi\lib\gnat\ravenscar-full-nrf52833\adalib\libgnat.a(a-suezst.o)
                0x0000000000009244                ada__strings__utf_encoding__wide_wide_strings__decode
 .text.ada__strings__utf_encoding__wide_wide_strings__encode__2
                0x0000000000009284      0x15c C:\gnat\2021-arm-elf\arm-eabi\lib\gnat\ravenscar-full-nrf52833\adalib\libgnat.a(a-suezst.o)
                0x0000000000009284                ada__strings__utf_encoding__wide_wide_strings__encode__2
 .text.ada__strings__utf_encoding__wide_wide_strings__encode__3
                0x00000000000093e0       0xe8 C:\gnat\2021-arm-elf\arm-eabi\lib\gnat\ravenscar-full-nrf52833\adalib\libgnat.a(a-suezst.o)
                0x00000000000093e0                ada__strings__utf_encoding__wide_wide_strings__encode__3
 .text.ada__strings__utf_encoding__wide_wide_strings__encode
                0x00000000000094c8       0x48 C:\gnat\2021-arm-elf\arm-eabi\lib\gnat\ravenscar-full-nrf52833\adalib\libgnat.a(a-suezst.o)
                0x00000000000094c8                ada__strings__utf_encoding__wide_wide_strings__encode
 .text          0x0000000000009510       0x20 C:\gnat\2021-arm-elf\arm-eabi\lib\gnat\ravenscar-full-nrf52833\adalib\libgnat.a(breakpoint_handler-cortexm.o)
                0x0000000000009510                __gnat_bkpt_trap
 .text          0x0000000000009530        0x0 C:\gnat\2021-arm-elf\arm-eabi\lib\gnat\ravenscar-full-nrf52833\adalib\libgnat.a(g-debuti.o)
 .text.gnat__debug_utilities__image__2
                0x0000000000009530       0x54 C:\gnat\2021-arm-elf\arm-eabi\lib\gnat\ravenscar-full-nrf52833\adalib\libgnat.a(g-debuti.o)
                0x0000000000009530                gnat__debug_utilities__image__2
 .text.gnat__debug_utilities__image
                0x0000000000009584       0xa0 C:\gnat\2021-arm-elf\arm-eabi\lib\gnat\ravenscar-full-nrf52833\adalib\libgnat.a(g-debuti.o)
                0x0000000000009584                gnat__debug_utilities__image
 .text.gnat__debug_utilities__image_c
                0x0000000000009624       0x30 C:\gnat\2021-arm-elf\arm-eabi\lib\gnat\ravenscar-full-nrf52833\adalib\libgnat.a(g-debuti.o)
                0x0000000000009624                gnat__debug_utilities__image_c
 .text.gnat__debug_utilities__value
                0x0000000000009654       0xa8 C:\gnat\2021-arm-elf\arm-eabi\lib\gnat\ravenscar-full-nrf52833\adalib\libgnat.a(g-debuti.o)
                0x0000000000009654                gnat__debug_utilities__value
 .text          0x00000000000096fc        0x0 C:\gnat\2021-arm-elf\arm-eabi\lib\gnat\ravenscar-full-nrf52833\adalib\libgnat.a(s-casuti.o)
 .text.system__case_util__to_lower
                0x00000000000096fc       0x20 C:\gnat\2021-arm-elf\arm-eabi\lib\gnat\ravenscar-full-nrf52833\adalib\libgnat.a(s-casuti.o)
                0x00000000000096fc                system__case_util__to_lower
 .text.system__case_util__to_lower__2
                0x000000000000971c       0x44 C:\gnat\2021-arm-elf\arm-eabi\lib\gnat\ravenscar-full-nrf52833\adalib\libgnat.a(s-casuti.o)
                0x000000000000971c                system__case_util__to_lower__2
 .text.system__case_util__to_lower__3
                0x0000000000009760       0x58 C:\gnat\2021-arm-elf\arm-eabi\lib\gnat\ravenscar-full-nrf52833\adalib\libgnat.a(s-casuti.o)
                0x0000000000009760                system__case_util__to_lower__3
 .text.system__case_util__to_mixed
                0x00000000000097b8       0x68 C:\gnat\2021-arm-elf\arm-eabi\lib\gnat\ravenscar-full-nrf52833\adalib\libgnat.a(s-casuti.o)
                0x00000000000097b8                system__case_util__to_mixed
 .text.system__case_util__to_mixed__2
                0x0000000000009820       0x58 C:\gnat\2021-arm-elf\arm-eabi\lib\gnat\ravenscar-full-nrf52833\adalib\libgnat.a(s-casuti.o)
                0x0000000000009820                system__case_util__to_mixed__2
 .text.system__case_util__to_upper
                0x0000000000009878       0x20 C:\gnat\2021-arm-elf\arm-eabi\lib\gnat\ravenscar-full-nrf52833\adalib\libgnat.a(s-casuti.o)
                0x0000000000009878                system__case_util__to_upper
 .text.system__case_util__to_upper__2
                0x0000000000009898       0x44 C:\gnat\2021-arm-elf\arm-eabi\lib\gnat\ravenscar-full-nrf52833\adalib\libgnat.a(s-casuti.o)
                0x0000000000009898                system__case_util__to_upper__2
 .text.system__case_util__to_upper__3
                0x00000000000098dc       0x58 C:\gnat\2021-arm-elf\arm-eabi\lib\gnat\ravenscar-full-nrf52833\adalib\libgnat.a(s-casuti.o)
                0x00000000000098dc                system__case_util__to_upper__3
 .text          0x0000000000009934        0x0 C:\gnat\2021-arm-elf\arm-eabi\lib\gnat\ravenscar-full-nrf52833\adalib\libgnat.a(s-wchjis.o)
 .text.system__wch_jis__euc_to_jis
                0x0000000000009934       0x40 C:\gnat\2021-arm-elf\arm-eabi\lib\gnat\ravenscar-full-nrf52833\adalib\libgnat.a(s-wchjis.o)
                0x0000000000009934                system__wch_jis__euc_to_jis
 .text.system__wch_jis__jis_to_euc
                0x0000000000009974       0x40 C:\gnat\2021-arm-elf\arm-eabi\lib\gnat\ravenscar-full-nrf52833\adalib\libgnat.a(s-wchjis.o)
                0x0000000000009974                system__wch_jis__jis_to_euc
 .text.system__wch_jis__jis_to_shift_jis
                0x00000000000099b4       0x48 C:\gnat\2021-arm-elf\arm-eabi\lib\gnat\ravenscar-full-nrf52833\adalib\libgnat.a(s-wchjis.o)
                0x00000000000099b4                system__wch_jis__jis_to_shift_jis
 .text.system__wch_jis__shift_jis_to_jis
                0x00000000000099fc       0x54 C:\gnat\2021-arm-elf\arm-eabi\lib\gnat\ravenscar-full-nrf52833\adalib\libgnat.a(s-wchjis.o)
                0x00000000000099fc                system__wch_jis__shift_jis_to_jis
 .text          0x0000000000009a50        0x0 C:\gnat\2021-arm-elf\arm-eabi\lib\gnat\ravenscar-full-nrf52833\adalib\libgnat.a(setup_board.o)
 .text._ada_setup_board
                0x0000000000009a50      0x4e4 C:\gnat\2021-arm-elf\arm-eabi\lib\gnat\ravenscar-full-nrf52833\adalib\libgnat.a(setup_board.o)
                0x0000000000009a50                _ada_setup_board
 .text          0x0000000000009f34       0x28 C:\gnat\2021-arm-elf\arm-eabi\lib\gnat\ravenscar-full-nrf52833\adalib\libgnat.a(start-common.o)
                0x0000000000009f34                _nrf5_start_common
 .text          0x0000000000009f5c        0x0 C:\gnat\2021-arm-elf\arm-eabi\lib\gnat\ravenscar-full-nrf52833\adalib\libgnat.a(a-stuten.o)
 .text.ada__strings__utf_encoding__encoding
                0x0000000000009f5c       0x70 C:\gnat\2021-arm-elf\arm-eabi\lib\gnat\ravenscar-full-nrf52833\adalib\libgnat.a(a-stuten.o)
                0x0000000000009f5c                ada__strings__utf_encoding__encoding
 .text.ada__strings__utf_encoding__from_utf_16
                0x0000000000009fcc      0x178 C:\gnat\2021-arm-elf\arm-eabi\lib\gnat\ravenscar-full-nrf52833\adalib\libgnat.a(a-stuten.o)
                0x0000000000009fcc                ada__strings__utf_encoding__from_utf_16
 .text.ada__strings__utf_encoding__raise_encoding_error
                0x000000000000a144       0x90 C:\gnat\2021-arm-elf\arm-eabi\lib\gnat\ravenscar-full-nrf52833\adalib\libgnat.a(a-stuten.o)
                0x000000000000a144                ada__strings__utf_encoding__raise_encoding_error
 .text.ada__strings__utf_encoding__to_utf_16
                0x000000000000a1d4      0x190 C:\gnat\2021-arm-elf\arm-eabi\lib\gnat\ravenscar-full-nrf52833\adalib\libgnat.a(a-stuten.o)
                0x000000000000a1d4                ada__strings__utf_encoding__to_utf_16
 .text          0x000000000000a364       0x20 c:/gnat/2021-arm-elf/bin/../lib/gcc/arm-eabi/10.3.1/../../../../arm-eabi/lib/thumb/v7e-m/fpv4-sp/hard\libc.a(lib_a-malloc.o)
                0x000000000000a364                malloc
                0x000000000000a374                free
 .text          0x000000000000a384      0x554 c:/gnat/2021-arm-elf/bin/../lib/gcc/arm-eabi/10.3.1/../../../../arm-eabi/lib/thumb/v7e-m/fpv4-sp/hard\libc.a(lib_a-mallocr.o)
                0x000000000000a384                _malloc_r
 .text          0x000000000000a8d8       0x64 c:/gnat/2021-arm-elf/bin/../lib/gcc/arm-eabi/10.3.1/../../../../arm-eabi/lib/thumb/v7e-m/fpv4-sp/hard\libc.a(lib_a-memcmp.o)
                0x000000000000a8d8                memcmp
 .text          0x000000000000a93c      0x134 c:/gnat/2021-arm-elf/bin/../lib/gcc/arm-eabi/10.3.1/../../../../arm-eabi/lib/thumb/v7e-m/fpv4-sp/hard\libc.a(lib_a-memcpy.o)
                0x000000000000a93c                memcpy
 .text          0x000000000000aa70       0xf8 c:/gnat/2021-arm-elf/bin/../lib/gcc/arm-eabi/10.3.1/../../../../arm-eabi/lib/thumb/v7e-m/fpv4-sp/hard\libc.a(lib_a-memmove.o)
                0x000000000000aa70                memmove
 .text          0x000000000000ab68       0xa4 c:/gnat/2021-arm-elf/bin/../lib/gcc/arm-eabi/10.3.1/../../../../arm-eabi/lib/thumb/v7e-m/fpv4-sp/hard\libc.a(lib_a-memset.o)
                0x000000000000ab68                memset
 .text          0x000000000000ac0c        0x8 c:/gnat/2021-arm-elf/bin/../lib/gcc/arm-eabi/10.3.1/../../../../arm-eabi/lib/thumb/v7e-m/fpv4-sp/hard\libc.a(lib_a-mlock.o)
                0x000000000000ac0c                __malloc_lock
                0x000000000000ac10                __malloc_unlock
 .text          0x000000000000ac14       0x18 c:/gnat/2021-arm-elf/bin/../lib/gcc/arm-eabi/10.3.1/../../../../arm-eabi/lib/thumb/v7e-m/fpv4-sp/hard\libc.a(lib_a-realloc.o)
                0x000000000000ac14                realloc
 .text          0x000000000000ac2c      0x3dc c:/gnat/2021-arm-elf/bin/../lib/gcc/arm-eabi/10.3.1/../../../../arm-eabi/lib/thumb/v7e-m/fpv4-sp/hard\libc.a(lib_a-reallocr.o)
                0x000000000000ac2c                _realloc_r
 .text          0x000000000000b008       0x24 c:/gnat/2021-arm-elf/bin/../lib/gcc/arm-eabi/10.3.1/../../../../arm-eabi/lib/thumb/v7e-m/fpv4-sp/hard\libc.a(lib_a-sbrkr.o)
                0x000000000000b008                _sbrk_r
 .text          0x000000000000b02c      0x298 c:/gnat/2021-arm-elf/bin/../lib/gcc/arm-eabi/10.3.1/../../../../arm-eabi/lib/thumb/v7e-m/fpv4-sp/hard\libc.a(lib_a-freer.o)
                0x000000000000b02c                _malloc_trim_r
                0x000000000000b0cc                _free_r
 .text          0x000000000000b2c4        0x0 c:/gnat/2021-arm-elf/bin/../lib/gcc/arm-eabi/10.3.1/../../../../arm-eabi/lib/thumb/v7e-m/fpv4-sp/hard\libc.a(lib_a-impure.o)
 .text          0x000000000000b2c4       0xd8 c:/gnat/2021-arm-elf/bin/../lib/gcc/arm-eabi/10.3.1/../../../../arm-eabi/lib/thumb/v7e-m/fpv4-sp/hard\libc.a(lib_a-reent.o)
                0x000000000000b2c4                cleanup_glue
                0x000000000000b30c                _reclaim_reent
 .text          0x000000000000b39c        0x0 C:\gnat\2021-arm-elf\arm-eabi\lib\gnat\ravenscar-full-nrf52833\adalib\\libgnat.a(newlib-bb.o)
 .text.isatty   0x000000000000b39c        0x4 C:\gnat\2021-arm-elf\arm-eabi\lib\gnat\ravenscar-full-nrf52833\adalib\\libgnat.a(newlib-bb.o)
                0x000000000000b39c                isatty
 .text.write    0x000000000000b3a0       0x54 C:\gnat\2021-arm-elf\arm-eabi\lib\gnat\ravenscar-full-nrf52833\adalib\\libgnat.a(newlib-bb.o)
                0x000000000000b3a0                write
 .text.close    0x000000000000b3f4        0x4 C:\gnat\2021-arm-elf\arm-eabi\lib\gnat\ravenscar-full-nrf52833\adalib\\libgnat.a(newlib-bb.o)
                0x000000000000b3f4                close
 .text.fstat    0x000000000000b3f8        0x8 C:\gnat\2021-arm-elf\arm-eabi\lib\gnat\ravenscar-full-nrf52833\adalib\\libgnat.a(newlib-bb.o)
                0x000000000000b3f8                fstat
 .text.lseek    0x000000000000b400       0x10 C:\gnat\2021-arm-elf\arm-eabi\lib\gnat\ravenscar-full-nrf52833\adalib\\libgnat.a(newlib-bb.o)
                0x000000000000b400                lseek
 .text.read     0x000000000000b410       0x54 C:\gnat\2021-arm-elf\arm-eabi\lib\gnat\ravenscar-full-nrf52833\adalib\\libgnat.a(newlib-bb.o)
                0x000000000000b410                read
 .text.sbrk     0x000000000000b464       0x20 C:\gnat\2021-arm-elf\arm-eabi\lib\gnat\ravenscar-full-nrf52833\adalib\\libgnat.a(newlib-bb.o)
                0x000000000000b464                sbrk
 .text          0x000000000000b484       0xa0 c:/gnat/2021-arm-elf/bin/../lib/gcc/arm-eabi/10.3.1/thumb/v7e-m/fpv4-sp/hard\libgcc.a(_aeabi_ldivmod.o)
                0x000000000000b484                __aeabi_ldivmod
 .text          0x000000000000b524       0x30 c:/gnat/2021-arm-elf/bin/../lib/gcc/arm-eabi/10.3.1/thumb/v7e-m/fpv4-sp/hard\libgcc.a(_aeabi_uldivmod.o)
                0x000000000000b524                __aeabi_uldivmod
 .text          0x000000000000b554      0x2d8 c:/gnat/2021-arm-elf/bin/../lib/gcc/arm-eabi/10.3.1/thumb/v7e-m/fpv4-sp/hard\libgcc.a(_udivmoddi4.o)
                0x000000000000b554                __udivmoddi4
 .text          0x000000000000b82c      0x9d4 c:/gnat/2021-arm-elf/bin/../lib/gcc/arm-eabi/10.3.1/thumb/v7e-m/fpv4-sp/hard\libgcc.a(unwind-arm.o)
                0x000000000000bad0                _Unwind_GetCFA
                0x000000000000bad4                __gnu_Unwind_RaiseException
                0x000000000000bb3c                __gnu_Unwind_ForcedUnwind
                0x000000000000bb4c                __gnu_Unwind_Resume
                0x000000000000bb90                __gnu_Unwind_Resume_or_Rethrow
                0x000000000000bba0                _Unwind_Complete
                0x000000000000bba4                _Unwind_DeleteException
                0x000000000000bbb0                _Unwind_VRS_Get
                0x000000000000bbfc                _Unwind_VRS_Set
                0x000000000000bc44                __gnu_Unwind_Backtrace
                0x000000000000bf70                __aeabi_unwind_cpp_pr0
                0x000000000000bf74                __aeabi_unwind_cpp_pr1
                0x000000000000bf78                __aeabi_unwind_cpp_pr2
                0x000000000000bf7c                _Unwind_VRS_Pop
 .text          0x000000000000c200      0x1ac c:/gnat/2021-arm-elf/bin/../lib/gcc/arm-eabi/10.3.1/thumb/v7e-m/fpv4-sp/hard\libgcc.a(libunwind.o)
                0x000000000000c200                __restore_core_regs
                0x000000000000c200                restore_core_regs
                0x000000000000c218                __gnu_Unwind_Restore_VFP
                0x000000000000c220                __gnu_Unwind_Save_VFP
                0x000000000000c228                __gnu_Unwind_Restore_VFP_D
                0x000000000000c230                __gnu_Unwind_Save_VFP_D
                0x000000000000c238                __gnu_Unwind_Restore_VFP_D_16_to_31
                0x000000000000c240                __gnu_Unwind_Save_VFP_D_16_to_31
                0x000000000000c248                __gnu_Unwind_Restore_WMMXD
                0x000000000000c28c                __gnu_Unwind_Save_WMMXD
                0x000000000000c2d0                __gnu_Unwind_Restore_WMMXC
                0x000000000000c2e4                __gnu_Unwind_Save_WMMXC
                0x000000000000c2f8                ___Unwind_RaiseException
                0x000000000000c2f8                _Unwind_RaiseException
                0x000000000000c31c                _Unwind_Resume
                0x000000000000c31c                ___Unwind_Resume
                0x000000000000c340                _Unwind_Resume_or_Rethrow
                0x000000000000c340                ___Unwind_Resume_or_Rethrow
                0x000000000000c364                _Unwind_ForcedUnwind
                0x000000000000c364                ___Unwind_ForcedUnwind
                0x000000000000c388                ___Unwind_Backtrace
                0x000000000000c388                _Unwind_Backtrace
 .text          0x000000000000c3ac      0x350 c:/gnat/2021-arm-elf/bin/../lib/gcc/arm-eabi/10.3.1/thumb/v7e-m/fpv4-sp/hard\libgcc.a(pr-support.o)
                0x000000000000c404                __gnu_unwind_execute
                0x000000000000c6b0                __gnu_unwind_frame
                0x000000000000c6dc                _Unwind_GetRegionStart
                0x000000000000c6e8                _Unwind_GetLanguageSpecificData
 .text.unlikely
                0x000000000000c6fc        0xc c:/gnat/2021-arm-elf/bin/../lib/gcc/arm-eabi/10.3.1/thumb/v7e-m/fpv4-sp/hard\libgcc.a(pr-support.o)
                0x000000000000c6fc                _Unwind_GetDataRelBase
                0x000000000000c702                _Unwind_GetTextRelBase
 .text          0x000000000000c708        0x4 c:/gnat/2021-arm-elf/bin/../lib/gcc/arm-eabi/10.3.1/thumb/v7e-m/fpv4-sp/hard\libgcc.a(_dvmd_tls.o)
                0x000000000000c708                __aeabi_idiv0
                0x000000000000c708                __aeabi_ldiv0
 .text          0x000000000000c70c        0xc c:/gnat/2021-arm-elf/bin/../lib/gcc/arm-eabi/10.3.1/../../../../arm-eabi/lib/thumb/v7e-m/fpv4-sp/hard\libc.a(lib_a-errno.o)
                0x000000000000c70c                __errno
 *(.gnu.warning)

.glue_7         0x000000000000c718        0x0
 .glue_7        0x000000000000c718        0x0 linker stubs

.glue_7t        0x000000000000c718        0x0
 .glue_7t       0x000000000000c718        0x0 linker stubs

.vfp11_veneer   0x000000000000c718        0x0
 .vfp11_veneer  0x000000000000c718        0x0 linker stubs

.v4_bx          0x000000000000c718        0x0
 .v4_bx         0x000000000000c718        0x0 linker stubs

.iplt           0x000000000000c718        0x0
 .iplt          0x000000000000c718        0x0 test.o

.ARM.extab      0x000000000000c718      0x60c
 *(.ARM.extab* .gnu.linkonce.armextab.*)
 .ARM.extab     0x000000000000c718        0x0 test.o
 .ARM.extab     0x000000000000c718        0xc b__test.o
 .ARM.extab     0x000000000000c724       0x42 C:\Users\Stigen\Documents\GitHub\ADA-project\CarProject\obj\tasking.o
 *fill*         0x000000000000c766        0x2 
 .ARM.extab.text.ada__real_time__Oadd__2
                0x000000000000c768        0xc C:\gnat\2021-arm-elf\arm-eabi\lib\gnat\ravenscar-full-nrf52833\adalib\libgnarl.a(a-reatim.o)
 .ARM.extab.text.ada__real_time__Omultiply
                0x000000000000c774        0x0 C:\gnat\2021-arm-elf\arm-eabi\lib\gnat\ravenscar-full-nrf52833\adalib\libgnarl.a(a-reatim.o)
 .ARM.extab.text.ada__real_time__Omultiply__2
                0x000000000000c774        0x0 C:\gnat\2021-arm-elf\arm-eabi\lib\gnat\ravenscar-full-nrf52833\adalib\libgnarl.a(a-reatim.o)
 .ARM.extab.text.ada__real_time__Oadd
                0x000000000000c774        0xc C:\gnat\2021-arm-elf\arm-eabi\lib\gnat\ravenscar-full-nrf52833\adalib\libgnarl.a(a-reatim.o)
 .ARM.extab.text.ada__real_time__Oadd__3
                0x000000000000c780        0x0 C:\gnat\2021-arm-elf\arm-eabi\lib\gnat\ravenscar-full-nrf52833\adalib\libgnarl.a(a-reatim.o)
 .ARM.extab.text.ada__real_time__Osubtract
                0x000000000000c780        0x0 C:\gnat\2021-arm-elf\arm-eabi\lib\gnat\ravenscar-full-nrf52833\adalib\libgnarl.a(a-reatim.o)
 .ARM.extab.text.ada__real_time__Osubtract__2
                0x000000000000c780        0x0 C:\gnat\2021-arm-elf\arm-eabi\lib\gnat\ravenscar-full-nrf52833\adalib\libgnarl.a(a-reatim.o)
 .ARM.extab.text.ada__real_time__Osubtract__3
                0x000000000000c780        0x0 C:\gnat\2021-arm-elf\arm-eabi\lib\gnat\ravenscar-full-nrf52833\adalib\libgnarl.a(a-reatim.o)
 .ARM.extab.text.ada__real_time__Osubtract__4
                0x000000000000c780        0xc C:\gnat\2021-arm-elf\arm-eabi\lib\gnat\ravenscar-full-nrf52833\adalib\libgnarl.a(a-reatim.o)
 .ARM.extab.text.ada__real_time__Odivide
                0x000000000000c78c        0xc C:\gnat\2021-arm-elf\arm-eabi\lib\gnat\ravenscar-full-nrf52833\adalib\libgnarl.a(a-reatim.o)
 .ARM.extab.text.ada__real_time__Odivide__2
                0x000000000000c798        0xc C:\gnat\2021-arm-elf\arm-eabi\lib\gnat\ravenscar-full-nrf52833\adalib\libgnarl.a(a-reatim.o)
 .ARM.extab.text.ada__real_time__clock
                0x000000000000c7a4        0x0 C:\gnat\2021-arm-elf\arm-eabi\lib\gnat\ravenscar-full-nrf52833\adalib\libgnarl.a(a-reatim.o)
 .ARM.extab.text.ada__real_time__microseconds
                0x000000000000c7a4        0x0 C:\gnat\2021-arm-elf\arm-eabi\lib\gnat\ravenscar-full-nrf52833\adalib\libgnarl.a(a-reatim.o)
 .ARM.extab.text.ada__real_time__milliseconds
                0x000000000000c7a4        0x0 C:\gnat\2021-arm-elf\arm-eabi\lib\gnat\ravenscar-full-nrf52833\adalib\libgnarl.a(a-reatim.o)
 .ARM.extab.text.ada__real_time__minutes
                0x000000000000c7a4        0x0 C:\gnat\2021-arm-elf\arm-eabi\lib\gnat\ravenscar-full-nrf52833\adalib\libgnarl.a(a-reatim.o)
 .ARM.extab.text.ada__real_time__mul_div
                0x000000000000c7a4        0x0 C:\gnat\2021-arm-elf\arm-eabi\lib\gnat\ravenscar-full-nrf52833\adalib\libgnarl.a(a-reatim.o)
 .ARM.extab.text.ada__real_time__nanoseconds
                0x000000000000c7a4        0x0 C:\gnat\2021-arm-elf\arm-eabi\lib\gnat\ravenscar-full-nrf52833\adalib\libgnarl.a(a-reatim.o)
 .ARM.extab.text.ada__real_time__rounded_div
                0x000000000000c7a4        0x0 C:\gnat\2021-arm-elf\arm-eabi\lib\gnat\ravenscar-full-nrf52833\adalib\libgnarl.a(a-reatim.o)
 .ARM.extab.text.ada__real_time__seconds
                0x000000000000c7a4        0x0 C:\gnat\2021-arm-elf\arm-eabi\lib\gnat\ravenscar-full-nrf52833\adalib\libgnarl.a(a-reatim.o)
 .ARM.extab.text.ada__real_time__split
                0x000000000000c7a4        0x0 C:\gnat\2021-arm-elf\arm-eabi\lib\gnat\ravenscar-full-nrf52833\adalib\libgnarl.a(a-reatim.o)
 .ARM.extab.text.ada__real_time__time_of
                0x000000000000c7a4        0x0 C:\gnat\2021-arm-elf\arm-eabi\lib\gnat\ravenscar-full-nrf52833\adalib\libgnarl.a(a-reatim.o)
 .ARM.extab.text.ada__real_time__to_duration
                0x000000000000c7a4        0x0 C:\gnat\2021-arm-elf\arm-eabi\lib\gnat\ravenscar-full-nrf52833\adalib\libgnarl.a(a-reatim.o)
 .ARM.extab.text.ada__real_time__to_time_span
                0x000000000000c7a4        0x0 C:\gnat\2021-arm-elf\arm-eabi\lib\gnat\ravenscar-full-nrf52833\adalib\libgnarl.a(a-reatim.o)
 .ARM.extab.text.ada__real_time___elabb
                0x000000000000c7a4        0x0 C:\gnat\2021-arm-elf\arm-eabi\lib\gnat\ravenscar-full-nrf52833\adalib\libgnarl.a(a-reatim.o)
 .ARM.extab.text.ada__real_time__delays__delay_until
                0x000000000000c7a4        0x0 C:\gnat\2021-arm-elf\arm-eabi\lib\gnat\ravenscar-full-nrf52833\adalib\libgnarl.a(a-retide.o)
 .ARM.extab.text.ada__real_time__delays__to_duration
                0x000000000000c7a4        0x0 C:\gnat\2021-arm-elf\arm-eabi\lib\gnat\ravenscar-full-nrf52833\adalib\libgnarl.a(a-retide.o)
 .ARM.extab.text.system__bb__board_support__interrupt_handler
                0x000000000000c7a4        0x0 C:\gnat\2021-arm-elf\arm-eabi\lib\gnat\ravenscar-full-nrf52833\adalib\libgnarl.a(s-bbbosu.o)
 .ARM.extab.text.system__bb__board_support__time__max_timer_interval
                0x000000000000c7a4        0x0 C:\gnat\2021-arm-elf\arm-eabi\lib\gnat\ravenscar-full-nrf52833\adalib\libgnarl.a(s-bbbosu.o)
 .ARM.extab.text.system__bb__board_support__time__read_clock
                0x000000000000c7a4        0x0 C:\gnat\2021-arm-elf\arm-eabi\lib\gnat\ravenscar-full-nrf52833\adalib\libgnarl.a(s-bbbosu.o)
 .ARM.extab.text.system__bb__board_support__time__clear_alarm_interrupt
                0x000000000000c7a4        0x0 C:\gnat\2021-arm-elf\arm-eabi\lib\gnat\ravenscar-full-nrf52833\adalib\libgnarl.a(s-bbbosu.o)
 .ARM.extab.text.system__bb__board_support__time__set_alarm
                0x000000000000c7a4        0x0 C:\gnat\2021-arm-elf\arm-eabi\lib\gnat\ravenscar-full-nrf52833\adalib\libgnarl.a(s-bbbosu.o)
 .ARM.extab.text.system__bb__board_support__time__install_alarm_handler
                0x000000000000c7a4        0x0 C:\gnat\2021-arm-elf\arm-eabi\lib\gnat\ravenscar-full-nrf52833\adalib\libgnarl.a(s-bbbosu.o)
 .ARM.extab.text.system__bb__board_support__multiprocessors__number_of_cpus
                0x000000000000c7a4        0x0 C:\gnat\2021-arm-elf\arm-eabi\lib\gnat\ravenscar-full-nrf52833\adalib\libgnarl.a(s-bbbosu.o)
 .ARM.extab.text.system__bb__board_support__multiprocessors__current_cpu
                0x000000000000c7a4        0x0 C:\gnat\2021-arm-elf\arm-eabi\lib\gnat\ravenscar-full-nrf52833\adalib\libgnarl.a(s-bbbosu.o)
 .ARM.extab.text.system__bb__board_support__multiprocessors__poke_cpu
                0x000000000000c7a4        0x0 C:\gnat\2021-arm-elf\arm-eabi\lib\gnat\ravenscar-full-nrf52833\adalib\libgnarl.a(s-bbbosu.o)
 .ARM.extab.text.system__bb__board_support__multiprocessors__start_all_cpus
                0x000000000000c7a4        0x0 C:\gnat\2021-arm-elf\arm-eabi\lib\gnat\ravenscar-full-nrf52833\adalib\libgnarl.a(s-bbbosu.o)
 .ARM.extab.text.system__bb__board_support__interrupts__install_interrupt_handler
                0x000000000000c7a4        0x0 C:\gnat\2021-arm-elf\arm-eabi\lib\gnat\ravenscar-full-nrf52833\adalib\libgnarl.a(s-bbbosu.o)
 .ARM.extab.text.system__bb__board_support__interrupts__priority_of_interrupt
                0x000000000000c7a4        0x0 C:\gnat\2021-arm-elf\arm-eabi\lib\gnat\ravenscar-full-nrf52833\adalib\libgnarl.a(s-bbbosu.o)
 .ARM.extab.text.system__bb__board_support__interrupts__power_down
                0x000000000000c7a4        0x0 C:\gnat\2021-arm-elf\arm-eabi\lib\gnat\ravenscar-full-nrf52833\adalib\libgnarl.a(s-bbbosu.o)
 .ARM.extab.text.system__bb__board_support__interrupts__set_current_priority
                0x000000000000c7a4        0x0 C:\gnat\2021-arm-elf\arm-eabi\lib\gnat\ravenscar-full-nrf52833\adalib\libgnarl.a(s-bbbosu.o)
 .ARM.extab.text.system__bb__board_support__TipBIP
                0x000000000000c7a4        0x0 C:\gnat\2021-arm-elf\arm-eabi\lib\gnat\ravenscar-full-nrf52833\adalib\libgnarl.a(s-bbbosu.o)
 .ARM.extab.text.system__bb__board_support__initialize_board
                0x000000000000c7a4        0x0 C:\gnat\2021-arm-elf\arm-eabi\lib\gnat\ravenscar-full-nrf52833\adalib\libgnarl.a(s-bbbosu.o)
 .ARM.extab.text.system__bb__board_support__enable_interrupt_request
                0x000000000000c7a4        0x0 C:\gnat\2021-arm-elf\arm-eabi\lib\gnat\ravenscar-full-nrf52833\adalib\libgnarl.a(s-bbbosu.o)
 .ARM.extab.text.system__bb__board_support__trigger_interrupt
                0x000000000000c7a4        0x0 C:\gnat\2021-arm-elf\arm-eabi\lib\gnat\ravenscar-full-nrf52833\adalib\libgnarl.a(s-bbbosu.o)
 .ARM.extab.text.system__bb__board_support__to_pri
                0x000000000000c7a4        0x0 C:\gnat\2021-arm-elf\arm-eabi\lib\gnat\ravenscar-full-nrf52833\adalib\libgnarl.a(s-bbbosu.o)
 .ARM.extab.text.system__bb__board_support__to_priority
                0x000000000000c7a4        0x0 C:\gnat\2021-arm-elf\arm-eabi\lib\gnat\ravenscar-full-nrf52833\adalib\libgnarl.a(s-bbbosu.o)
 .ARM.extab.text.system__bb__cpu_primitives__gnat_error_handler
                0x000000000000c7a4        0xc C:\gnat\2021-arm-elf\arm-eabi\lib\gnat\ravenscar-full-nrf52833\adalib\libgnarl.a(s-bbcppr.o)
 .ARM.extab.text.system__bb__cpu_primitives__Tcontext_bufferBIP
                0x000000000000c7b0        0x0 C:\gnat\2021-arm-elf\arm-eabi\lib\gnat\ravenscar-full-nrf52833\adalib\libgnarl.a(s-bbcppr.o)
 .ARM.extab.text.system__bb__cpu_primitives__hardware_contextIP
                0x000000000000c7b0        0x0 C:\gnat\2021-arm-elf\arm-eabi\lib\gnat\ravenscar-full-nrf52833\adalib\libgnarl.a(s-bbcppr.o)
 .ARM.extab.text.primask
                0x000000000000c7b0        0x0 C:\gnat\2021-arm-elf\arm-eabi\lib\gnat\ravenscar-full-nrf52833\adalib\libgnarl.a(s-bbcppr.o)
 .ARM.extab.text.system__bb__cpu_primitives__initialize_cpu
                0x000000000000c7b0        0x0 C:\gnat\2021-arm-elf\arm-eabi\lib\gnat\ravenscar-full-nrf52833\adalib\libgnarl.a(s-bbcppr.o)
 .ARM.extab.text.system__bb__cpu_primitives__initialize_stack
                0x000000000000c7b0        0x0 C:\gnat\2021-arm-elf\arm-eabi\lib\gnat\ravenscar-full-nrf52833\adalib\libgnarl.a(s-bbcppr.o)
 .ARM.extab.text.system__bb__cpu_primitives__context_switch
                0x000000000000c7b0        0xc C:\gnat\2021-arm-elf\arm-eabi\lib\gnat\ravenscar-full-nrf52833\adalib\libgnarl.a(s-bbcppr.o)
 .ARM.extab.text.system__bb__cpu_primitives__get_context
                0x000000000000c7bc        0x0 C:\gnat\2021-arm-elf\arm-eabi\lib\gnat\ravenscar-full-nrf52833\adalib\libgnarl.a(s-bbcppr.o)
 .ARM.extab.text.__gnat_irq_trap
                0x000000000000c7bc        0x0 C:\gnat\2021-arm-elf\arm-eabi\lib\gnat\ravenscar-full-nrf52833\adalib\libgnarl.a(s-bbcppr.o)
 .ARM.extab.text.__gnat_sv_call_trap
                0x000000000000c7bc        0xc C:\gnat\2021-arm-elf\arm-eabi\lib\gnat\ravenscar-full-nrf52833\adalib\libgnarl.a(s-bbcppr.o)
 .ARM.extab.text.system__bb__cpu_primitives__set_context
                0x000000000000c7c8        0x0 C:\gnat\2021-arm-elf\arm-eabi\lib\gnat\ravenscar-full-nrf52833\adalib\libgnarl.a(s-bbcppr.o)
 .ARM.extab.text.__gnat_sys_tick_trap
                0x000000000000c7c8        0x0 C:\gnat\2021-arm-elf\arm-eabi\lib\gnat\ravenscar-full-nrf52833\adalib\libgnarl.a(s-bbcppr.o)
 .ARM.extab.text.system__bb__cpu_primitives__initialize_context
                0x000000000000c7c8        0x0 C:\gnat\2021-arm-elf\arm-eabi\lib\gnat\ravenscar-full-nrf52833\adalib\libgnarl.a(s-bbcppr.o)
 .ARM.extab.text.system__bb__cpu_primitives__install_error_handlers
                0x000000000000c7c8        0x0 C:\gnat\2021-arm-elf\arm-eabi\lib\gnat\ravenscar-full-nrf52833\adalib\libgnarl.a(s-bbcppr.o)
 .ARM.extab.text.system__bb__cpu_primitives__install_trap_handler
                0x000000000000c7c8        0x0 C:\gnat\2021-arm-elf\arm-eabi\lib\gnat\ravenscar-full-nrf52833\adalib\libgnarl.a(s-bbcppr.o)
 .ARM.extab.text.system__bb__cpu_primitives__disable_interrupts
                0x000000000000c7c8        0x0 C:\gnat\2021-arm-elf\arm-eabi\lib\gnat\ravenscar-full-nrf52833\adalib\libgnarl.a(s-bbcppr.o)
 .ARM.extab.text.system__bb__cpu_primitives__enable_interrupts
                0x000000000000c7c8        0x0 C:\gnat\2021-arm-elf\arm-eabi\lib\gnat\ravenscar-full-nrf52833\adalib\libgnarl.a(s-bbcppr.o)
 .ARM.extab.text.system__bb__interrupts__Tinterrupt_stacksBIP
                0x000000000000c7c8        0x0 C:\gnat\2021-arm-elf\arm-eabi\lib\gnat\ravenscar-full-nrf52833\adalib\libgnarl.a(s-bbinte.o)
 .ARM.extab.text.system__bb__interrupts__Tinterrupt_stack_tableBIP
                0x000000000000c7c8        0x0 C:\gnat\2021-arm-elf\arm-eabi\lib\gnat\ravenscar-full-nrf52833\adalib\libgnarl.a(s-bbinte.o)
 .ARM.extab.text.system__bb__interrupts__Thandlers_tableBIP
                0x000000000000c7c8        0x0 C:\gnat\2021-arm-elf\arm-eabi\lib\gnat\ravenscar-full-nrf52833\adalib\libgnarl.a(s-bbinte.o)
 .ARM.extab.text.system__bb__interrupts__attach_handler
                0x000000000000c7c8        0x0 C:\gnat\2021-arm-elf\arm-eabi\lib\gnat\ravenscar-full-nrf52833\adalib\libgnarl.a(s-bbinte.o)
 .ARM.extab.text.system__bb__interrupts__current_interrupt
                0x000000000000c7c8        0x0 C:\gnat\2021-arm-elf\arm-eabi\lib\gnat\ravenscar-full-nrf52833\adalib\libgnarl.a(s-bbinte.o)
 .ARM.extab.text.system__bb__interrupts__interrupt_wrapper
                0x000000000000c7c8        0x0 C:\gnat\2021-arm-elf\arm-eabi\lib\gnat\ravenscar-full-nrf52833\adalib\libgnarl.a(s-bbinte.o)
 .ARM.extab.text.system__bb__interrupts__within_interrupt_stack
                0x000000000000c7c8        0x0 C:\gnat\2021-arm-elf\arm-eabi\lib\gnat\ravenscar-full-nrf52833\adalib\libgnarl.a(s-bbinte.o)
 .ARM.extab.text.system__bb__interrupts__initialize_interrupts
                0x000000000000c7c8        0xc C:\gnat\2021-arm-elf\arm-eabi\lib\gnat\ravenscar-full-nrf52833\adalib\libgnarl.a(s-bbinte.o)
 .ARM.extab.text.system__bb__threads__queues__change_priority
                0x000000000000c7d4        0x0 C:\gnat\2021-arm-elf\arm-eabi\lib\gnat\ravenscar-full-nrf52833\adalib\libgnarl.a(s-bbthqu.o)
 .ARM.extab.text.__gnat_context_switch_needed
                0x000000000000c7d4        0x0 C:\gnat\2021-arm-elf\arm-eabi\lib\gnat\ravenscar-full-nrf52833\adalib\libgnarl.a(s-bbthqu.o)
 .ARM.extab.text.system__bb__threads__queues__current_priority
                0x000000000000c7d4        0x0 C:\gnat\2021-arm-elf\arm-eabi\lib\gnat\ravenscar-full-nrf52833\adalib\libgnarl.a(s-bbthqu.o)
 .ARM.extab.text.system__bb__threads__queues__extract
                0x000000000000c7d4        0x0 C:\gnat\2021-arm-elf\arm-eabi\lib\gnat\ravenscar-full-nrf52833\adalib\libgnarl.a(s-bbthqu.o)
 .ARM.extab.text.system__bb__threads__queues__first_thread
                0x000000000000c7d4        0x0 C:\gnat\2021-arm-elf\arm-eabi\lib\gnat\ravenscar-full-nrf52833\adalib\libgnarl.a(s-bbthqu.o)
 .ARM.extab.text.system__bb__threads__queues__get_next_alarm_time
                0x000000000000c7d4        0x0 C:\gnat\2021-arm-elf\arm-eabi\lib\gnat\ravenscar-full-nrf52833\adalib\libgnarl.a(s-bbthqu.o)
 .ARM.extab.text.system__bb__threads__queues__insert
                0x000000000000c7d4        0x0 C:\gnat\2021-arm-elf\arm-eabi\lib\gnat\ravenscar-full-nrf52833\adalib\libgnarl.a(s-bbthqu.o)
 .ARM.extab.text.system__bb__threads__queues__insert_alarm
                0x000000000000c7d4        0x0 C:\gnat\2021-arm-elf\arm-eabi\lib\gnat\ravenscar-full-nrf52833\adalib\libgnarl.a(s-bbthqu.o)
 .ARM.extab.text.system__bb__threads__queues__running_thread
                0x000000000000c7d4        0x0 C:\gnat\2021-arm-elf\arm-eabi\lib\gnat\ravenscar-full-nrf52833\adalib\libgnarl.a(s-bbthqu.o)
 .ARM.extab.text.system__bb__threads__queues__wakeup_expired_alarms
                0x000000000000c7d4        0x0 C:\gnat\2021-arm-elf\arm-eabi\lib\gnat\ravenscar-full-nrf52833\adalib\libgnarl.a(s-bbthqu.o)
 .ARM.extab.text.system__bb__threads__queues__yield
                0x000000000000c7d4        0x0 C:\gnat\2021-arm-elf\arm-eabi\lib\gnat\ravenscar-full-nrf52833\adalib\libgnarl.a(s-bbthqu.o)
 .ARM.extab.text.system__bb__timing_events___size
                0x000000000000c7d4        0x0 C:\gnat\2021-arm-elf\arm-eabi\lib\gnat\ravenscar-full-nrf52833\adalib\libgnarl.a(s-bbtiev.o)
 .ARM.extab.text.system__bb__timing_events__timing_eventDF
                0x000000000000c7d4        0x0 C:\gnat\2021-arm-elf\arm-eabi\lib\gnat\ravenscar-full-nrf52833\adalib\libgnarl.a(s-bbtiev.o)
 .ARM.extab.text.system__bb__timing_events__time_of_event
                0x000000000000c7d4        0x0 C:\gnat\2021-arm-elf\arm-eabi\lib\gnat\ravenscar-full-nrf52833\adalib\libgnarl.a(s-bbtiev.o)
 .ARM.extab.text.system__bb__timing_events__timing_eventPI
                0x000000000000c7d4        0x0 C:\gnat\2021-arm-elf\arm-eabi\lib\gnat\ravenscar-full-nrf52833\adalib\libgnarl.a(s-bbtiev.o)
 .ARM.extab.text.system__bb__timing_events__set_handler
                0x000000000000c7d4        0x0 C:\gnat\2021-arm-elf\arm-eabi\lib\gnat\ravenscar-full-nrf52833\adalib\libgnarl.a(s-bbtiev.o)
 .ARM.extab.text.system__bb__timing_events__cancel_handler
                0x000000000000c7d4        0xc C:\gnat\2021-arm-elf\arm-eabi\lib\gnat\ravenscar-full-nrf52833\adalib\libgnarl.a(s-bbtiev.o)
 .ARM.extab.text.system__bb__timing_events__timing_eventIP
                0x000000000000c7e0        0x0 C:\gnat\2021-arm-elf\arm-eabi\lib\gnat\ravenscar-full-nrf52833\adalib\libgnarl.a(s-bbtiev.o)
 .ARM.extab.text.system__bb__timing_events__Ttiming_eventCFD
                0x000000000000c7e0        0x0 C:\gnat\2021-arm-elf\arm-eabi\lib\gnat\ravenscar-full-nrf52833\adalib\libgnarl.a(s-bbtiev.o)
 .ARM.extab.text.system__bb__timing_events__finalize_spec
                0x000000000000c7e0        0x0 C:\gnat\2021-arm-elf\arm-eabi\lib\gnat\ravenscar-full-nrf52833\adalib\libgnarl.a(s-bbtiev.o)
 .ARM.extab.text.system__bb__timing_events__execute_expired_timing_events
                0x000000000000c7e0        0x0 C:\gnat\2021-arm-elf\arm-eabi\lib\gnat\ravenscar-full-nrf52833\adalib\libgnarl.a(s-bbtiev.o)
 .ARM.extab.text.system__bb__timing_events__get_next_timeout
                0x000000000000c7e0        0x0 C:\gnat\2021-arm-elf\arm-eabi\lib\gnat\ravenscar-full-nrf52833\adalib\libgnarl.a(s-bbtiev.o)
 .ARM.extab.text.system__bb__timing_events___elabs
                0x000000000000c7e0        0x0 C:\gnat\2021-arm-elf\arm-eabi\lib\gnat\ravenscar-full-nrf52833\adalib\libgnarl.a(s-bbtiev.o)
 .ARM.extab.text.system__bb__time__alarm_handler
                0x000000000000c7e0        0x0 C:\gnat\2021-arm-elf\arm-eabi\lib\gnat\ravenscar-full-nrf52833\adalib\libgnarl.a(s-bbtime.o)
 .ARM.extab.text.system__bb__time__composite_execution_timeIP
                0x000000000000c7e0        0x0 C:\gnat\2021-arm-elf\arm-eabi\lib\gnat\ravenscar-full-nrf52833\adalib\libgnarl.a(s-bbtime.o)
 .ARM.extab.text.system__bb__time__composite_timeIP
                0x000000000000c7e0        0x0 C:\gnat\2021-arm-elf\arm-eabi\lib\gnat\ravenscar-full-nrf52833\adalib\libgnarl.a(s-bbtime.o)
 .ARM.extab.text.system__bb__time__clock
                0x000000000000c7e0        0x0 C:\gnat\2021-arm-elf\arm-eabi\lib\gnat\ravenscar-full-nrf52833\adalib\libgnarl.a(s-bbtime.o)
 .ARM.extab.text.system__bb__time__epoch
                0x000000000000c7e0        0x0 C:\gnat\2021-arm-elf\arm-eabi\lib\gnat\ravenscar-full-nrf52833\adalib\libgnarl.a(s-bbtime.o)
 .ARM.extab.text.system__bb__time__get_next_timeout
                0x000000000000c7e0        0x0 C:\gnat\2021-arm-elf\arm-eabi\lib\gnat\ravenscar-full-nrf52833\adalib\libgnarl.a(s-bbtime.o)
 .ARM.extab.text.system__bb__time__initialize_timers
                0x000000000000c7e0        0x0 C:\gnat\2021-arm-elf\arm-eabi\lib\gnat\ravenscar-full-nrf52833\adalib\libgnarl.a(s-bbtime.o)
 .ARM.extab.text.system__bb__time__update_alarm
                0x000000000000c7e0        0x0 C:\gnat\2021-arm-elf\arm-eabi\lib\gnat\ravenscar-full-nrf52833\adalib\libgnarl.a(s-bbtime.o)
 .ARM.extab.text.system__bb__time__delay_until
                0x000000000000c7e0        0x0 C:\gnat\2021-arm-elf\arm-eabi\lib\gnat\ravenscar-full-nrf52833\adalib\libgnarl.a(s-bbtime.o)
 .ARM.extab.text.system__bb__time__Oconcat
                0x000000000000c7e0        0x0 C:\gnat\2021-arm-elf\arm-eabi\lib\gnat\ravenscar-full-nrf52833\adalib\libgnarl.a(s-bbtime.o)
 .ARM.extab.text.system__bb__cpu_primitives__context_switch_trigger__initialize_context_switch
                0x000000000000c7e0        0x0 C:\gnat\2021-arm-elf\arm-eabi\lib\gnat\ravenscar-full-nrf52833\adalib\libgnarl.a(s-bcpcst.o)
 .ARM.extab.text.system__bb__cpu_primitives__context_switch_trigger__trigger_context_switch
                0x000000000000c7e0        0x0 C:\gnat\2021-arm-elf\arm-eabi\lib\gnat\ravenscar-full-nrf52833\adalib\libgnarl.a(s-bcpcst.o)
 .ARM.extab.text.__gnat_pend_sv_trap
                0x000000000000c7e0        0x0 C:\gnat\2021-arm-elf\arm-eabi\lib\gnat\ravenscar-full-nrf52833\adalib\libgnarl.a(s-bcpcst.o)
 .ARM.extab.text.system__tasking__restricted__stages__create_restricted_task__2
                0x000000000000c7e0        0x0 C:\gnat\2021-arm-elf\arm-eabi\lib\gnat\ravenscar-full-nrf52833\adalib\libgnarl.a(s-tarest.o)
 .ARM.extab.text.system__tasking__restricted__stages__task_wrapper
                0x000000000000c7e0        0x0 C:\gnat\2021-arm-elf\arm-eabi\lib\gnat\ravenscar-full-nrf52833\adalib\libgnarl.a(s-tarest.o)
 .ARM.extab.text.system__tasking__restricted__stages__activate_tasks
                0x000000000000c7e0        0x0 C:\gnat\2021-arm-elf\arm-eabi\lib\gnat\ravenscar-full-nrf52833\adalib\libgnarl.a(s-tarest.o)
 .ARM.extab.text.__gnat_activate_all_tasks
                0x000000000000c7e0        0x0 C:\gnat\2021-arm-elf\arm-eabi\lib\gnat\ravenscar-full-nrf52833\adalib\libgnarl.a(s-tarest.o)
 .ARM.extab.text.system__tasking__restricted__stages__activate_restricted_tasks
                0x000000000000c7e0        0x0 C:\gnat\2021-arm-elf\arm-eabi\lib\gnat\ravenscar-full-nrf52833\adalib\libgnarl.a(s-tarest.o)
 .ARM.extab.text.system__tasking__restricted__stages__complete_restricted_activation
                0x000000000000c7e0        0x0 C:\gnat\2021-arm-elf\arm-eabi\lib\gnat\ravenscar-full-nrf52833\adalib\libgnarl.a(s-tarest.o)
 .ARM.extab.text.system__tasking__restricted__stages__complete_restricted_task
                0x000000000000c7e0        0x0 C:\gnat\2021-arm-elf\arm-eabi\lib\gnat\ravenscar-full-nrf52833\adalib\libgnarl.a(s-tarest.o)
 .ARM.extab.text.system__tasking__restricted__stages__create_restricted_task
                0x000000000000c7e0        0x0 C:\gnat\2021-arm-elf\arm-eabi\lib\gnat\ravenscar-full-nrf52833\adalib\libgnarl.a(s-tarest.o)
 .ARM.extab.text.system__tasking__restricted__stages__create_restricted_task_sequential
                0x000000000000c7e0        0x0 C:\gnat\2021-arm-elf\arm-eabi\lib\gnat\ravenscar-full-nrf52833\adalib\libgnarl.a(s-tarest.o)
 .ARM.extab.text.system__tasking__restricted__stages__finalize_global_tasks
                0x000000000000c7e0        0xc C:\gnat\2021-arm-elf\arm-eabi\lib\gnat\ravenscar-full-nrf52833\adalib\libgnarl.a(s-tarest.o)
 .ARM.extab.text.system__tasking__restricted__stages__restricted_terminated
                0x000000000000c7ec        0x0 C:\gnat\2021-arm-elf\arm-eabi\lib\gnat\ravenscar-full-nrf52833\adalib\libgnarl.a(s-tarest.o)
 .ARM.extab.text.system__tasking__restricted__stages___elabb
                0x000000000000c7ec        0x0 C:\gnat\2021-arm-elf\arm-eabi\lib\gnat\ravenscar-full-nrf52833\adalib\libgnarl.a(s-tarest.o)
 .ARM.extab.text.system__tasking__debug__add_task_id
                0x000000000000c7ec        0x0 C:\gnat\2021-arm-elf\arm-eabi\lib\gnat\ravenscar-full-nrf52833\adalib\libgnarl.a(s-tasdeb.o)
 .ARM.extab.text.system__tasking__E5sIP
                0x000000000000c7ec        0x0 C:\gnat\2021-arm-elf\arm-eabi\lib\gnat\ravenscar-full-nrf52833\adalib\libgnarl.a(s-taskin.o)
 .ARM.extab.text.system__tasking__task_statesH
                0x000000000000c7ec        0x0 C:\gnat\2021-arm-elf\arm-eabi\lib\gnat\ravenscar-full-nrf52833\adalib\libgnarl.a(s-taskin.o)
 .ARM.extab.text.system__tasking__call_modesH
                0x000000000000c7ec        0x0 C:\gnat\2021-arm-elf\arm-eabi\lib\gnat\ravenscar-full-nrf52833\adalib\libgnarl.a(s-taskin.o)
 .ARM.extab.text.system__tasking__entry_queueIP
                0x000000000000c7ec        0x0 C:\gnat\2021-arm-elf\arm-eabi\lib\gnat\ravenscar-full-nrf52833\adalib\libgnarl.a(s-taskin.o)
 .ARM.extab.text.system__tasking__activation_chainIP
                0x000000000000c7ec        0x0 C:\gnat\2021-arm-elf\arm-eabi\lib\gnat\ravenscar-full-nrf52833\adalib\libgnarl.a(s-taskin.o)
 .ARM.extab.text.__gnat_get_secondary_stack
                0x000000000000c7ec        0x0 C:\gnat\2021-arm-elf\arm-eabi\lib\gnat\ravenscar-full-nrf52833\adalib\libgnarl.a(s-taskin.o)
 .ARM.extab.text.system__tasking__initialize_atcb
                0x000000000000c7ec        0x0 C:\gnat\2021-arm-elf\arm-eabi\lib\gnat\ravenscar-full-nrf52833\adalib\libgnarl.a(s-taskin.o)
 .ARM.extab.text.system__tasking__initialize
                0x000000000000c7ec        0x0 C:\gnat\2021-arm-elf\arm-eabi\lib\gnat\ravenscar-full-nrf52833\adalib\libgnarl.a(s-taskin.o)
 .ARM.extab.text.system__tasking__self
                0x000000000000c7ec        0x0 C:\gnat\2021-arm-elf\arm-eabi\lib\gnat\ravenscar-full-nrf52833\adalib\libgnarl.a(s-taskin.o)
 .ARM.extab.text.system__tasking__storage_size
                0x000000000000c7ec        0x0 C:\gnat\2021-arm-elf\arm-eabi\lib\gnat\ravenscar-full-nrf52833\adalib\libgnarl.a(s-taskin.o)
 .ARM.extab.text.system__bb__protection__enter_kernel
                0x000000000000c7ec        0x0 C:\gnat\2021-arm-elf\arm-eabi\lib\gnat\ravenscar-full-nrf52833\adalib\libgnarl.a(s-bbprot.o)
 .ARM.extab.text.system__bb__protection__leave_kernel
                0x000000000000c7ec        0x0 C:\gnat\2021-arm-elf\arm-eabi\lib\gnat\ravenscar-full-nrf52833\adalib\libgnarl.a(s-bbprot.o)
 .ARM.extab.text.system__bb__threads__thread_descriptorIP
                0x000000000000c7ec        0x0 C:\gnat\2021-arm-elf\arm-eabi\lib\gnat\ravenscar-full-nrf52833\adalib\libgnarl.a(s-bbthre.o)
 .ARM.extab.text.system__bb__threads__get_affinity
                0x000000000000c7ec        0x0 C:\gnat\2021-arm-elf\arm-eabi\lib\gnat\ravenscar-full-nrf52833\adalib\libgnarl.a(s-bbthre.o)
 .ARM.extab.text.system__bb__threads__get_cpu
                0x000000000000c7ec        0x0 C:\gnat\2021-arm-elf\arm-eabi\lib\gnat\ravenscar-full-nrf52833\adalib\libgnarl.a(s-bbthre.o)
 .ARM.extab.text.system__bb__threads__get_atcb
                0x000000000000c7ec        0x0 C:\gnat\2021-arm-elf\arm-eabi\lib\gnat\ravenscar-full-nrf52833\adalib\libgnarl.a(s-bbthre.o)
 .ARM.extab.text.system__bb__threads__get_priority
                0x000000000000c7ec        0x0 C:\gnat\2021-arm-elf\arm-eabi\lib\gnat\ravenscar-full-nrf52833\adalib\libgnarl.a(s-bbthre.o)
 .ARM.extab.text.system__bb__threads__initialize
                0x000000000000c7ec        0x0 C:\gnat\2021-arm-elf\arm-eabi\lib\gnat\ravenscar-full-nrf52833\adalib\libgnarl.a(s-bbthre.o)
 .ARM.extab.text.system__bb__threads__initialize_slave
                0x000000000000c7ec        0x0 C:\gnat\2021-arm-elf\arm-eabi\lib\gnat\ravenscar-full-nrf52833\adalib\libgnarl.a(s-bbthre.o)
 .ARM.extab.text.system__bb__threads__set_atcb
                0x000000000000c7ec        0x0 C:\gnat\2021-arm-elf\arm-eabi\lib\gnat\ravenscar-full-nrf52833\adalib\libgnarl.a(s-bbthre.o)
 .ARM.extab.text.system__bb__threads__set_priority
                0x000000000000c7ec        0xc C:\gnat\2021-arm-elf\arm-eabi\lib\gnat\ravenscar-full-nrf52833\adalib\libgnarl.a(s-bbthre.o)
 .ARM.extab.text.system__bb__threads__sleep
                0x000000000000c7f8        0x0 C:\gnat\2021-arm-elf\arm-eabi\lib\gnat\ravenscar-full-nrf52833\adalib\libgnarl.a(s-bbthre.o)
 .ARM.extab.text.system__bb__threads__thread_create
                0x000000000000c7f8        0x0 C:\gnat\2021-arm-elf\arm-eabi\lib\gnat\ravenscar-full-nrf52833\adalib\libgnarl.a(s-bbthre.o)
 .ARM.extab.text.system__bb__threads__thread_self
                0x000000000000c7f8        0x0 C:\gnat\2021-arm-elf\arm-eabi\lib\gnat\ravenscar-full-nrf52833\adalib\libgnarl.a(s-bbthre.o)
 .ARM.extab.text.system__bb__threads__wakeup
                0x000000000000c7f8        0x0 C:\gnat\2021-arm-elf\arm-eabi\lib\gnat\ravenscar-full-nrf52833\adalib\libgnarl.a(s-bbthre.o)
 .ARM.extab.text.system__task_primitives__operations__Tidle_stacksBIP
                0x000000000000c7f8        0x0 C:\gnat\2021-arm-elf\arm-eabi\lib\gnat\ravenscar-full-nrf52833\adalib\libgnarl.a(s-taprop.o)
 .ARM.extab.text.system__task_primitives__operations__Tidle_stacks_tableBIP
                0x000000000000c7f8        0x0 C:\gnat\2021-arm-elf\arm-eabi\lib\gnat\ravenscar-full-nrf52833\adalib\libgnarl.a(s-taprop.o)
 .ARM.extab.text.system__task_primitives__operations__Tidle_tasksBIP
                0x000000000000c7f8        0x0 C:\gnat\2021-arm-elf\arm-eabi\lib\gnat\ravenscar-full-nrf52833\adalib\libgnarl.a(s-taprop.o)
 .ARM.extab.text.system__task_primitives__operations__self
                0x000000000000c7f8        0x0 C:\gnat\2021-arm-elf\arm-eabi\lib\gnat\ravenscar-full-nrf52833\adalib\libgnarl.a(s-taprop.o)
 .ARM.extab.text.system__task_primitives__operations__sleep
                0x000000000000c7f8        0x0 C:\gnat\2021-arm-elf\arm-eabi\lib\gnat\ravenscar-full-nrf52833\adalib\libgnarl.a(s-taprop.o)
 .ARM.extab.text.system__task_primitives__operations__delay_until
                0x000000000000c7f8        0x0 C:\gnat\2021-arm-elf\arm-eabi\lib\gnat\ravenscar-full-nrf52833\adalib\libgnarl.a(s-taprop.o)
 .ARM.extab.text.system__task_primitives__operations__monotonic_clock
                0x000000000000c7f8        0x0 C:\gnat\2021-arm-elf\arm-eabi\lib\gnat\ravenscar-full-nrf52833\adalib\libgnarl.a(s-taprop.o)
 .ARM.extab.text.system__task_primitives__operations__wakeup
                0x000000000000c7f8        0x0 C:\gnat\2021-arm-elf\arm-eabi\lib\gnat\ravenscar-full-nrf52833\adalib\libgnarl.a(s-taprop.o)
 .ARM.extab.text.system__task_primitives__operations__set_priority
                0x000000000000c7f8        0xc C:\gnat\2021-arm-elf\arm-eabi\lib\gnat\ravenscar-full-nrf52833\adalib\libgnarl.a(s-taprop.o)
 .ARM.extab.text.system__task_primitives__operations__get_priority
                0x000000000000c804        0x0 C:\gnat\2021-arm-elf\arm-eabi\lib\gnat\ravenscar-full-nrf52833\adalib\libgnarl.a(s-taprop.o)
 .ARM.extab.text.system__task_primitives__operations__get_affinity
                0x000000000000c804        0x0 C:\gnat\2021-arm-elf\arm-eabi\lib\gnat\ravenscar-full-nrf52833\adalib\libgnarl.a(s-taprop.o)
 .ARM.extab.text.system__task_primitives__operations__get_cpu
                0x000000000000c804        0x0 C:\gnat\2021-arm-elf\arm-eabi\lib\gnat\ravenscar-full-nrf52833\adalib\libgnarl.a(s-taprop.o)
 .ARM.extab.text.system__task_primitives__operations__get_thread_id
                0x000000000000c804        0x0 C:\gnat\2021-arm-elf\arm-eabi\lib\gnat\ravenscar-full-nrf52833\adalib\libgnarl.a(s-taprop.o)
 .ARM.extab.text.system__task_primitives__operations__enter_task
                0x000000000000c804        0xc C:\gnat\2021-arm-elf\arm-eabi\lib\gnat\ravenscar-full-nrf52833\adalib\libgnarl.a(s-taprop.o)
 .ARM.extab.text.system__task_primitives__operations__idle
                0x000000000000c810        0xc C:\gnat\2021-arm-elf\arm-eabi\lib\gnat\ravenscar-full-nrf52833\adalib\libgnarl.a(s-taprop.o)
 .ARM.extab.text.system__task_primitives__operations__initialize_tcb
                0x000000000000c81c        0x0 C:\gnat\2021-arm-elf\arm-eabi\lib\gnat\ravenscar-full-nrf52833\adalib\libgnarl.a(s-taprop.o)
 .ARM.extab.text.system__task_primitives__operations__create_task
                0x000000000000c81c        0x0 C:\gnat\2021-arm-elf\arm-eabi\lib\gnat\ravenscar-full-nrf52833\adalib\libgnarl.a(s-taprop.o)
 .ARM.extab.text.system__task_primitives__operations__initialize_idle
                0x000000000000c81c        0x0 C:\gnat\2021-arm-elf\arm-eabi\lib\gnat\ravenscar-full-nrf52833\adalib\libgnarl.a(s-taprop.o)
 .ARM.extab.text.__gnat_initialize_slave
                0x000000000000c81c        0x0 C:\gnat\2021-arm-elf\arm-eabi\lib\gnat\ravenscar-full-nrf52833\adalib\libgnarl.a(s-taprop.o)
 .ARM.extab.text.system__task_primitives__operations__initialize
                0x000000000000c81c        0x0 C:\gnat\2021-arm-elf\arm-eabi\lib\gnat\ravenscar-full-nrf52833\adalib\libgnarl.a(s-taprop.o)
 .ARM.extab.text.system__task_primitives__operations__is_task_context
                0x000000000000c81c        0xc C:\gnat\2021-arm-elf\arm-eabi\lib\gnat\ravenscar-full-nrf52833\adalib\libgnarl.a(s-taprop.o)
 .ARM.extab.text.ada__exceptions__exception_occurrenceIP
                0x000000000000c828        0x0 C:\gnat\2021-arm-elf\arm-eabi\lib\gnat\ravenscar-full-nrf52833\adalib\libgnat.a(a-except.o)
 .ARM.extab.text.ada__exceptions__exception_data__append_info_addressXn
                0x000000000000c828        0x0 C:\gnat\2021-arm-elf\arm-eabi\lib\gnat\ravenscar-full-nrf52833\adalib\libgnat.a(a-except.o)
 .ARM.extab.text.ada__exceptions__exception_data__append_info_basic_exception_informationXn
                0x000000000000c828        0x0 C:\gnat\2021-arm-elf\arm-eabi\lib\gnat\ravenscar-full-nrf52833\adalib\libgnat.a(a-except.o)
 .ARM.extab.text.ada__exceptions__exception_data__append_info_characterXn
                0x000000000000c828        0x0 C:\gnat\2021-arm-elf\arm-eabi\lib\gnat\ravenscar-full-nrf52833\adalib\libgnat.a(a-except.o)
 .ARM.extab.text.__gnat_append_info_e_msg
                0x000000000000c828        0x0 C:\gnat\2021-arm-elf\arm-eabi\lib\gnat\ravenscar-full-nrf52833\adalib\libgnat.a(a-except.o)
 .ARM.extab.text.ada__exceptions__exception_data__append_info_exception_nameXn
                0x000000000000c828        0x0 C:\gnat\2021-arm-elf\arm-eabi\lib\gnat\ravenscar-full-nrf52833\adalib\libgnat.a(a-except.o)
 .ARM.extab.text.ada__exceptions__exception_data__append_info_exception_name__2Xn
                0x000000000000c828        0xc C:\gnat\2021-arm-elf\arm-eabi\lib\gnat\ravenscar-full-nrf52833\adalib\libgnat.a(a-except.o)
 .ARM.extab.text.ada__exceptions__exception_data__exception_info_maxlengthXn
                0x000000000000c834        0x0 C:\gnat\2021-arm-elf\arm-eabi\lib\gnat\ravenscar-full-nrf52833\adalib\libgnat.a(a-except.o)
 .ARM.extab.text.ada__exceptions__exception_data__append_info_natXn
                0x000000000000c834        0x0 C:\gnat\2021-arm-elf\arm-eabi\lib\gnat\ravenscar-full-nrf52833\adalib\libgnat.a(a-except.o)
 .ARM.extab.text.ada__exceptions__exception_data__append_info_nlXn
                0x000000000000c834        0xc C:\gnat\2021-arm-elf\arm-eabi\lib\gnat\ravenscar-full-nrf52833\adalib\libgnat.a(a-except.o)
 .ARM.extab.text.ada__exceptions__exception_data__append_info_stringXn
                0x000000000000c840        0x0 C:\gnat\2021-arm-elf\arm-eabi\lib\gnat\ravenscar-full-nrf52833\adalib\libgnat.a(a-except.o)
 .ARM.extab.text.__gnat_append_info_u_e_info
                0x000000000000c840        0x0 C:\gnat\2021-arm-elf\arm-eabi\lib\gnat\ravenscar-full-nrf52833\adalib\libgnat.a(a-except.o)
 .ARM.extab.text.ada__exceptions__exception_data__append_info_untailored_exception_tracebackXn
                0x000000000000c840        0x0 C:\gnat\2021-arm-elf\arm-eabi\lib\gnat\ravenscar-full-nrf52833\adalib\libgnat.a(a-except.o)
 .ARM.extab.text.ada__exceptions__exception_data__basic_exception_info_maxlengthXn
                0x000000000000c840        0x0 C:\gnat\2021-arm-elf\arm-eabi\lib\gnat\ravenscar-full-nrf52833\adalib\libgnat.a(a-except.o)
 .ARM.extab.text.ada__exceptions__exception_data__exception_informationXn
                0x000000000000c840        0x0 C:\gnat\2021-arm-elf\arm-eabi\lib\gnat\ravenscar-full-nrf52833\adalib\libgnat.a(a-except.o)
 .ARM.extab.text.__gnat_exception_msg_len
                0x000000000000c840        0x0 C:\gnat\2021-arm-elf\arm-eabi\lib\gnat\ravenscar-full-nrf52833\adalib\libgnat.a(a-except.o)
 .ARM.extab.text.ada__exceptions__exception_data__exception_name_lengthXn
                0x000000000000c840        0x0 C:\gnat\2021-arm-elf\arm-eabi\lib\gnat\ravenscar-full-nrf52833\adalib\libgnat.a(a-except.o)
 .ARM.extab.text.ada__exceptions__exception_data__exception_name_length__2Xn
                0x000000000000c840        0x0 C:\gnat\2021-arm-elf\arm-eabi\lib\gnat\ravenscar-full-nrf52833\adalib\libgnat.a(a-except.o)
 .ARM.extab.text.ada__exceptions__exception_data__untailored_exception_tracebackXn
                0x000000000000c840        0x0 C:\gnat\2021-arm-elf\arm-eabi\lib\gnat\ravenscar-full-nrf52833\adalib\libgnat.a(a-except.o)
 .ARM.extab.text.ada__exceptions__exception_data__untailored_exception_informationXn
                0x000000000000c840        0x0 C:\gnat\2021-arm-elf\arm-eabi\lib\gnat\ravenscar-full-nrf52833\adalib\libgnat.a(a-except.o)
 .ARM.extab.text.ada__exceptions__exception_data__set_exception_c_msg__append_number.0
                0x000000000000c840        0x0 C:\gnat\2021-arm-elf\arm-eabi\lib\gnat\ravenscar-full-nrf52833\adalib\libgnat.a(a-except.o)
 .ARM.extab.text.ada__exceptions__exception_data__set_exception_c_msgXn
                0x000000000000c840        0x0 C:\gnat\2021-arm-elf\arm-eabi\lib\gnat\ravenscar-full-nrf52833\adalib\libgnat.a(a-except.o)
 .ARM.extab.text.ada__exceptions__exception_data__set_exception_msgXn
                0x000000000000c840        0x0 C:\gnat\2021-arm-elf\arm-eabi\lib\gnat\ravenscar-full-nrf52833\adalib\libgnat.a(a-except.o)
 .ARM.extab.text.ada__exceptions__exception_data__tailored_exception_tracebackXn
                0x000000000000c840        0x0 C:\gnat\2021-arm-elf\arm-eabi\lib\gnat\ravenscar-full-nrf52833\adalib\libgnat.a(a-except.o)
 .ARM.extab.text.ada__exceptions__exception_data__untailored_exception_traceback_maxlengthXn
                0x000000000000c840        0x0 C:\gnat\2021-arm-elf\arm-eabi\lib\gnat\ravenscar-full-nrf52833\adalib\libgnat.a(a-except.o)
 .ARM.extab.text.ada__exceptions__exception_propagation__allocate_occurrenceXn
                0x000000000000c840        0xc C:\gnat\2021-arm-elf\arm-eabi\lib\gnat\ravenscar-full-nrf52833\adalib\libgnat.a(a-except.o)
 .ARM.extab.text.ada__exceptions__exception_propagation__gnat_gcc_exception_cleanupXn
                0x000000000000c84c        0xc C:\gnat\2021-arm-elf\arm-eabi\lib\gnat\ravenscar-full-nrf52833\adalib\libgnat.a(a-except.o)
 .ARM.extab.text.ada__exceptions__exception_propagation__set_foreign_occurrenceXn
                0x000000000000c858        0x0 C:\gnat\2021-arm-elf\arm-eabi\lib\gnat\ravenscar-full-nrf52833\adalib\libgnat.a(a-except.o)
 .ARM.extab.text.__gnat_setup_current_excep
                0x000000000000c858        0x0 C:\gnat\2021-arm-elf\arm-eabi\lib\gnat\ravenscar-full-nrf52833\adalib\libgnat.a(a-except.o)
 .ARM.extab.text.__gnat_begin_handler_v1
                0x000000000000c858        0x0 C:\gnat\2021-arm-elf\arm-eabi\lib\gnat\ravenscar-full-nrf52833\adalib\libgnat.a(a-except.o)
 .ARM.extab.text.__gnat_end_handler_v1
                0x000000000000c858        0x0 C:\gnat\2021-arm-elf\arm-eabi\lib\gnat\ravenscar-full-nrf52833\adalib\libgnat.a(a-except.o)
 .ARM.extab.text.__gnat_claimed_cleanup
                0x000000000000c858        0x0 C:\gnat\2021-arm-elf\arm-eabi\lib\gnat\ravenscar-full-nrf52833\adalib\libgnat.a(a-except.o)
 .ARM.extab.text.__gnat_begin_handler
                0x000000000000c858        0x0 C:\gnat\2021-arm-elf\arm-eabi\lib\gnat\ravenscar-full-nrf52833\adalib\libgnat.a(a-except.o)
 .ARM.extab.text.__gnat_end_handler
                0x000000000000c858        0xc C:\gnat\2021-arm-elf\arm-eabi\lib\gnat\ravenscar-full-nrf52833\adalib\libgnat.a(a-except.o)
 .ARM.extab.text.__gnat_reraise_zcx
                0x000000000000c864        0xc C:\gnat\2021-arm-elf\arm-eabi\lib\gnat\ravenscar-full-nrf52833\adalib\libgnat.a(a-except.o)
 .ARM.extab.text.ada__exceptions__exception_propagation__propagate_gcc_exceptionXn
                0x000000000000c870        0x0 C:\gnat\2021-arm-elf\arm-eabi\lib\gnat\ravenscar-full-nrf52833\adalib\libgnat.a(a-except.o)
 .ARM.extab.text.ada__exceptions__exception_propagation__propagate_exceptionXn
                0x000000000000c870        0xc C:\gnat\2021-arm-elf\arm-eabi\lib\gnat\ravenscar-full-nrf52833\adalib\libgnat.a(a-except.o)
 .ARM.extab.text.__gnat_set_exception_parameter
                0x000000000000c87c        0x0 C:\gnat\2021-arm-elf\arm-eabi\lib\gnat\ravenscar-full-nrf52833\adalib\libgnat.a(a-except.o)
 .ARM.extab.text.__gnat_unhandled_except_handler
                0x000000000000c87c        0xc C:\gnat\2021-arm-elf\arm-eabi\lib\gnat\ravenscar-full-nrf52833\adalib\libgnat.a(a-except.o)
 .ARM.extab.text.__gnat_eid_for
                0x000000000000c888        0x0 C:\gnat\2021-arm-elf\arm-eabi\lib\gnat\ravenscar-full-nrf52833\adalib\libgnat.a(a-except.o)
 .ARM.extab.text.__gnat_foreign_data_for
                0x000000000000c888        0x0 C:\gnat\2021-arm-elf\arm-eabi\lib\gnat\ravenscar-full-nrf52833\adalib\libgnat.a(a-except.o)
 .ARM.extab.text.__gnat_is_handled_by_others
                0x000000000000c888        0x0 C:\gnat\2021-arm-elf\arm-eabi\lib\gnat\ravenscar-full-nrf52833\adalib\libgnat.a(a-except.o)
 .ARM.extab.text.__gnat_language_for
                0x000000000000c888        0x0 C:\gnat\2021-arm-elf\arm-eabi\lib\gnat\ravenscar-full-nrf52833\adalib\libgnat.a(a-except.o)
 .ARM.extab.text.ada__exceptions__exception_traces__notify_exception__B295b___finalizerXn.1
                0x000000000000c888        0xc C:\gnat\2021-arm-elf\arm-eabi\lib\gnat\ravenscar-full-nrf52833\adalib\libgnat.a(a-except.o)
 .ARM.extab.text.ada__exceptions__exception_traces__notify_exceptionXn
                0x000000000000c894       0x1c C:\gnat\2021-arm-elf\arm-eabi\lib\gnat\ravenscar-full-nrf52833\adalib\libgnat.a(a-except.o)
 .ARM.extab.text.__gnat_notify_handled_exception
                0x000000000000c8b0        0xc C:\gnat\2021-arm-elf\arm-eabi\lib\gnat\ravenscar-full-nrf52833\adalib\libgnat.a(a-except.o)
 .ARM.extab.text.__gnat_notify_unhandled_exception
                0x000000000000c8bc        0x0 C:\gnat\2021-arm-elf\arm-eabi\lib\gnat\ravenscar-full-nrf52833\adalib\libgnat.a(a-except.o)
 .ARM.extab.text.ada__exceptions__exception_traces__unhandled_exception_terminateXn
                0x000000000000c8bc        0x0 C:\gnat\2021-arm-elf\arm-eabi\lib\gnat\ravenscar-full-nrf52833\adalib\libgnat.a(a-except.o)
 .ARM.extab.text.ada__exceptions__stream_attributes__eid_to_stringXn
                0x000000000000c8bc        0x0 C:\gnat\2021-arm-elf\arm-eabi\lib\gnat\ravenscar-full-nrf52833\adalib\libgnat.a(a-except.o)
 .ARM.extab.text.ada__exceptions__stream_attributes__eo_to_stringXn
                0x000000000000c8bc        0x0 C:\gnat\2021-arm-elf\arm-eabi\lib\gnat\ravenscar-full-nrf52833\adalib\libgnat.a(a-except.o)
 .ARM.extab.text.ada__exceptions__stream_attributes__string_to_eidXn
                0x000000000000c8bc        0xc C:\gnat\2021-arm-elf\arm-eabi\lib\gnat\ravenscar-full-nrf52833\adalib\libgnat.a(a-except.o)
 .ARM.extab.text.ada__exceptions__stream_attributes__string_to_eo__bad_eo.3
                0x000000000000c8c8        0xc C:\gnat\2021-arm-elf\arm-eabi\lib\gnat\ravenscar-full-nrf52833\adalib\libgnat.a(a-except.o)
 .ARM.extab.text.ada__exceptions__stream_attributes__string_to_eoXn
                0x000000000000c8d4        0x0 C:\gnat\2021-arm-elf\arm-eabi\lib\gnat\ravenscar-full-nrf52833\adalib\libgnat.a(a-except.o)
 .ARM.extab.text.ada__exceptions__stream_attributes__string_to_eo__next_string.2
                0x000000000000c8d4        0x0 C:\gnat\2021-arm-elf\arm-eabi\lib\gnat\ravenscar-full-nrf52833\adalib\libgnat.a(a-except.o)
 .ARM.extab.text.ada__exceptions__code_address_for_aaa
                0x000000000000c8d4        0x0 C:\gnat\2021-arm-elf\arm-eabi\lib\gnat\ravenscar-full-nrf52833\adalib\libgnat.a(a-except.o)
 .ARM.extab.text.ada__exceptions__call_chain
                0x000000000000c8d4        0x0 C:\gnat\2021-arm-elf\arm-eabi\lib\gnat\ravenscar-full-nrf52833\adalib\libgnat.a(a-except.o)
 .ARM.extab.text.ada__exceptions__eid_to_string
                0x000000000000c8d4        0x0 C:\gnat\2021-arm-elf\arm-eabi\lib\gnat\ravenscar-full-nrf52833\adalib\libgnat.a(a-except.o)
 .ARM.extab.text.ada__exceptions__eo_to_string
                0x000000000000c8d4        0x0 C:\gnat\2021-arm-elf\arm-eabi\lib\gnat\ravenscar-full-nrf52833\adalib\libgnat.a(a-except.o)
 .ARM.extab.text.ada__exceptions__exception_identity
                0x000000000000c8d4        0x0 C:\gnat\2021-arm-elf\arm-eabi\lib\gnat\ravenscar-full-nrf52833\adalib\libgnat.a(a-except.o)
 .ARM.extab.text.ada__exceptions__exception_information
                0x000000000000c8d4        0x0 C:\gnat\2021-arm-elf\arm-eabi\lib\gnat\ravenscar-full-nrf52833\adalib\libgnat.a(a-except.o)
 .ARM.extab.text.ada__exceptions__exception_message
                0x000000000000c8d4        0x0 C:\gnat\2021-arm-elf\arm-eabi\lib\gnat\ravenscar-full-nrf52833\adalib\libgnat.a(a-except.o)
 .ARM.extab.text.ada__exceptions__exception_name
                0x000000000000c8d4        0x0 C:\gnat\2021-arm-elf\arm-eabi\lib\gnat\ravenscar-full-nrf52833\adalib\libgnat.a(a-except.o)
 .ARM.extab.text.ada__exceptions__exception_name__2
                0x000000000000c8d4        0x0 C:\gnat\2021-arm-elf\arm-eabi\lib\gnat\ravenscar-full-nrf52833\adalib\libgnat.a(a-except.o)
 .ARM.extab.text.ada__exceptions__exception_name_simple
                0x000000000000c8d4        0x0 C:\gnat\2021-arm-elf\arm-eabi\lib\gnat\ravenscar-full-nrf52833\adalib\libgnat.a(a-except.o)
 .ARM.extab.text.__gnat_get_exception_machine_occurrence
                0x000000000000c8d4        0x0 C:\gnat\2021-arm-elf\arm-eabi\lib\gnat\ravenscar-full-nrf52833\adalib\libgnat.a(a-except.o)
 .ARM.extab.text.ada__exceptions__image
                0x000000000000c8d4        0x0 C:\gnat\2021-arm-elf\arm-eabi\lib\gnat\ravenscar-full-nrf52833\adalib\libgnat.a(a-except.o)
 .ARM.extab.text.__gnat_raise_constraint_error
                0x000000000000c8d4        0x0 C:\gnat\2021-arm-elf\arm-eabi\lib\gnat\ravenscar-full-nrf52833\adalib\libgnat.a(a-except.o)
 .ARM.extab.text.__gnat_raise_constraint_error_msg
                0x000000000000c8d4        0x0 C:\gnat\2021-arm-elf\arm-eabi\lib\gnat\ravenscar-full-nrf52833\adalib\libgnat.a(a-except.o)
 .ARM.extab.text.ada__exceptions__complete_occurrence
                0x000000000000c8d4        0x0 C:\gnat\2021-arm-elf\arm-eabi\lib\gnat\ravenscar-full-nrf52833\adalib\libgnat.a(a-except.o)
 .ARM.extab.text.ada__exceptions__complete_and_propagate_occurrence
                0x000000000000c8d4        0x0 C:\gnat\2021-arm-elf\arm-eabi\lib\gnat\ravenscar-full-nrf52833\adalib\libgnat.a(a-except.o)
 .ARM.extab.text.ada__exceptions__raise_exception
                0x000000000000c8d4        0xc C:\gnat\2021-arm-elf\arm-eabi\lib\gnat\ravenscar-full-nrf52833\adalib\libgnat.a(a-except.o)
 .ARM.extab.text.__gnat_raise_exception
                0x000000000000c8e0        0x0 C:\gnat\2021-arm-elf\arm-eabi\lib\gnat\ravenscar-full-nrf52833\adalib\libgnat.a(a-except.o)
 .ARM.extab.text.ada__exceptions__raise_exception_no_defer
                0x000000000000c8e0        0x0 C:\gnat\2021-arm-elf\arm-eabi\lib\gnat\ravenscar-full-nrf52833\adalib\libgnat.a(a-except.o)
 .ARM.extab.text.ada__exceptions__raise_from_controlled_operation___finalizer.5
                0x000000000000c8e0        0xc C:\gnat\2021-arm-elf\arm-eabi\lib\gnat\ravenscar-full-nrf52833\adalib\libgnat.a(a-except.o)
 .ARM.extab.text.__gnat_raise_from_controlled_operation
                0x000000000000c8ec       0x28 C:\gnat\2021-arm-elf\arm-eabi\lib\gnat\ravenscar-full-nrf52833\adalib\libgnat.a(a-except.o)
 .ARM.extab.text.ada__exceptions__raise_from_controlled_operation__B_3___finalizer.4
                0x000000000000c914        0xc C:\gnat\2021-arm-elf\arm-eabi\lib\gnat\ravenscar-full-nrf52833\adalib\libgnat.a(a-except.o)
 .ARM.extab.text.ada__exceptions__create_occurrence_from_signal_handler
                0x000000000000c920        0x0 C:\gnat\2021-arm-elf\arm-eabi\lib\gnat\ravenscar-full-nrf52833\adalib\libgnat.a(a-except.o)
 .ARM.extab.text.__gnat_create_machine_occurrence_from_signal_handler
                0x000000000000c920        0xc C:\gnat\2021-arm-elf\arm-eabi\lib\gnat\ravenscar-full-nrf52833\adalib\libgnat.a(a-except.o)
 .ARM.extab.text.__gnat_raise_from_signal_handler
                0x000000000000c92c        0xc C:\gnat\2021-arm-elf\arm-eabi\lib\gnat\ravenscar-full-nrf52833\adalib\libgnat.a(a-except.o)
 .ARM.extab.text.__gnat_raise_program_error
                0x000000000000c938        0x0 C:\gnat\2021-arm-elf\arm-eabi\lib\gnat\ravenscar-full-nrf52833\adalib\libgnat.a(a-except.o)
 .ARM.extab.text.__gnat_raise_program_error_msg
                0x000000000000c938        0x0 C:\gnat\2021-arm-elf\arm-eabi\lib\gnat\ravenscar-full-nrf52833\adalib\libgnat.a(a-except.o)
 .ARM.extab.text.__gnat_raise_storage_error
                0x000000000000c938        0x0 C:\gnat\2021-arm-elf\arm-eabi\lib\gnat\ravenscar-full-nrf52833\adalib\libgnat.a(a-except.o)
 .ARM.extab.text.__gnat_raise_storage_error_msg
                0x000000000000c938        0x0 C:\gnat\2021-arm-elf\arm-eabi\lib\gnat\ravenscar-full-nrf52833\adalib\libgnat.a(a-except.o)
 .ARM.extab.text.ada__exceptions__raise_with_location_and_msg
                0x000000000000c938        0x0 C:\gnat\2021-arm-elf\arm-eabi\lib\gnat\ravenscar-full-nrf52833\adalib\libgnat.a(a-except.o)
 .ARM.extab.text.__gnat_raise_with_msg
                0x000000000000c938        0x0 C:\gnat\2021-arm-elf\arm-eabi\lib\gnat\ravenscar-full-nrf52833\adalib\libgnat.a(a-except.o)
 .ARM.extab.text.__gnat_rcheck_CE_Access_Check
                0x000000000000c938        0xc C:\gnat\2021-arm-elf\arm-eabi\lib\gnat\ravenscar-full-nrf52833\adalib\libgnat.a(a-except.o)
 .ARM.extab.text.__gnat_rcheck_CE_Null_Access_Parameter
                0x000000000000c944        0xc C:\gnat\2021-arm-elf\arm-eabi\lib\gnat\ravenscar-full-nrf52833\adalib\libgnat.a(a-except.o)
 .ARM.extab.text.__gnat_rcheck_CE_Discriminant_Check
                0x000000000000c950        0xc C:\gnat\2021-arm-elf\arm-eabi\lib\gnat\ravenscar-full-nrf52833\adalib\libgnat.a(a-except.o)
 .ARM.extab.text.__gnat_rcheck_CE_Divide_By_Zero
                0x000000000000c95c        0xc C:\gnat\2021-arm-elf\arm-eabi\lib\gnat\ravenscar-full-nrf52833\adalib\libgnat.a(a-except.o)
 .ARM.extab.text.__gnat_rcheck_CE_Explicit_Raise
                0x000000000000c968        0xc C:\gnat\2021-arm-elf\arm-eabi\lib\gnat\ravenscar-full-nrf52833\adalib\libgnat.a(a-except.o)
 .ARM.extab.text.__gnat_rcheck_CE_Index_Check
                0x000000000000c974        0xc C:\gnat\2021-arm-elf\arm-eabi\lib\gnat\ravenscar-full-nrf52833\adalib\libgnat.a(a-except.o)
 .ARM.extab.text.__gnat_rcheck_CE_Invalid_Data
                0x000000000000c980        0xc C:\gnat\2021-arm-elf\arm-eabi\lib\gnat\ravenscar-full-nrf52833\adalib\libgnat.a(a-except.o)
 .ARM.extab.text.__gnat_rcheck_CE_Length_Check
                0x000000000000c98c        0xc C:\gnat\2021-arm-elf\arm-eabi\lib\gnat\ravenscar-full-nrf52833\adalib\libgnat.a(a-except.o)
 .ARM.extab.text.__gnat_rcheck_CE_Null_Exception_Id
                0x000000000000c998        0xc C:\gnat\2021-arm-elf\arm-eabi\lib\gnat\ravenscar-full-nrf52833\adalib\libgnat.a(a-except.o)
 .ARM.extab.text.__gnat_rcheck_CE_Null_Not_Allowed
                0x000000000000c9a4        0xc C:\gnat\2021-arm-elf\arm-eabi\lib\gnat\ravenscar-full-nrf52833\adalib\libgnat.a(a-except.o)
 .ARM.extab.text.__gnat_rcheck_CE_Overflow_Check
                0x000000000000c9b0        0xc C:\gnat\2021-arm-elf\arm-eabi\lib\gnat\ravenscar-full-nrf52833\adalib\libgnat.a(a-except.o)
 .ARM.extab.text.__gnat_rcheck_CE_Partition_Check
                0x000000000000c9bc        0xc C:\gnat\2021-arm-elf\arm-eabi\lib\gnat\ravenscar-full-nrf52833\adalib\libgnat.a(a-except.o)
 .ARM.extab.text.__gnat_rcheck_CE_Range_Check
                0x000000000000c9c8        0xc C:\gnat\2021-arm-elf\arm-eabi\lib\gnat\ravenscar-full-nrf52833\adalib\libgnat.a(a-except.o)
 .ARM.extab.text.__gnat_rcheck_CE_Tag_Check
                0x000000000000c9d4        0xc C:\gnat\2021-arm-elf\arm-eabi\lib\gnat\ravenscar-full-nrf52833\adalib\libgnat.a(a-except.o)
 .ARM.extab.text.__gnat_rcheck_PE_Access_Before_Elaboration
                0x000000000000c9e0        0xc C:\gnat\2021-arm-elf\arm-eabi\lib\gnat\ravenscar-full-nrf52833\adalib\libgnat.a(a-except.o)
 .ARM.extab.text.__gnat_rcheck_PE_Accessibility_Check
                0x000000000000c9ec        0xc C:\gnat\2021-arm-elf\arm-eabi\lib\gnat\ravenscar-full-nrf52833\adalib\libgnat.a(a-except.o)
 .ARM.extab.text.__gnat_rcheck_PE_Address_Of_Intrinsic
                0x000000000000c9f8        0xc C:\gnat\2021-arm-elf\arm-eabi\lib\gnat\ravenscar-full-nrf52833\adalib\libgnat.a(a-except.o)
 .ARM.extab.text.__gnat_rcheck_PE_Aliased_Parameters
                0x000000000000ca04        0xc C:\gnat\2021-arm-elf\arm-eabi\lib\gnat\ravenscar-full-nrf52833\adalib\libgnat.a(a-except.o)
 .ARM.extab.text.__gnat_rcheck_PE_All_Guards_Closed
                0x000000000000ca10        0xc C:\gnat\2021-arm-elf\arm-eabi\lib\gnat\ravenscar-full-nrf52833\adalib\libgnat.a(a-except.o)
 .ARM.extab.text.__gnat_rcheck_PE_Bad_Predicated_Generic_Type
                0x000000000000ca1c        0xc C:\gnat\2021-arm-elf\arm-eabi\lib\gnat\ravenscar-full-nrf52833\adalib\libgnat.a(a-except.o)
 .ARM.extab.text.__gnat_rcheck_PE_Build_In_Place_Mismatch
                0x000000000000ca28        0xc C:\gnat\2021-arm-elf\arm-eabi\lib\gnat\ravenscar-full-nrf52833\adalib\libgnat.a(a-except.o)
 .ARM.extab.text.__gnat_rcheck_PE_Current_Task_In_Entry_Body
                0x000000000000ca34        0xc C:\gnat\2021-arm-elf\arm-eabi\lib\gnat\ravenscar-full-nrf52833\adalib\libgnat.a(a-except.o)
 .ARM.extab.text.__gnat_rcheck_PE_Duplicated_Entry_Address
                0x000000000000ca40        0xc C:\gnat\2021-arm-elf\arm-eabi\lib\gnat\ravenscar-full-nrf52833\adalib\libgnat.a(a-except.o)
 .ARM.extab.text.__gnat_rcheck_PE_Explicit_Raise
                0x000000000000ca4c        0xc C:\gnat\2021-arm-elf\arm-eabi\lib\gnat\ravenscar-full-nrf52833\adalib\libgnat.a(a-except.o)
 .ARM.extab.text.__gnat_rcheck_PE_Implicit_Return
                0x000000000000ca58        0xc C:\gnat\2021-arm-elf\arm-eabi\lib\gnat\ravenscar-full-nrf52833\adalib\libgnat.a(a-except.o)
 .ARM.extab.text.__gnat_rcheck_PE_Misaligned_Address_Value
                0x000000000000ca64        0xc C:\gnat\2021-arm-elf\arm-eabi\lib\gnat\ravenscar-full-nrf52833\adalib\libgnat.a(a-except.o)
 .ARM.extab.text.__gnat_rcheck_PE_Missing_Return
                0x000000000000ca70        0xc C:\gnat\2021-arm-elf\arm-eabi\lib\gnat\ravenscar-full-nrf52833\adalib\libgnat.a(a-except.o)
 .ARM.extab.text.__gnat_rcheck_PE_Non_Transportable_Actual
                0x000000000000ca7c        0xc C:\gnat\2021-arm-elf\arm-eabi\lib\gnat\ravenscar-full-nrf52833\adalib\libgnat.a(a-except.o)
 .ARM.extab.text.__gnat_rcheck_PE_Overlaid_Controlled_Object
                0x000000000000ca88        0xc C:\gnat\2021-arm-elf\arm-eabi\lib\gnat\ravenscar-full-nrf52833\adalib\libgnat.a(a-except.o)
 .ARM.extab.text.__gnat_rcheck_PE_Potentially_Blocking_Operation
                0x000000000000ca94        0xc C:\gnat\2021-arm-elf\arm-eabi\lib\gnat\ravenscar-full-nrf52833\adalib\libgnat.a(a-except.o)
 .ARM.extab.text.__gnat_rcheck_PE_Stream_Operation_Not_Allowed
                0x000000000000caa0        0xc C:\gnat\2021-arm-elf\arm-eabi\lib\gnat\ravenscar-full-nrf52833\adalib\libgnat.a(a-except.o)
 .ARM.extab.text.__gnat_rcheck_PE_Stubbed_Subprogram_Called
                0x000000000000caac        0xc C:\gnat\2021-arm-elf\arm-eabi\lib\gnat\ravenscar-full-nrf52833\adalib\libgnat.a(a-except.o)
 .ARM.extab.text.__gnat_rcheck_PE_Unchecked_Union_Restriction
                0x000000000000cab8        0xc C:\gnat\2021-arm-elf\arm-eabi\lib\gnat\ravenscar-full-nrf52833\adalib\libgnat.a(a-except.o)
 .ARM.extab.text.__gnat_rcheck_SE_Empty_Storage_Pool
                0x000000000000cac4        0xc C:\gnat\2021-arm-elf\arm-eabi\lib\gnat\ravenscar-full-nrf52833\adalib\libgnat.a(a-except.o)
 .ARM.extab.text.__gnat_rcheck_SE_Explicit_Raise
                0x000000000000cad0        0xc C:\gnat\2021-arm-elf\arm-eabi\lib\gnat\ravenscar-full-nrf52833\adalib\libgnat.a(a-except.o)
 .ARM.extab.text.__gnat_rcheck_SE_Infinite_Recursion
                0x000000000000cadc        0xc C:\gnat\2021-arm-elf\arm-eabi\lib\gnat\ravenscar-full-nrf52833\adalib\libgnat.a(a-except.o)
 .ARM.extab.text.__gnat_rcheck_SE_Object_Too_Large
                0x000000000000cae8        0xc C:\gnat\2021-arm-elf\arm-eabi\lib\gnat\ravenscar-full-nrf52833\adalib\libgnat.a(a-except.o)
 .ARM.extab.text.__gnat_rcheck_CE_Access_Check_ext
                0x000000000000caf4        0xc C:\gnat\2021-arm-elf\arm-eabi\lib\gnat\ravenscar-full-nrf52833\adalib\libgnat.a(a-except.o)
 .ARM.extab.text.ada__exceptions__rcheck_ce_index_check_ext___finalizer.6
                0x000000000000cb00        0xc C:\gnat\2021-arm-elf\arm-eabi\lib\gnat\ravenscar-full-nrf52833\adalib\libgnat.a(a-except.o)
 .ARM.extab.text.__gnat_rcheck_CE_Index_Check_ext
                0x000000000000cb0c       0x1b C:\gnat\2021-arm-elf\arm-eabi\lib\gnat\ravenscar-full-nrf52833\adalib\libgnat.a(a-except.o)
 *fill*         0x000000000000cb27        0x1 
 .ARM.extab.text.ada__exceptions__rcheck_ce_invalid_data_ext___finalizer.7
                0x000000000000cb28        0xc C:\gnat\2021-arm-elf\arm-eabi\lib\gnat\ravenscar-full-nrf52833\adalib\libgnat.a(a-except.o)
 .ARM.extab.text.__gnat_rcheck_CE_Invalid_Data_ext
                0x000000000000cb34       0x1b C:\gnat\2021-arm-elf\arm-eabi\lib\gnat\ravenscar-full-nrf52833\adalib\libgnat.a(a-except.o)
 *fill*         0x000000000000cb4f        0x1 
 .ARM.extab.text.ada__exceptions__rcheck_ce_range_check_ext___finalizer.8
                0x000000000000cb50        0xc C:\gnat\2021-arm-elf\arm-eabi\lib\gnat\ravenscar-full-nrf52833\adalib\libgnat.a(a-except.o)
 .ARM.extab.text.__gnat_rcheck_CE_Range_Check_ext
                0x000000000000cb5c       0x1b C:\gnat\2021-arm-elf\arm-eabi\lib\gnat\ravenscar-full-nrf52833\adalib\libgnat.a(a-except.o)
 .ARM.extab.text.__gnat_rcheck_PE_Finalize_Raised_Exception
                0x000000000000cb77        0x0 C:\gnat\2021-arm-elf\arm-eabi\lib\gnat\ravenscar-full-nrf52833\adalib\libgnat.a(a-except.o)
 .ARM.extab.text.__gnat_reraise
                0x000000000000cb77        0x0 C:\gnat\2021-arm-elf\arm-eabi\lib\gnat\ravenscar-full-nrf52833\adalib\libgnat.a(a-except.o)
 *fill*         0x000000000000cb77        0x1 
 .ARM.extab.text.__gnat_reraise_library_exception_if_any
                0x000000000000cb78        0xc C:\gnat\2021-arm-elf\arm-eabi\lib\gnat\ravenscar-full-nrf52833\adalib\libgnat.a(a-except.o)
 .ARM.extab.text.ada__exceptions__reraise_occurrence
                0x000000000000cb84        0xc C:\gnat\2021-arm-elf\arm-eabi\lib\gnat\ravenscar-full-nrf52833\adalib\libgnat.a(a-except.o)
 .ARM.extab.text.ada__exceptions__reraise_occurrence_always
                0x000000000000cb90        0xc C:\gnat\2021-arm-elf\arm-eabi\lib\gnat\ravenscar-full-nrf52833\adalib\libgnat.a(a-except.o)
 .ARM.extab.text.ada__exceptions__reraise_occurrence_no_defer
                0x000000000000cb9c        0x0 C:\gnat\2021-arm-elf\arm-eabi\lib\gnat\ravenscar-full-nrf52833\adalib\libgnat.a(a-except.o)
 .ARM.extab.text.ada__exceptions__save_occurrence
                0x000000000000cb9c        0x0 C:\gnat\2021-arm-elf\arm-eabi\lib\gnat\ravenscar-full-nrf52833\adalib\libgnat.a(a-except.o)
 .ARM.extab.text.ada__exceptions__save_occurrence__2
                0x000000000000cb9c        0x0 C:\gnat\2021-arm-elf\arm-eabi\lib\gnat\ravenscar-full-nrf52833\adalib\libgnat.a(a-except.o)
 .ARM.extab.text.ada__exceptions__string_to_eid
                0x000000000000cb9c        0xc C:\gnat\2021-arm-elf\arm-eabi\lib\gnat\ravenscar-full-nrf52833\adalib\libgnat.a(a-except.o)
 .ARM.extab.text.ada__exceptions__string_to_eo
                0x000000000000cba8        0x0 C:\gnat\2021-arm-elf\arm-eabi\lib\gnat\ravenscar-full-nrf52833\adalib\libgnat.a(a-except.o)
 .ARM.extab.text.__gnat_to_stderr_char
                0x000000000000cba8        0xc C:\gnat\2021-arm-elf\arm-eabi\lib\gnat\ravenscar-full-nrf52833\adalib\libgnat.a(a-except.o)
 .ARM.extab.text.__gnat_to_stderr
                0x000000000000cbb4        0x0 C:\gnat\2021-arm-elf\arm-eabi\lib\gnat\ravenscar-full-nrf52833\adalib\libgnat.a(a-except.o)
 .ARM.extab.text.__gnat_transfer_occurrence
                0x000000000000cbb4        0x0 C:\gnat\2021-arm-elf\arm-eabi\lib\gnat\ravenscar-full-nrf52833\adalib\libgnat.a(a-except.o)
 .ARM.extab.text.ada__exceptions__triggered_by_abort
                0x000000000000cbb4        0xc C:\gnat\2021-arm-elf\arm-eabi\lib\gnat\ravenscar-full-nrf52833\adalib\libgnat.a(a-except.o)
 .ARM.extab.text.ada__exceptions__wide_exception_name
                0x000000000000cbc0        0x0 C:\gnat\2021-arm-elf\arm-eabi\lib\gnat\ravenscar-full-nrf52833\adalib\libgnat.a(a-except.o)
 .ARM.extab.text.ada__exceptions__wide_exception_name__2
                0x000000000000cbc0        0x0 C:\gnat\2021-arm-elf\arm-eabi\lib\gnat\ravenscar-full-nrf52833\adalib\libgnat.a(a-except.o)
 .ARM.extab.text.ada__exceptions__wide_wide_exception_name
                0x000000000000cbc0        0x0 C:\gnat\2021-arm-elf\arm-eabi\lib\gnat\ravenscar-full-nrf52833\adalib\libgnat.a(a-except.o)
 .ARM.extab.text.ada__exceptions__wide_wide_exception_name__2
                0x000000000000cbc0        0x0 C:\gnat\2021-arm-elf\arm-eabi\lib\gnat\ravenscar-full-nrf52833\adalib\libgnat.a(a-except.o)
 .ARM.extab.text.ada__exceptions__code_address_for_zzz
                0x000000000000cbc0        0x0 C:\gnat\2021-arm-elf\arm-eabi\lib\gnat\ravenscar-full-nrf52833\adalib\libgnat.a(a-except.o)
 .ARM.extab.text.ada__exceptions___elabs
                0x000000000000cbc0        0x0 C:\gnat\2021-arm-elf\arm-eabi\lib\gnat\ravenscar-full-nrf52833\adalib\libgnat.a(a-except.o)
 .ARM.extab.text.ada__strings__text_buffers___size
                0x000000000000cbc0        0x0 C:\gnat\2021-arm-elf\arm-eabi\lib\gnat\ravenscar-full-nrf52833\adalib\libgnat.a(a-sttebu.o)
 .ARM.extab.text.ada__strings__text_buffers__root_buffer_typeDF
                0x000000000000cbc0        0x0 C:\gnat\2021-arm-elf\arm-eabi\lib\gnat\ravenscar-full-nrf52833\adalib\libgnat.a(a-sttebu.o)
 .ARM.extab.text.ada__strings__text_buffers__current_indent
                0x000000000000cbc0        0x0 C:\gnat\2021-arm-elf\arm-eabi\lib\gnat\ravenscar-full-nrf52833\adalib\libgnat.a(a-sttebu.o)
 .ARM.extab.text.ada__strings__text_buffers__increase_indent
                0x000000000000cbc0        0x0 C:\gnat\2021-arm-elf\arm-eabi\lib\gnat\ravenscar-full-nrf52833\adalib\libgnat.a(a-sttebu.o)
 .ARM.extab.text.ada__strings__text_buffers__decrease_indent
                0x000000000000cbc0        0x0 C:\gnat\2021-arm-elf\arm-eabi\lib\gnat\ravenscar-full-nrf52833\adalib\libgnat.a(a-sttebu.o)
 .ARM.extab.text.ada__strings__text_buffers__root_buffer_typePI
                0x000000000000cbc0        0xc C:\gnat\2021-arm-elf\arm-eabi\lib\gnat\ravenscar-full-nrf52833\adalib\libgnat.a(a-sttebu.o)
 .ARM.extab.text.ada__strings__text_buffers__root_buffer_typePartial_DIC
                0x000000000000cbcc        0x0 C:\gnat\2021-arm-elf\arm-eabi\lib\gnat\ravenscar-full-nrf52833\adalib\libgnat.a(a-sttebu.o)
 .ARM.extab.text.ada__strings__text_buffers__root_buffer_typeIP
                0x000000000000cbcc        0x0 C:\gnat\2021-arm-elf\arm-eabi\lib\gnat\ravenscar-full-nrf52833\adalib\libgnat.a(a-sttebu.o)
 .ARM.extab.text.ada__strings__text_buffers__root_buffer_typeDIC
                0x000000000000cbcc        0x0 C:\gnat\2021-arm-elf\arm-eabi\lib\gnat\ravenscar-full-nrf52833\adalib\libgnat.a(a-sttebu.o)
 .ARM.extab.text.ada__strings__text_buffers__Troot_buffer_typeCFD
                0x000000000000cbcc        0x0 C:\gnat\2021-arm-elf\arm-eabi\lib\gnat\ravenscar-full-nrf52833\adalib\libgnat.a(a-sttebu.o)
 .ARM.extab.text.ada__strings__text_buffers__increase_indentCL
                0x000000000000cbcc        0x0 C:\gnat\2021-arm-elf\arm-eabi\lib\gnat\ravenscar-full-nrf52833\adalib\libgnat.a(a-sttebu.o)
 .ARM.extab.text.ada__strings__text_buffers__decrease_indentCL
                0x000000000000cbcc        0x0 C:\gnat\2021-arm-elf\arm-eabi\lib\gnat\ravenscar-full-nrf52833\adalib\libgnat.a(a-sttebu.o)
 .ARM.extab.text.ada__strings__text_buffers___elabs
                0x000000000000cbcc        0x0 C:\gnat\2021-arm-elf\arm-eabi\lib\gnat\ravenscar-full-nrf52833\adalib\libgnat.a(a-sttebu.o)
 .ARM.extab.text.ada__tags__htable_subprograms__hashXn
                0x000000000000cbcc        0x0 C:\gnat\2021-arm-elf\arm-eabi\lib\gnat\ravenscar-full-nrf52833\adalib\libgnat.a(a-tags.o)
 .ARM.extab.text.ada__tags__external_tag_htable__getXn
                0x000000000000cbcc        0x0 C:\gnat\2021-arm-elf\arm-eabi\lib\gnat\ravenscar-full-nrf52833\adalib\libgnat.a(a-tags.o)
 .ARM.extab.text.ada__tags__tag_arrayIP
                0x000000000000cbcc        0x0 C:\gnat\2021-arm-elf\arm-eabi\lib\gnat\ravenscar-full-nrf52833\adalib\libgnat.a(a-tags.o)
 .ARM.extab.text.ada__tags__interface_data_elementIP
                0x000000000000cbcc        0x0 C:\gnat\2021-arm-elf\arm-eabi\lib\gnat\ravenscar-full-nrf52833\adalib\libgnat.a(a-tags.o)
 .ARM.extab.text.ada__tags__interfaces_arrayIP
                0x000000000000cbcc        0x0 C:\gnat\2021-arm-elf\arm-eabi\lib\gnat\ravenscar-full-nrf52833\adalib\libgnat.a(a-tags.o)
 .ARM.extab.text.ada__tags__interface_dataIP
                0x000000000000cbcc        0x0 C:\gnat\2021-arm-elf\arm-eabi\lib\gnat\ravenscar-full-nrf52833\adalib\libgnat.a(a-tags.o)
 .ARM.extab.text.ada__tags__prim_op_kindH
                0x000000000000cbcc        0x0 C:\gnat\2021-arm-elf\arm-eabi\lib\gnat\ravenscar-full-nrf52833\adalib\libgnat.a(a-tags.o)
 .ARM.extab.text.ada__tags__select_specific_data_elementIP
                0x000000000000cbcc        0x0 C:\gnat\2021-arm-elf\arm-eabi\lib\gnat\ravenscar-full-nrf52833\adalib\libgnat.a(a-tags.o)
 .ARM.extab.text.ada__tags__select_specific_data_arrayIP
                0x000000000000cbcc        0x0 C:\gnat\2021-arm-elf\arm-eabi\lib\gnat\ravenscar-full-nrf52833\adalib\libgnat.a(a-tags.o)
 .ARM.extab.text.ada__tags__select_specific_dataIP
                0x000000000000cbcc        0x0 C:\gnat\2021-arm-elf\arm-eabi\lib\gnat\ravenscar-full-nrf52833\adalib\libgnat.a(a-tags.o)
 .ARM.extab.text.ada__tags__address_arrayIP
                0x000000000000cbcc        0x0 C:\gnat\2021-arm-elf\arm-eabi\lib\gnat\ravenscar-full-nrf52833\adalib\libgnat.a(a-tags.o)
 .ARM.extab.text.ada__tags__tag_tableIP
                0x000000000000cbcc        0x0 C:\gnat\2021-arm-elf\arm-eabi\lib\gnat\ravenscar-full-nrf52833\adalib\libgnat.a(a-tags.o)
 .ARM.extab.text.ada__tags__type_specific_dataIP
                0x000000000000cbcc        0x0 C:\gnat\2021-arm-elf\arm-eabi\lib\gnat\ravenscar-full-nrf52833\adalib\libgnat.a(a-tags.o)
 .ARM.extab.text.ada__tags__tagged_kindH
                0x000000000000cbcc        0x0 C:\gnat\2021-arm-elf\arm-eabi\lib\gnat\ravenscar-full-nrf52833\adalib\libgnat.a(a-tags.o)
 .ARM.extab.text.ada__tags__dispatch_table_wrapperIP
                0x000000000000cbcc        0x0 C:\gnat\2021-arm-elf\arm-eabi\lib\gnat\ravenscar-full-nrf52833\adalib\libgnat.a(a-tags.o)
 .ARM.extab.text.ada__tags__no_dispatch_table_wrapperIP
                0x000000000000cbcc        0x0 C:\gnat\2021-arm-elf\arm-eabi\lib\gnat\ravenscar-full-nrf52833\adalib\libgnat.a(a-tags.o)
 .ARM.extab.text.ada__tags__object_specific_data_arrayIP
                0x000000000000cbcc        0x0 C:\gnat\2021-arm-elf\arm-eabi\lib\gnat\ravenscar-full-nrf52833\adalib\libgnat.a(a-tags.o)
 .ARM.extab.text.ada__tags__object_specific_dataIP
                0x000000000000cbcc        0x0 C:\gnat\2021-arm-elf\arm-eabi\lib\gnat\ravenscar-full-nrf52833\adalib\libgnat.a(a-tags.o)
 .ARM.extab.text.ada__tags__cw_membership
                0x000000000000cbcc        0x0 C:\gnat\2021-arm-elf\arm-eabi\lib\gnat\ravenscar-full-nrf52833\adalib\libgnat.a(a-tags.o)
 .ARM.extab.text.ada__tags__external_tag_htable__TtableBIPXn
                0x000000000000cbcc        0x0 C:\gnat\2021-arm-elf\arm-eabi\lib\gnat\ravenscar-full-nrf52833\adalib\libgnat.a(a-tags.o)
 .ARM.extab.text.ada__tags__is_abstract
                0x000000000000cbcc        0xc C:\gnat\2021-arm-elf\arm-eabi\lib\gnat\ravenscar-full-nrf52833\adalib\libgnat.a(a-tags.o)
 .ARM.extab.text.ada__tags__base_address
                0x000000000000cbd8        0x0 C:\gnat\2021-arm-elf\arm-eabi\lib\gnat\ravenscar-full-nrf52833\adalib\libgnat.a(a-tags.o)
 .ARM.extab.text.ada__tags__check_tsd
                0x000000000000cbd8        0x0 C:\gnat\2021-arm-elf\arm-eabi\lib\gnat\ravenscar-full-nrf52833\adalib\libgnat.a(a-tags.o)
 .ARM.extab.text.ada__tags__displace
                0x000000000000cbd8        0x0 C:\gnat\2021-arm-elf\arm-eabi\lib\gnat\ravenscar-full-nrf52833\adalib\libgnat.a(a-tags.o)
 .ARM.extab.text.ada__tags__dt
                0x000000000000cbd8        0x0 C:\gnat\2021-arm-elf\arm-eabi\lib\gnat\ravenscar-full-nrf52833\adalib\libgnat.a(a-tags.o)
 .ARM.extab.text.ada__tags__iw_membership__2
                0x000000000000cbd8        0x0 C:\gnat\2021-arm-elf\arm-eabi\lib\gnat\ravenscar-full-nrf52833\adalib\libgnat.a(a-tags.o)
 .ARM.extab.text.ada__tags__iw_membership
                0x000000000000cbd8        0x0 C:\gnat\2021-arm-elf\arm-eabi\lib\gnat\ravenscar-full-nrf52833\adalib\libgnat.a(a-tags.o)
 .ARM.extab.text.ada__tags__expanded_name
                0x000000000000cbd8        0x0 C:\gnat\2021-arm-elf\arm-eabi\lib\gnat\ravenscar-full-nrf52833\adalib\libgnat.a(a-tags.o)
 .ARM.extab.text.ada__tags__external_tag
                0x000000000000cbd8        0x0 C:\gnat\2021-arm-elf\arm-eabi\lib\gnat\ravenscar-full-nrf52833\adalib\libgnat.a(a-tags.o)
 .ARM.extab.text.ada__tags__get_entry_index
                0x000000000000cbd8        0x0 C:\gnat\2021-arm-elf\arm-eabi\lib\gnat\ravenscar-full-nrf52833\adalib\libgnat.a(a-tags.o)
 .ARM.extab.text.ada__tags__get_prim_op_kind
                0x000000000000cbd8        0x0 C:\gnat\2021-arm-elf\arm-eabi\lib\gnat\ravenscar-full-nrf52833\adalib\libgnat.a(a-tags.o)
 .ARM.extab.text.ada__tags__get_offset_index
                0x000000000000cbd8        0x0 C:\gnat\2021-arm-elf\arm-eabi\lib\gnat\ravenscar-full-nrf52833\adalib\libgnat.a(a-tags.o)
 .ARM.extab.text.ada__tags__get_tagged_kind
                0x000000000000cbd8        0x0 C:\gnat\2021-arm-elf\arm-eabi\lib\gnat\ravenscar-full-nrf52833\adalib\libgnat.a(a-tags.o)
 .ARM.extab.text.ada__tags__interface_ancestor_tags
                0x000000000000cbd8        0x0 C:\gnat\2021-arm-elf\arm-eabi\lib\gnat\ravenscar-full-nrf52833\adalib\libgnat.a(a-tags.o)
 .ARM.extab.text.ada__tags__internal_tag
                0x000000000000cbd8        0x0 C:\gnat\2021-arm-elf\arm-eabi\lib\gnat\ravenscar-full-nrf52833\adalib\libgnat.a(a-tags.o)
 .ARM.extab.text.ada__tags__descendant_tag
                0x000000000000cbd8        0x0 C:\gnat\2021-arm-elf\arm-eabi\lib\gnat\ravenscar-full-nrf52833\adalib\libgnat.a(a-tags.o)
 .ARM.extab.text.ada__tags__is_descendant_at_same_level
                0x000000000000cbd8        0x0 C:\gnat\2021-arm-elf\arm-eabi\lib\gnat\ravenscar-full-nrf52833\adalib\libgnat.a(a-tags.o)
 .ARM.extab.text.ada__tags__length
                0x000000000000cbd8        0x0 C:\gnat\2021-arm-elf\arm-eabi\lib\gnat\ravenscar-full-nrf52833\adalib\libgnat.a(a-tags.o)
 .ARM.extab.text.ada__tags__offset_to_top
                0x000000000000cbd8        0x0 C:\gnat\2021-arm-elf\arm-eabi\lib\gnat\ravenscar-full-nrf52833\adalib\libgnat.a(a-tags.o)
 .ARM.extab.text.ada__tags__needs_finalization
                0x000000000000cbd8        0x0 C:\gnat\2021-arm-elf\arm-eabi\lib\gnat\ravenscar-full-nrf52833\adalib\libgnat.a(a-tags.o)
 .ARM.extab.text.ada__tags__parent_size
                0x000000000000cbd8        0xc C:\gnat\2021-arm-elf\arm-eabi\lib\gnat\ravenscar-full-nrf52833\adalib\libgnat.a(a-tags.o)
 .ARM.extab.text.ada__tags__parent_tag
                0x000000000000cbe4        0xc C:\gnat\2021-arm-elf\arm-eabi\lib\gnat\ravenscar-full-nrf52833\adalib\libgnat.a(a-tags.o)
 .ARM.extab.text.ada__tags__register_interface_offset
                0x000000000000cbf0        0x0 C:\gnat\2021-arm-elf\arm-eabi\lib\gnat\ravenscar-full-nrf52833\adalib\libgnat.a(a-tags.o)
 .ARM.extab.text.ada__tags__register_tag
                0x000000000000cbf0        0x0 C:\gnat\2021-arm-elf\arm-eabi\lib\gnat\ravenscar-full-nrf52833\adalib\libgnat.a(a-tags.o)
 .ARM.extab.text.ada__tags__secondary_tag
                0x000000000000cbf0        0x0 C:\gnat\2021-arm-elf\arm-eabi\lib\gnat\ravenscar-full-nrf52833\adalib\libgnat.a(a-tags.o)
 .ARM.extab.text.ada__tags__set_entry_index
                0x000000000000cbf0        0x0 C:\gnat\2021-arm-elf\arm-eabi\lib\gnat\ravenscar-full-nrf52833\adalib\libgnat.a(a-tags.o)
 .ARM.extab.text.ada__tags__set_dynamic_offset_to_top
                0x000000000000cbf0        0x0 C:\gnat\2021-arm-elf\arm-eabi\lib\gnat\ravenscar-full-nrf52833\adalib\libgnat.a(a-tags.o)
 .ARM.extab.text.ada__tags__set_prim_op_kind
                0x000000000000cbf0        0x0 C:\gnat\2021-arm-elf\arm-eabi\lib\gnat\ravenscar-full-nrf52833\adalib\libgnat.a(a-tags.o)
 .ARM.extab.text.ada__tags__unregister_tag
                0x000000000000cbf0        0x0 C:\gnat\2021-arm-elf\arm-eabi\lib\gnat\ravenscar-full-nrf52833\adalib\libgnat.a(a-tags.o)
 .ARM.extab.text.ada__tags__wide_expanded_name
                0x000000000000cbf0        0x0 C:\gnat\2021-arm-elf\arm-eabi\lib\gnat\ravenscar-full-nrf52833\adalib\libgnat.a(a-tags.o)
 .ARM.extab.text.ada__tags__wide_wide_expanded_name
                0x000000000000cbf0        0x0 C:\gnat\2021-arm-elf\arm-eabi\lib\gnat\ravenscar-full-nrf52833\adalib\libgnat.a(a-tags.o)
 .ARM.extab.text.ada__tags___elabb
                0x000000000000cbf0        0x0 C:\gnat\2021-arm-elf\arm-eabi\lib\gnat\ravenscar-full-nrf52833\adalib\libgnat.a(a-tags.o)
 .ARM.extab.text.ada__text_io__get
                0x000000000000cbf0        0xc C:\gnat\2021-arm-elf\arm-eabi\lib\gnat\ravenscar-full-nrf52833\adalib\libgnat.a(a-textio.o)
 .ARM.extab.text.ada__text_io__new_line
                0x000000000000cbfc        0xc C:\gnat\2021-arm-elf\arm-eabi\lib\gnat\ravenscar-full-nrf52833\adalib\libgnat.a(a-textio.o)
 .ARM.extab.text.ada__text_io__put
                0x000000000000cc08        0x0 C:\gnat\2021-arm-elf\arm-eabi\lib\gnat\ravenscar-full-nrf52833\adalib\libgnat.a(a-textio.o)
 .ARM.extab.text.ada__text_io__put__2
                0x000000000000cc08        0x0 C:\gnat\2021-arm-elf\arm-eabi\lib\gnat\ravenscar-full-nrf52833\adalib\libgnat.a(a-textio.o)
 .ARM.extab.text.ada__text_io__put_line
                0x000000000000cc08        0x0 C:\gnat\2021-arm-elf\arm-eabi\lib\gnat\ravenscar-full-nrf52833\adalib\libgnat.a(a-textio.o)
 .ARM.extab.text.ada__text_io___elabb
                0x000000000000cc08        0x0 C:\gnat\2021-arm-elf\arm-eabi\lib\gnat\ravenscar-full-nrf52833\adalib\libgnat.a(a-textio.o)
 .ARM.extab.text.read_encoded_value_with_base
                0x000000000000cc08        0x0 C:\gnat\2021-arm-elf\arm-eabi\lib\gnat\ravenscar-full-nrf52833\adalib\libgnat.a(raise-gcc.o)
 .ARM.extab.text.base_of_encoded_value
                0x000000000000cc08        0x0 C:\gnat\2021-arm-elf\arm-eabi\lib\gnat\ravenscar-full-nrf52833\adalib\libgnat.a(raise-gcc.o)
 .ARM.extab.text.__gnat_personality_v0
                0x000000000000cc08        0x0 C:\gnat\2021-arm-elf\arm-eabi\lib\gnat\ravenscar-full-nrf52833\adalib\libgnat.a(raise-gcc.o)
 .ARM.extab.text.__gnat_cleanupunwind_handler
                0x000000000000cc08        0xc C:\gnat\2021-arm-elf\arm-eabi\lib\gnat\ravenscar-full-nrf52833\adalib\libgnat.a(raise-gcc.o)
 .ARM.extab.text.__gnat_Unwind_RaiseException
                0x000000000000cc14        0x0 C:\gnat\2021-arm-elf\arm-eabi\lib\gnat\ravenscar-full-nrf52833\adalib\libgnat.a(raise-gcc.o)
 .ARM.extab.text.__gnat_Unwind_ForcedUnwind
                0x000000000000cc14        0x0 C:\gnat\2021-arm-elf\arm-eabi\lib\gnat\ravenscar-full-nrf52833\adalib\libgnat.a(raise-gcc.o)
 .ARM.extab.text.__gnat_debug_raise_exception
                0x000000000000cc14        0x0 C:\gnat\2021-arm-elf\arm-eabi\lib\gnat\ravenscar-full-nrf52833\adalib\libgnat.a(s-excdeb.o)
 .ARM.extab.text.__gnat_unhandled_exception
                0x000000000000cc14        0x0 C:\gnat\2021-arm-elf\arm-eabi\lib\gnat\ravenscar-full-nrf52833\adalib\libgnat.a(s-excdeb.o)
 .ARM.extab.text.__gnat_debug_raise_assert_failure
                0x000000000000cc14        0x0 C:\gnat\2021-arm-elf\arm-eabi\lib\gnat\ravenscar-full-nrf52833\adalib\libgnat.a(s-excdeb.o)
 .ARM.extab.text.local_raise
                0x000000000000cc14        0x0 C:\gnat\2021-arm-elf\arm-eabi\lib\gnat\ravenscar-full-nrf52833\adalib\libgnat.a(s-excdeb.o)
 .ARM.extab.text.system__exceptions__machine__Texception_classBIP
                0x000000000000cc14        0x0 C:\gnat\2021-arm-elf\arm-eabi\lib\gnat\ravenscar-full-nrf52833\adalib\libgnat.a(s-excmac.o)
 .ARM.extab.text.system__exceptions__machine__unwind_reason_codeH
                0x000000000000cc14        0x0 C:\gnat\2021-arm-elf\arm-eabi\lib\gnat\ravenscar-full-nrf52833\adalib\libgnat.a(s-excmac.o)
 .ARM.extab.text.system__exceptions__machine__uint32_t_arrayIP
                0x000000000000cc14        0x0 C:\gnat\2021-arm-elf\arm-eabi\lib\gnat\ravenscar-full-nrf52833\adalib\libgnat.a(s-excmac.o)
 .ARM.extab.text.system__exceptions__machine__unwinder_cache_typeIP
                0x000000000000cc14        0x0 C:\gnat\2021-arm-elf\arm-eabi\lib\gnat\ravenscar-full-nrf52833\adalib\libgnat.a(s-excmac.o)
 .ARM.extab.text.system__exceptions__machine__barrier_cache_typeIP
                0x000000000000cc14        0x0 C:\gnat\2021-arm-elf\arm-eabi\lib\gnat\ravenscar-full-nrf52833\adalib\libgnat.a(s-excmac.o)
 .ARM.extab.text.system__exceptions__machine__cleanup_cache_typeIP
                0x000000000000cc14        0x0 C:\gnat\2021-arm-elf\arm-eabi\lib\gnat\ravenscar-full-nrf52833\adalib\libgnat.a(s-excmac.o)
 .ARM.extab.text.system__exceptions__machine__pr_cache_typeIP
                0x000000000000cc14        0x0 C:\gnat\2021-arm-elf\arm-eabi\lib\gnat\ravenscar-full-nrf52833\adalib\libgnat.a(s-excmac.o)
 .ARM.extab.text.system__exceptions__machine__unwind_control_blockIP
                0x000000000000cc14        0x0 C:\gnat\2021-arm-elf\arm-eabi\lib\gnat\ravenscar-full-nrf52833\adalib\libgnat.a(s-excmac.o)
 .ARM.extab.text.system__exceptions__machine__gnat_gcc_exceptionIP
                0x000000000000cc14        0x0 C:\gnat\2021-arm-elf\arm-eabi\lib\gnat\ravenscar-full-nrf52833\adalib\libgnat.a(s-excmac.o)
 .ARM.extab.text.system__exceptions__machine__new_occurrence
                0x000000000000cc14        0xc C:\gnat\2021-arm-elf\arm-eabi\lib\gnat\ravenscar-full-nrf52833\adalib\libgnat.a(s-excmac.o)
 .ARM.extab.text.system__exception_table__register.part.0
                0x000000000000cc20        0x0 C:\gnat\2021-arm-elf\arm-eabi\lib\gnat\ravenscar-full-nrf52833\adalib\libgnat.a(s-exctab.o)
 .ARM.extab.text.system__exception_table__exception_data_arrayIP
                0x000000000000cc20        0x0 C:\gnat\2021-arm-elf\arm-eabi\lib\gnat\ravenscar-full-nrf52833\adalib\libgnat.a(s-exctab.o)
 .ARM.extab.text.system__exception_table__ThtableBIP
                0x000000000000cc20        0x0 C:\gnat\2021-arm-elf\arm-eabi\lib\gnat\ravenscar-full-nrf52833\adalib\libgnat.a(s-exctab.o)
 .ARM.extab.text.system__exception_table__has_name
                0x000000000000cc20        0x0 C:\gnat\2021-arm-elf\arm-eabi\lib\gnat\ravenscar-full-nrf52833\adalib\libgnat.a(s-exctab.o)
 .ARM.extab.text.system__exception_table__lookup
                0x000000000000cc20        0x0 C:\gnat\2021-arm-elf\arm-eabi\lib\gnat\ravenscar-full-nrf52833\adalib\libgnat.a(s-exctab.o)
 .ARM.extab.text.system__exception_table__hash
                0x000000000000cc20        0x0 C:\gnat\2021-arm-elf\arm-eabi\lib\gnat\ravenscar-full-nrf52833\adalib\libgnat.a(s-exctab.o)
 .ARM.extab.text.system__exception_table__register
                0x000000000000cc20        0x0 C:\gnat\2021-arm-elf\arm-eabi\lib\gnat\ravenscar-full-nrf52833\adalib\libgnat.a(s-exctab.o)
 .ARM.extab.text.system__exception_table__get_registered_exceptions
                0x000000000000cc20        0x0 C:\gnat\2021-arm-elf\arm-eabi\lib\gnat\ravenscar-full-nrf52833\adalib\libgnat.a(s-exctab.o)
 .ARM.extab.text.system__exception_table__internal_exception
                0x000000000000cc20        0x0 C:\gnat\2021-arm-elf\arm-eabi\lib\gnat\ravenscar-full-nrf52833\adalib\libgnat.a(s-exctab.o)
 .ARM.extab.text.system__exception_table__register_exception
                0x000000000000cc20        0x0 C:\gnat\2021-arm-elf\arm-eabi\lib\gnat\ravenscar-full-nrf52833\adalib\libgnat.a(s-exctab.o)
 .ARM.extab.text.system__exception_table__registered_exceptions_count
                0x000000000000cc20        0x0 C:\gnat\2021-arm-elf\arm-eabi\lib\gnat\ravenscar-full-nrf52833\adalib\libgnat.a(s-exctab.o)
 .ARM.extab.text.system__exception_table___elabb
                0x000000000000cc20        0x0 C:\gnat\2021-arm-elf\arm-eabi\lib\gnat\ravenscar-full-nrf52833\adalib\libgnat.a(s-exctab.o)
 .ARM.extab.text.system__img_int__impl__set_image_integer
                0x000000000000cc20        0x0 C:\gnat\2021-arm-elf\arm-eabi\lib\gnat\ravenscar-full-nrf52833\adalib\libgnat.a(s-imgint.o)
 .ARM.extab.text.system__img_int__impl__image_integer
                0x000000000000cc20        0x0 C:\gnat\2021-arm-elf\arm-eabi\lib\gnat\ravenscar-full-nrf52833\adalib\libgnat.a(s-imgint.o)
 .ARM.extab.text.__gnat_finalize
                0x000000000000cc20        0x0 C:\gnat\2021-arm-elf\arm-eabi\lib\gnat\ravenscar-full-nrf52833\adalib\libgnat.a(s-init.o)
 .ARM.extab.text.__gnat_initialize
                0x000000000000cc20        0x0 C:\gnat\2021-arm-elf\arm-eabi\lib\gnat\ravenscar-full-nrf52833\adalib\libgnat.a(s-init.o)
 .ARM.extab.text.__gnat_install_handler
                0x000000000000cc20        0xc C:\gnat\2021-arm-elf\arm-eabi\lib\gnat\ravenscar-full-nrf52833\adalib\libgnat.a(s-init.o)
 .ARM.extab.text.__gnat_runtime_initialize
                0x000000000000cc2c        0x0 C:\gnat\2021-arm-elf\arm-eabi\lib\gnat\ravenscar-full-nrf52833\adalib\libgnat.a(s-init.o)
 .ARM.extab.text.__gnat_runtime_finalize
                0x000000000000cc2c        0x0 C:\gnat\2021-arm-elf\arm-eabi\lib\gnat\ravenscar-full-nrf52833\adalib\libgnat.a(s-init.o)
 .ARM.extab.text.system__io__new_line
                0x000000000000cc2c        0x0 C:\gnat\2021-arm-elf\arm-eabi\lib\gnat\ravenscar-full-nrf52833\adalib\libgnat.a(s-io.o)
 .ARM.extab.text.system__io__put__2
                0x000000000000cc2c        0x0 C:\gnat\2021-arm-elf\arm-eabi\lib\gnat\ravenscar-full-nrf52833\adalib\libgnat.a(s-io.o)
 .ARM.extab.text.system__io__put__3
                0x000000000000cc2c        0x0 C:\gnat\2021-arm-elf\arm-eabi\lib\gnat\ravenscar-full-nrf52833\adalib\libgnat.a(s-io.o)
 .ARM.extab.text.system__io__put
                0x000000000000cc2c        0x0 C:\gnat\2021-arm-elf\arm-eabi\lib\gnat\ravenscar-full-nrf52833\adalib\libgnat.a(s-io.o)
 .ARM.extab.text.put_char_stderr
                0x000000000000cc2c        0x0 C:\gnat\2021-arm-elf\arm-eabi\lib\gnat\ravenscar-full-nrf52833\adalib\libgnat.a(s-io.o)
 .ARM.extab.text.system__io__put_line
                0x000000000000cc2c        0x0 C:\gnat\2021-arm-elf\arm-eabi\lib\gnat\ravenscar-full-nrf52833\adalib\libgnat.a(s-io.o)
 .ARM.extab.text.system__io__standard_output
                0x000000000000cc2c        0x0 C:\gnat\2021-arm-elf\arm-eabi\lib\gnat\ravenscar-full-nrf52833\adalib\libgnat.a(s-io.o)
 .ARM.extab.text.system__io__standard_error
                0x000000000000cc2c        0x0 C:\gnat\2021-arm-elf\arm-eabi\lib\gnat\ravenscar-full-nrf52833\adalib\libgnat.a(s-io.o)
 .ARM.extab.text.system__io__set_output
                0x000000000000cc2c        0x0 C:\gnat\2021-arm-elf\arm-eabi\lib\gnat\ravenscar-full-nrf52833\adalib\libgnat.a(s-io.o)
 .ARM.extab.text._exit
                0x000000000000cc2c        0x0 C:\gnat\2021-arm-elf\arm-eabi\lib\gnat\ravenscar-full-nrf52833\adalib\libgnat.a(s-macres.o)
 .ARM.extab.text.abort
                0x000000000000cc2c        0x0 C:\gnat\2021-arm-elf\arm-eabi\lib\gnat\ravenscar-full-nrf52833\adalib\libgnat.a(s-macres.o)
 .ARM.extab.text.system__machine_reset__stop
                0x000000000000cc2c        0x0 C:\gnat\2021-arm-elf\arm-eabi\lib\gnat\ravenscar-full-nrf52833\adalib\libgnat.a(s-macres.o)
 .ARM.extab.text.__gnat_malloc
                0x000000000000cc2c        0x0 C:\gnat\2021-arm-elf\arm-eabi\lib\gnat\ravenscar-full-nrf52833\adalib\libgnat.a(s-memory.o)
 .ARM.extab.text.__gnat_free
                0x000000000000cc2c        0x0 C:\gnat\2021-arm-elf\arm-eabi\lib\gnat\ravenscar-full-nrf52833\adalib\libgnat.a(s-memory.o)
 .ARM.extab.text.__gnat_realloc
                0x000000000000cc2c        0x0 C:\gnat\2021-arm-elf\arm-eabi\lib\gnat\ravenscar-full-nrf52833\adalib\libgnat.a(s-memory.o)
 .ARM.extab.text.system__parameters__adjust_storage_size
                0x000000000000cc2c        0x0 C:\gnat\2021-arm-elf\arm-eabi\lib\gnat\ravenscar-full-nrf52833\adalib\libgnat.a(s-parame.o)
 .ARM.extab.text.system__put_images__hex__put_digitsXn
                0x000000000000cc2c        0x0 C:\gnat\2021-arm-elf\arm-eabi\lib\gnat\ravenscar-full-nrf52833\adalib\libgnat.a(s-putima.o)
 .ARM.extab.text.system__put_images__thin_instance
                0x000000000000cc2c        0x0 C:\gnat\2021-arm-elf\arm-eabi\lib\gnat\ravenscar-full-nrf52833\adalib\libgnat.a(s-putima.o)
 .ARM.extab.text.system__put_images__ll_integer_images__put_digitsXn
                0x000000000000cc2c        0x0 C:\gnat\2021-arm-elf\arm-eabi\lib\gnat\ravenscar-full-nrf52833\adalib\libgnat.a(s-putima.o)
 .ARM.extab.text.system__put_images__integer_images__put_digitsXn
                0x000000000000cc2c        0x0 C:\gnat\2021-arm-elf\arm-eabi\lib\gnat\ravenscar-full-nrf52833\adalib\libgnat.a(s-putima.o)
 .ARM.extab.text.system__put_images__byte_stringIP
                0x000000000000cc2c        0x0 C:\gnat\2021-arm-elf\arm-eabi\lib\gnat\ravenscar-full-nrf52833\adalib\libgnat.a(s-putima.o)
 .ARM.extab.text.system__put_images__integer_images__put_imageXn
                0x000000000000cc2c        0x0 C:\gnat\2021-arm-elf\arm-eabi\lib\gnat\ravenscar-full-nrf52833\adalib\libgnat.a(s-putima.o)
 .ARM.extab.text.system__put_images__integer_images__put_image__2Xn
                0x000000000000cc2c        0x0 C:\gnat\2021-arm-elf\arm-eabi\lib\gnat\ravenscar-full-nrf52833\adalib\libgnat.a(s-putima.o)
 .ARM.extab.text.system__put_images__ll_integer_images__put_imageXn
                0x000000000000cc2c        0x0 C:\gnat\2021-arm-elf\arm-eabi\lib\gnat\ravenscar-full-nrf52833\adalib\libgnat.a(s-putima.o)
 .ARM.extab.text.system__put_images__ll_integer_images__put_image__2Xn
                0x000000000000cc2c        0x0 C:\gnat\2021-arm-elf\arm-eabi\lib\gnat\ravenscar-full-nrf52833\adalib\libgnat.a(s-putima.o)
 .ARM.extab.text.system__put_images__lll_integer_images__put_imageXn
                0x000000000000cc2c        0x0 C:\gnat\2021-arm-elf\arm-eabi\lib\gnat\ravenscar-full-nrf52833\adalib\libgnat.a(s-putima.o)
 .ARM.extab.text.system__put_images__lll_integer_images__put_image__2Xn
                0x000000000000cc2c        0x0 C:\gnat\2021-arm-elf\arm-eabi\lib\gnat\ravenscar-full-nrf52833\adalib\libgnat.a(s-putima.o)
 .ARM.extab.text.system__put_images__hex__put_imageXn
                0x000000000000cc2c        0x0 C:\gnat\2021-arm-elf\arm-eabi\lib\gnat\ravenscar-full-nrf52833\adalib\libgnat.a(s-putima.o)
 .ARM.extab.text.system__put_images__hex__put_image__2Xn
                0x000000000000cc2c        0x0 C:\gnat\2021-arm-elf\arm-eabi\lib\gnat\ravenscar-full-nrf52833\adalib\libgnat.a(s-putima.o)
 .ARM.extab.text.system__put_images__put_image_integer
                0x000000000000cc2c        0x0 C:\gnat\2021-arm-elf\arm-eabi\lib\gnat\ravenscar-full-nrf52833\adalib\libgnat.a(s-putima.o)
 .ARM.extab.text.system__put_images__put_image_long_long_integer
                0x000000000000cc2c        0x0 C:\gnat\2021-arm-elf\arm-eabi\lib\gnat\ravenscar-full-nrf52833\adalib\libgnat.a(s-putima.o)
 .ARM.extab.text.system__put_images__put_image_long_long_long_integer
                0x000000000000cc2c        0x0 C:\gnat\2021-arm-elf\arm-eabi\lib\gnat\ravenscar-full-nrf52833\adalib\libgnat.a(s-putima.o)
 .ARM.extab.text.system__put_images__put_image_unsigned
                0x000000000000cc2c        0x0 C:\gnat\2021-arm-elf\arm-eabi\lib\gnat\ravenscar-full-nrf52833\adalib\libgnat.a(s-putima.o)
 .ARM.extab.text.system__put_images__put_image_long_long_unsigned
                0x000000000000cc2c        0x0 C:\gnat\2021-arm-elf\arm-eabi\lib\gnat\ravenscar-full-nrf52833\adalib\libgnat.a(s-putima.o)
 .ARM.extab.text.system__put_images__put_image_long_long_long_unsigned
                0x000000000000cc2c        0x0 C:\gnat\2021-arm-elf\arm-eabi\lib\gnat\ravenscar-full-nrf52833\adalib\libgnat.a(s-putima.o)
 .ARM.extab.text.system__put_images__put_image_thin_pointer
                0x000000000000cc2c        0x0 C:\gnat\2021-arm-elf\arm-eabi\lib\gnat\ravenscar-full-nrf52833\adalib\libgnat.a(s-putima.o)
 .ARM.extab.text.system__put_images__put_image_fat_pointer
                0x000000000000cc2c        0x0 C:\gnat\2021-arm-elf\arm-eabi\lib\gnat\ravenscar-full-nrf52833\adalib\libgnat.a(s-putima.o)
 .ARM.extab.text.system__put_images__put_image_access_subp
                0x000000000000cc2c        0x0 C:\gnat\2021-arm-elf\arm-eabi\lib\gnat\ravenscar-full-nrf52833\adalib\libgnat.a(s-putima.o)
 .ARM.extab.text.system__put_images__put_image_access_prot_subp
                0x000000000000cc2c        0x0 C:\gnat\2021-arm-elf\arm-eabi\lib\gnat\ravenscar-full-nrf52833\adalib\libgnat.a(s-putima.o)
 .ARM.extab.text.system__put_images__put_image_string
                0x000000000000cc2c        0x0 C:\gnat\2021-arm-elf\arm-eabi\lib\gnat\ravenscar-full-nrf52833\adalib\libgnat.a(s-putima.o)
 .ARM.extab.text.system__put_images__put_image_wide_string
                0x000000000000cc2c        0x0 C:\gnat\2021-arm-elf\arm-eabi\lib\gnat\ravenscar-full-nrf52833\adalib\libgnat.a(s-putima.o)
 .ARM.extab.text.system__put_images__put_image_wide_wide_string
                0x000000000000cc2c        0x0 C:\gnat\2021-arm-elf\arm-eabi\lib\gnat\ravenscar-full-nrf52833\adalib\libgnat.a(s-putima.o)
 .ARM.extab.text.system__put_images__array_before
                0x000000000000cc2c        0x0 C:\gnat\2021-arm-elf\arm-eabi\lib\gnat\ravenscar-full-nrf52833\adalib\libgnat.a(s-putima.o)
 .ARM.extab.text.system__put_images__array_between
                0x000000000000cc2c        0x0 C:\gnat\2021-arm-elf\arm-eabi\lib\gnat\ravenscar-full-nrf52833\adalib\libgnat.a(s-putima.o)
 .ARM.extab.text.system__put_images__array_after
                0x000000000000cc2c        0x0 C:\gnat\2021-arm-elf\arm-eabi\lib\gnat\ravenscar-full-nrf52833\adalib\libgnat.a(s-putima.o)
 .ARM.extab.text.system__put_images__simple_array_between
                0x000000000000cc2c        0x0 C:\gnat\2021-arm-elf\arm-eabi\lib\gnat\ravenscar-full-nrf52833\adalib\libgnat.a(s-putima.o)
 .ARM.extab.text.system__put_images__record_before
                0x000000000000cc2c        0x0 C:\gnat\2021-arm-elf\arm-eabi\lib\gnat\ravenscar-full-nrf52833\adalib\libgnat.a(s-putima.o)
 .ARM.extab.text.system__put_images__record_between
                0x000000000000cc2c        0x0 C:\gnat\2021-arm-elf\arm-eabi\lib\gnat\ravenscar-full-nrf52833\adalib\libgnat.a(s-putima.o)
 .ARM.extab.text.system__put_images__record_after
                0x000000000000cc2c        0x0 C:\gnat\2021-arm-elf\arm-eabi\lib\gnat\ravenscar-full-nrf52833\adalib\libgnat.a(s-putima.o)
 .ARM.extab.text.system__put_images__put_arrow
                0x000000000000cc2c        0x0 C:\gnat\2021-arm-elf\arm-eabi\lib\gnat\ravenscar-full-nrf52833\adalib\libgnat.a(s-putima.o)
 .ARM.extab.text.system__put_images__put_image_unknown
                0x000000000000cc2c        0x0 C:\gnat\2021-arm-elf\arm-eabi\lib\gnat\ravenscar-full-nrf52833\adalib\libgnat.a(s-putima.o)
 .ARM.extab.text.system__secondary_stack__memoryIP
                0x000000000000cc2c        0x0 C:\gnat\2021-arm-elf\arm-eabi\lib\gnat\ravenscar-full-nrf52833\adalib\libgnat.a(s-secsta.o)
 .ARM.extab.text.system__secondary_stack__ss_stackIP
                0x000000000000cc2c        0x0 C:\gnat\2021-arm-elf\arm-eabi\lib\gnat\ravenscar-full-nrf52833\adalib\libgnat.a(s-secsta.o)
 .ARM.extab.text.system__secondary_stack__ss_allocate
                0x000000000000cc2c        0x0 C:\gnat\2021-arm-elf\arm-eabi\lib\gnat\ravenscar-full-nrf52833\adalib\libgnat.a(s-secsta.o)
 .ARM.extab.text.system__secondary_stack__ss_get_max
                0x000000000000cc2c        0xc C:\gnat\2021-arm-elf\arm-eabi\lib\gnat\ravenscar-full-nrf52833\adalib\libgnat.a(s-secsta.o)
 .ARM.extab.text.system__secondary_stack__ss_init
                0x000000000000cc38        0x0 C:\gnat\2021-arm-elf\arm-eabi\lib\gnat\ravenscar-full-nrf52833\adalib\libgnat.a(s-secsta.o)
 .ARM.extab.text.system__secondary_stack__ss_mark
                0x000000000000cc38        0xc C:\gnat\2021-arm-elf\arm-eabi\lib\gnat\ravenscar-full-nrf52833\adalib\libgnat.a(s-secsta.o)
 .ARM.extab.text.system__secondary_stack__ss_release
                0x000000000000cc44        0x0 C:\gnat\2021-arm-elf\arm-eabi\lib\gnat\ravenscar-full-nrf52833\adalib\libgnat.a(s-secsta.o)
 .ARM.extab.text.system__soft_links__abort_defer_raven
                0x000000000000cc44        0x0 C:\gnat\2021-arm-elf\arm-eabi\lib\gnat\ravenscar-full-nrf52833\adalib\libgnat.a(s-soflin.o)
 .ARM.extab.text.system__soft_links__get_current_excep_soft
                0x000000000000cc44        0x0 C:\gnat\2021-arm-elf\arm-eabi\lib\gnat\ravenscar-full-nrf52833\adalib\libgnat.a(s-soflin.o)
 .ARM.extab.text.system__soft_links__adafinal_soft
                0x000000000000cc44        0x0 C:\gnat\2021-arm-elf\arm-eabi\lib\gnat\ravenscar-full-nrf52833\adalib\libgnat.a(s-soflin.o)
 .ARM.extab.text.system__soft_links__task_lock_soft
                0x000000000000cc44        0x0 C:\gnat\2021-arm-elf\arm-eabi\lib\gnat\ravenscar-full-nrf52833\adalib\libgnat.a(s-soflin.o)
 .ARM.extab.text.system__soft_links__abort_undefer_raven
                0x000000000000cc44        0x0 C:\gnat\2021-arm-elf\arm-eabi\lib\gnat\ravenscar-full-nrf52833\adalib\libgnat.a(s-soflin.o)
 .ARM.extab.text.system__soft_links__task_termination_soft
                0x000000000000cc44        0x0 C:\gnat\2021-arm-elf\arm-eabi\lib\gnat\ravenscar-full-nrf52833\adalib\libgnat.a(s-soflin.o)
 .ARM.extab.text.system__soft_links__task_unlock_soft
                0x000000000000cc44        0xc C:\gnat\2021-arm-elf\arm-eabi\lib\gnat\ravenscar-full-nrf52833\adalib\libgnat.a(s-soflin.o)
 .ARM.extab.text.system__soft_links__get_gnat_exception
                0x000000000000cc50        0x0 C:\gnat\2021-arm-elf\arm-eabi\lib\gnat\ravenscar-full-nrf52833\adalib\libgnat.a(s-soflin.o)
 .ARM.extab.text.system__soft_links___elabs
                0x000000000000cc50        0x0 C:\gnat\2021-arm-elf\arm-eabi\lib\gnat\ravenscar-full-nrf52833\adalib\libgnat.a(s-soflin.o)
 .ARM.extab.text.system__standard_library__exception_dataIP
                0x000000000000cc50        0x0 C:\gnat\2021-arm-elf\arm-eabi\lib\gnat\ravenscar-full-nrf52833\adalib\libgnat.a(s-stalib.o)
 .ARM.extab.text.system__standard_library__exception_trace_kindH
                0x000000000000cc50        0x0 C:\gnat\2021-arm-elf\arm-eabi\lib\gnat\ravenscar-full-nrf52833\adalib\libgnat.a(s-stalib.o)
 .ARM.extab.text.system__standard_library__abort_undefer_direct
                0x000000000000cc50        0x0 C:\gnat\2021-arm-elf\arm-eabi\lib\gnat\ravenscar-full-nrf52833\adalib\libgnat.a(s-stalib.o)
 .ARM.extab.text.system__standard_library__adafinal
                0x000000000000cc50        0x0 C:\gnat\2021-arm-elf\arm-eabi\lib\gnat\ravenscar-full-nrf52833\adalib\libgnat.a(s-stalib.o)
 .ARM.extab.text.__gnat_break_start
                0x000000000000cc50        0x0 C:\gnat\2021-arm-elf\arm-eabi\lib\gnat\ravenscar-full-nrf52833\adalib\libgnat.a(s-stalib.o)
 .ARM.extab.text.system__text_io__get
                0x000000000000cc50        0x0 C:\gnat\2021-arm-elf\arm-eabi\lib\gnat\ravenscar-full-nrf52833\adalib\libgnat.a(s-textio.o)
 .ARM.extab.text.system__text_io__is_rx_ready
                0x000000000000cc50        0x0 C:\gnat\2021-arm-elf\arm-eabi\lib\gnat\ravenscar-full-nrf52833\adalib\libgnat.a(s-textio.o)
 .ARM.extab.text.system__text_io__is_tx_ready
                0x000000000000cc50        0x0 C:\gnat\2021-arm-elf\arm-eabi\lib\gnat\ravenscar-full-nrf52833\adalib\libgnat.a(s-textio.o)
 .ARM.extab.text.system__text_io__put
                0x000000000000cc50        0x0 C:\gnat\2021-arm-elf\arm-eabi\lib\gnat\ravenscar-full-nrf52833\adalib\libgnat.a(s-textio.o)
 .ARM.extab.text.system__text_io__initialize
                0x000000000000cc50        0x0 C:\gnat\2021-arm-elf\arm-eabi\lib\gnat\ravenscar-full-nrf52833\adalib\libgnat.a(s-textio.o)
 .ARM.extab.text.system__text_io__use_cr_lf_for_new_line
                0x000000000000cc50        0x0 C:\gnat\2021-arm-elf\arm-eabi\lib\gnat\ravenscar-full-nrf52833\adalib\libgnat.a(s-textio.o)
 .ARM.extab.text.system__traceback__backtrace_callback
                0x000000000000cc50        0x0 C:\gnat\2021-arm-elf\arm-eabi\lib\gnat\ravenscar-full-nrf52833\adalib\libgnat.a(s-traceb.o)
 .ARM.extab.text.system__traceback__unwind_context_typeIP
                0x000000000000cc50        0x0 C:\gnat\2021-arm-elf\arm-eabi\lib\gnat\ravenscar-full-nrf52833\adalib\libgnat.a(s-traceb.o)
 .ARM.extab.text.system__traceback__callback_params_typeIP
                0x000000000000cc50        0x0 C:\gnat\2021-arm-elf\arm-eabi\lib\gnat\ravenscar-full-nrf52833\adalib\libgnat.a(s-traceb.o)
 .ARM.extab.text.system__traceback__call_chain
                0x000000000000cc50        0x0 C:\gnat\2021-arm-elf\arm-eabi\lib\gnat\ravenscar-full-nrf52833\adalib\libgnat.a(s-traceb.o)
 .ARM.extab.text.system__traceback_entries__tracebacks_arrayIP
                0x000000000000cc50        0x0 C:\gnat\2021-arm-elf\arm-eabi\lib\gnat\ravenscar-full-nrf52833\adalib\libgnat.a(s-traent.o)
 .ARM.extab.text.system__traceback_entries__pc_for
                0x000000000000cc50        0x0 C:\gnat\2021-arm-elf\arm-eabi\lib\gnat\ravenscar-full-nrf52833\adalib\libgnat.a(s-traent.o)
 .ARM.extab.text.system__traceback_entries__tb_entry_for
                0x000000000000cc50        0x0 C:\gnat\2021-arm-elf\arm-eabi\lib\gnat\ravenscar-full-nrf52833\adalib\libgnat.a(s-traent.o)
 .ARM.extab.text.system__val_uns__impl__scan_raw_unsigned
                0x000000000000cc50        0x0 C:\gnat\2021-arm-elf\arm-eabi\lib\gnat\ravenscar-full-nrf52833\adalib\libgnat.a(s-valuns.o)
 .ARM.extab.text.system__val_uns__impl__scan_unsigned
                0x000000000000cc50        0x0 C:\gnat\2021-arm-elf\arm-eabi\lib\gnat\ravenscar-full-nrf52833\adalib\libgnat.a(s-valuns.o)
 .ARM.extab.text.system__val_uns__impl__value_unsigned
                0x000000000000cc50        0x0 C:\gnat\2021-arm-elf\arm-eabi\lib\gnat\ravenscar-full-nrf52833\adalib\libgnat.a(s-valuns.o)
 .ARM.extab.text.system__val_util__bad_value
                0x000000000000cc50        0x0 C:\gnat\2021-arm-elf\arm-eabi\lib\gnat\ravenscar-full-nrf52833\adalib\libgnat.a(s-valuti.o)
 .ARM.extab.text.system__val_util__normalize_string
                0x000000000000cc50        0x0 C:\gnat\2021-arm-elf\arm-eabi\lib\gnat\ravenscar-full-nrf52833\adalib\libgnat.a(s-valuti.o)
 .ARM.extab.text.system__val_util__scan_exponent
                0x000000000000cc50        0x0 C:\gnat\2021-arm-elf\arm-eabi\lib\gnat\ravenscar-full-nrf52833\adalib\libgnat.a(s-valuti.o)
 .ARM.extab.text.system__val_util__scan_plus_sign
                0x000000000000cc50        0x0 C:\gnat\2021-arm-elf\arm-eabi\lib\gnat\ravenscar-full-nrf52833\adalib\libgnat.a(s-valuti.o)
 .ARM.extab.text.system__val_util__scan_sign
                0x000000000000cc50        0x0 C:\gnat\2021-arm-elf\arm-eabi\lib\gnat\ravenscar-full-nrf52833\adalib\libgnat.a(s-valuti.o)
 .ARM.extab.text.system__val_util__scan_trailing_blanks
                0x000000000000cc50        0x0 C:\gnat\2021-arm-elf\arm-eabi\lib\gnat\ravenscar-full-nrf52833\adalib\libgnat.a(s-valuti.o)
 .ARM.extab.text.system__val_util__scan_underscore
                0x000000000000cc50        0x0 C:\gnat\2021-arm-elf\arm-eabi\lib\gnat\ravenscar-full-nrf52833\adalib\libgnat.a(s-valuti.o)
 .ARM.extab.text.system__wch_con__get_wc_encoding_method
                0x000000000000cc50        0xc C:\gnat\2021-arm-elf\arm-eabi\lib\gnat\ravenscar-full-nrf52833\adalib\libgnat.a(s-wchcon.o)
 .ARM.extab.text.system__wch_con__get_wc_encoding_method__2
                0x000000000000cc5c        0xc C:\gnat\2021-arm-elf\arm-eabi\lib\gnat\ravenscar-full-nrf52833\adalib\libgnat.a(s-wchcon.o)
 .ARM.extab.text.system__wch_con__is_start_of_encoding
                0x000000000000cc68        0x0 C:\gnat\2021-arm-elf\arm-eabi\lib\gnat\ravenscar-full-nrf52833\adalib\libgnat.a(s-wchcon.o)
 .ARM.extab.text.system__wch_stw__get_next_code__in_char.0
                0x000000000000cc68        0xc C:\gnat\2021-arm-elf\arm-eabi\lib\gnat\ravenscar-full-nrf52833\adalib\libgnat.a(s-wchstw.o)
 .ARM.extab.text.system__wch_stw__get_next_code__get_utf_32__get_hex.3
                0x000000000000cc74        0xc C:\gnat\2021-arm-elf\arm-eabi\lib\gnat\ravenscar-full-nrf52833\adalib\libgnat.a(s-wchstw.o)
 .ARM.extab.text.system__wch_stw__get_next_code__get_utf_32.1
                0x000000000000cc80        0x0 C:\gnat\2021-arm-elf\arm-eabi\lib\gnat\ravenscar-full-nrf52833\adalib\libgnat.a(s-wchstw.o)
 .ARM.extab.text.system__wch_stw__get_next_code
                0x000000000000cc80        0x0 C:\gnat\2021-arm-elf\arm-eabi\lib\gnat\ravenscar-full-nrf52833\adalib\libgnat.a(s-wchstw.o)
 .ARM.extab.text.system__wch_stw__string_to_wide_string
                0x000000000000cc80        0x0 C:\gnat\2021-arm-elf\arm-eabi\lib\gnat\ravenscar-full-nrf52833\adalib\libgnat.a(s-wchstw.o)
 .ARM.extab.text.system__wch_stw__string_to_wide_wide_string
                0x000000000000cc80        0x0 C:\gnat\2021-arm-elf\arm-eabi\lib\gnat\ravenscar-full-nrf52833\adalib\libgnat.a(s-wchstw.o)
 .ARM.extab.text.__gnat_last_chance_handler
                0x000000000000cc80       0x23 C:\gnat\2021-arm-elf\arm-eabi\lib\gnat\ravenscar-full-nrf52833\adalib\libgnat.a(a-elchha.o)
 .ARM.extab.text.ada__strings__text_buffers__utils__utf_8_length
                0x000000000000cca3        0x0 C:\gnat\2021-arm-elf\arm-eabi\lib\gnat\ravenscar-full-nrf52833\adalib\libgnat.a(a-stbuut.o)
 *fill*         0x000000000000cca3        0x1 
 .ARM.extab.text.ada__strings__text_buffers__utils__utf_8_linesPredicate
                0x000000000000cca4       0x19 C:\gnat\2021-arm-elf\arm-eabi\lib\gnat\ravenscar-full-nrf52833\adalib\libgnat.a(a-stbuut.o)
 *fill*         0x000000000000ccbd        0x3 
 .ARM.extab.text.ada__strings__text_buffers__utils__utf_8Predicate
                0x000000000000ccc0       0x19 C:\gnat\2021-arm-elf\arm-eabi\lib\gnat\ravenscar-full-nrf52833\adalib\libgnat.a(a-stbuut.o)
 .ARM.extab.text.ada__strings__text_buffers__utils__nl
                0x000000000000ccd9        0x0 C:\gnat\2021-arm-elf\arm-eabi\lib\gnat\ravenscar-full-nrf52833\adalib\libgnat.a(a-stbuut.o)
 .ARM.extab.text.ada__strings__text_buffers__utils__put_7bit
                0x000000000000ccd9        0x0 C:\gnat\2021-arm-elf\arm-eabi\lib\gnat\ravenscar-full-nrf52833\adalib\libgnat.a(a-stbuut.o)
 .ARM.extab.text.ada__strings__text_buffers__utils__put_character
                0x000000000000ccd9        0x0 C:\gnat\2021-arm-elf\arm-eabi\lib\gnat\ravenscar-full-nrf52833\adalib\libgnat.a(a-stbuut.o)
 .ARM.extab.text.ada__strings__text_buffers__utils__put_wide_character
                0x000000000000ccd9        0x0 C:\gnat\2021-arm-elf\arm-eabi\lib\gnat\ravenscar-full-nrf52833\adalib\libgnat.a(a-stbuut.o)
 .ARM.extab.text.ada__strings__text_buffers__utils__put_wide_wide_character
                0x000000000000ccd9        0x0 C:\gnat\2021-arm-elf\arm-eabi\lib\gnat\ravenscar-full-nrf52833\adalib\libgnat.a(a-stbuut.o)
 .ARM.extab.text.ada__strings__text_buffers__utils__put_utf_8_lines
                0x000000000000ccd9        0x0 C:\gnat\2021-arm-elf\arm-eabi\lib\gnat\ravenscar-full-nrf52833\adalib\libgnat.a(a-stbuut.o)
 .ARM.extab.text.ada__strings__text_buffers__utils__column
                0x000000000000ccd9        0x0 C:\gnat\2021-arm-elf\arm-eabi\lib\gnat\ravenscar-full-nrf52833\adalib\libgnat.a(a-stbuut.o)
 .ARM.extab.text.ada__strings__text_buffers__utils__tab_to_column
                0x000000000000ccd9        0x0 C:\gnat\2021-arm-elf\arm-eabi\lib\gnat\ravenscar-full-nrf52833\adalib\libgnat.a(a-stbuut.o)
 *fill*         0x000000000000ccd9        0x3 
 .ARM.extab.text.ada__strings__utf_encoding__wide_wide_strings__decode__get_continuation__2.0
                0x000000000000ccdc        0xc C:\gnat\2021-arm-elf\arm-eabi\lib\gnat\ravenscar-full-nrf52833\adalib\libgnat.a(a-suezst.o)
 .ARM.extab.text.ada__strings__utf_encoding__wide_wide_strings__decode__2
                0x000000000000cce8        0x0 C:\gnat\2021-arm-elf\arm-eabi\lib\gnat\ravenscar-full-nrf52833\adalib\libgnat.a(a-suezst.o)
 .ARM.extab.text.ada__strings__utf_encoding__wide_wide_strings__decode__3
                0x000000000000cce8        0x0 C:\gnat\2021-arm-elf\arm-eabi\lib\gnat\ravenscar-full-nrf52833\adalib\libgnat.a(a-suezst.o)
 .ARM.extab.text.ada__strings__utf_encoding__wide_wide_strings__decode
                0x000000000000cce8        0x0 C:\gnat\2021-arm-elf\arm-eabi\lib\gnat\ravenscar-full-nrf52833\adalib\libgnat.a(a-suezst.o)
 .ARM.extab.text.ada__strings__utf_encoding__wide_wide_strings__encode__2
                0x000000000000cce8        0x0 C:\gnat\2021-arm-elf\arm-eabi\lib\gnat\ravenscar-full-nrf52833\adalib\libgnat.a(a-suezst.o)
 .ARM.extab.text.ada__strings__utf_encoding__wide_wide_strings__encode__3
                0x000000000000cce8        0x0 C:\gnat\2021-arm-elf\arm-eabi\lib\gnat\ravenscar-full-nrf52833\adalib\libgnat.a(a-suezst.o)
 .ARM.extab.text.ada__strings__utf_encoding__wide_wide_strings__encode
                0x000000000000cce8        0x0 C:\gnat\2021-arm-elf\arm-eabi\lib\gnat\ravenscar-full-nrf52833\adalib\libgnat.a(a-suezst.o)
 .ARM.extab.text.gnat__debug_utilities__image__2
                0x000000000000cce8        0x0 C:\gnat\2021-arm-elf\arm-eabi\lib\gnat\ravenscar-full-nrf52833\adalib\libgnat.a(g-debuti.o)
 .ARM.extab.text.gnat__debug_utilities__image
                0x000000000000cce8        0x0 C:\gnat\2021-arm-elf\arm-eabi\lib\gnat\ravenscar-full-nrf52833\adalib\libgnat.a(g-debuti.o)
 .ARM.extab.text.gnat__debug_utilities__image_c
                0x000000000000cce8        0x0 C:\gnat\2021-arm-elf\arm-eabi\lib\gnat\ravenscar-full-nrf52833\adalib\libgnat.a(g-debuti.o)
 .ARM.extab.text.gnat__debug_utilities__value
                0x000000000000cce8        0x0 C:\gnat\2021-arm-elf\arm-eabi\lib\gnat\ravenscar-full-nrf52833\adalib\libgnat.a(g-debuti.o)
 .ARM.extab.text.system__case_util__to_lower
                0x000000000000cce8        0x0 C:\gnat\2021-arm-elf\arm-eabi\lib\gnat\ravenscar-full-nrf52833\adalib\libgnat.a(s-casuti.o)
 .ARM.extab.text.system__case_util__to_lower__2
                0x000000000000cce8        0x0 C:\gnat\2021-arm-elf\arm-eabi\lib\gnat\ravenscar-full-nrf52833\adalib\libgnat.a(s-casuti.o)
 .ARM.extab.text.system__case_util__to_lower__3
                0x000000000000cce8        0x0 C:\gnat\2021-arm-elf\arm-eabi\lib\gnat\ravenscar-full-nrf52833\adalib\libgnat.a(s-casuti.o)
 .ARM.extab.text.system__case_util__to_mixed
                0x000000000000cce8        0x0 C:\gnat\2021-arm-elf\arm-eabi\lib\gnat\ravenscar-full-nrf52833\adalib\libgnat.a(s-casuti.o)
 .ARM.extab.text.system__case_util__to_mixed__2
                0x000000000000cce8        0x0 C:\gnat\2021-arm-elf\arm-eabi\lib\gnat\ravenscar-full-nrf52833\adalib\libgnat.a(s-casuti.o)
 .ARM.extab.text.system__case_util__to_upper
                0x000000000000cce8        0x0 C:\gnat\2021-arm-elf\arm-eabi\lib\gnat\ravenscar-full-nrf52833\adalib\libgnat.a(s-casuti.o)
 .ARM.extab.text.system__case_util__to_upper__2
                0x000000000000cce8        0x0 C:\gnat\2021-arm-elf\arm-eabi\lib\gnat\ravenscar-full-nrf52833\adalib\libgnat.a(s-casuti.o)
 .ARM.extab.text.system__case_util__to_upper__3
                0x000000000000cce8        0x0 C:\gnat\2021-arm-elf\arm-eabi\lib\gnat\ravenscar-full-nrf52833\adalib\libgnat.a(s-casuti.o)
 .ARM.extab.text.system__wch_jis__euc_to_jis
                0x000000000000cce8        0xc C:\gnat\2021-arm-elf\arm-eabi\lib\gnat\ravenscar-full-nrf52833\adalib\libgnat.a(s-wchjis.o)
 .ARM.extab.text.system__wch_jis__jis_to_euc
                0x000000000000ccf4        0xc C:\gnat\2021-arm-elf\arm-eabi\lib\gnat\ravenscar-full-nrf52833\adalib\libgnat.a(s-wchjis.o)
 .ARM.extab.text.system__wch_jis__jis_to_shift_jis
                0x000000000000cd00        0x0 C:\gnat\2021-arm-elf\arm-eabi\lib\gnat\ravenscar-full-nrf52833\adalib\libgnat.a(s-wchjis.o)
 .ARM.extab.text.system__wch_jis__shift_jis_to_jis
                0x000000000000cd00        0xc C:\gnat\2021-arm-elf\arm-eabi\lib\gnat\ravenscar-full-nrf52833\adalib\libgnat.a(s-wchjis.o)
 .ARM.extab.text._ada_setup_board
                0x000000000000cd0c        0x0 C:\gnat\2021-arm-elf\arm-eabi\lib\gnat\ravenscar-full-nrf52833\adalib\libgnat.a(setup_board.o)
 .ARM.extab.text.ada__strings__utf_encoding__encoding
                0x000000000000cd0c        0x0 C:\gnat\2021-arm-elf\arm-eabi\lib\gnat\ravenscar-full-nrf52833\adalib\libgnat.a(a-stuten.o)
 .ARM.extab.text.ada__strings__utf_encoding__from_utf_16
                0x000000000000cd0c        0x0 C:\gnat\2021-arm-elf\arm-eabi\lib\gnat\ravenscar-full-nrf52833\adalib\libgnat.a(a-stuten.o)
 .ARM.extab.text.ada__strings__utf_encoding__raise_encoding_error
                0x000000000000cd0c        0x0 C:\gnat\2021-arm-elf\arm-eabi\lib\gnat\ravenscar-full-nrf52833\adalib\libgnat.a(a-stuten.o)
 .ARM.extab.text.ada__strings__utf_encoding__to_utf_16
                0x000000000000cd0c        0x0 C:\gnat\2021-arm-elf\arm-eabi\lib\gnat\ravenscar-full-nrf52833\adalib\libgnat.a(a-stuten.o)
 .ARM.extab     0x000000000000cd0c        0x0 c:/gnat/2021-arm-elf/bin/../lib/gcc/arm-eabi/10.3.1/thumb/v7e-m/fpv4-sp/hard\libgcc.a(_udivmoddi4.o)
 .ARM.extab     0x000000000000cd0c        0x0 c:/gnat/2021-arm-elf/bin/../lib/gcc/arm-eabi/10.3.1/thumb/v7e-m/fpv4-sp/hard\libgcc.a(unwind-arm.o)
 .ARM.extab     0x000000000000cd0c       0x18 c:/gnat/2021-arm-elf/bin/../lib/gcc/arm-eabi/10.3.1/thumb/v7e-m/fpv4-sp/hard\libgcc.a(pr-support.o)
 .ARM.extab.text.unlikely
                0x000000000000cd24        0x0 c:/gnat/2021-arm-elf/bin/../lib/gcc/arm-eabi/10.3.1/thumb/v7e-m/fpv4-sp/hard\libgcc.a(pr-support.o)

.ARM.exidx      0x000000000000cd24      0xbe0
 *(.ARM.exidx* .gnu.linkonce.armexidx.*)
 .ARM.exidx     0x000000000000cd24        0x8 test.o
 .ARM.exidx     0x000000000000cd2c       0x20 b__test.o
                                         0x28 (size before relaxing)
 .ARM.exidx     0x000000000000cd4c       0x20 C:\Users\Stigen\Documents\GitHub\ADA-project\CarProject\obj\tasking.o
                                         0x28 (size before relaxing)
 .ARM.exidx.text.ada__real_time__Oadd__2
                0x000000000000cd6c        0x8 C:\gnat\2021-arm-elf\arm-eabi\lib\gnat\ravenscar-full-nrf52833\adalib\libgnarl.a(a-reatim.o)
 .ARM.exidx.text.ada__real_time__Omultiply
                0x000000000000cd74        0x8 C:\gnat\2021-arm-elf\arm-eabi\lib\gnat\ravenscar-full-nrf52833\adalib\libgnarl.a(a-reatim.o)
 .ARM.exidx.text.ada__real_time__Omultiply__2
                0x000000000000cd7c        0x0 C:\gnat\2021-arm-elf\arm-eabi\lib\gnat\ravenscar-full-nrf52833\adalib\libgnarl.a(a-reatim.o)
                                          0x8 (size before relaxing)
 .ARM.exidx.text.ada__real_time__Oadd
                0x000000000000cd7c        0x8 C:\gnat\2021-arm-elf\arm-eabi\lib\gnat\ravenscar-full-nrf52833\adalib\libgnarl.a(a-reatim.o)
 .ARM.exidx.text.ada__real_time__Oadd__3
                0x000000000000cd84        0x8 C:\gnat\2021-arm-elf\arm-eabi\lib\gnat\ravenscar-full-nrf52833\adalib\libgnarl.a(a-reatim.o)
 .ARM.exidx.text.ada__real_time__Osubtract
                0x000000000000cd8c        0x8 C:\gnat\2021-arm-elf\arm-eabi\lib\gnat\ravenscar-full-nrf52833\adalib\libgnarl.a(a-reatim.o)
 .ARM.exidx.text.ada__real_time__Osubtract__2
                0x000000000000cd94        0x0 C:\gnat\2021-arm-elf\arm-eabi\lib\gnat\ravenscar-full-nrf52833\adalib\libgnarl.a(a-reatim.o)
                                          0x8 (size before relaxing)
 .ARM.exidx.text.ada__real_time__Osubtract__3
                0x000000000000cd94        0x8 C:\gnat\2021-arm-elf\arm-eabi\lib\gnat\ravenscar-full-nrf52833\adalib\libgnarl.a(a-reatim.o)
 .ARM.exidx.text.ada__real_time__Osubtract__4
                0x000000000000cd9c        0x8 C:\gnat\2021-arm-elf\arm-eabi\lib\gnat\ravenscar-full-nrf52833\adalib\libgnarl.a(a-reatim.o)
 .ARM.exidx.text.ada__real_time__Odivide
                0x000000000000cda4        0x8 C:\gnat\2021-arm-elf\arm-eabi\lib\gnat\ravenscar-full-nrf52833\adalib\libgnarl.a(a-reatim.o)
 .ARM.exidx.text.ada__real_time__Odivide__2
                0x000000000000cdac        0x8 C:\gnat\2021-arm-elf\arm-eabi\lib\gnat\ravenscar-full-nrf52833\adalib\libgnarl.a(a-reatim.o)
 .ARM.exidx.text.ada__real_time__clock
                0x000000000000cdb4        0x8 C:\gnat\2021-arm-elf\arm-eabi\lib\gnat\ravenscar-full-nrf52833\adalib\libgnarl.a(a-reatim.o)
 .ARM.exidx.text.ada__real_time__microseconds
                0x000000000000cdbc        0x8 C:\gnat\2021-arm-elf\arm-eabi\lib\gnat\ravenscar-full-nrf52833\adalib\libgnarl.a(a-reatim.o)
 .ARM.exidx.text.ada__real_time__milliseconds
                0x000000000000cdc4        0x0 C:\gnat\2021-arm-elf\arm-eabi\lib\gnat\ravenscar-full-nrf52833\adalib\libgnarl.a(a-reatim.o)
                                          0x8 (size before relaxing)
 .ARM.exidx.text.ada__real_time__minutes
                0x000000000000cdc4        0x0 C:\gnat\2021-arm-elf\arm-eabi\lib\gnat\ravenscar-full-nrf52833\adalib\libgnarl.a(a-reatim.o)
                                          0x8 (size before relaxing)
 .ARM.exidx.text.ada__real_time__mul_div
                0x000000000000cdc4        0x8 C:\gnat\2021-arm-elf\arm-eabi\lib\gnat\ravenscar-full-nrf52833\adalib\libgnarl.a(a-reatim.o)
 .ARM.exidx.text.ada__real_time__nanoseconds
                0x000000000000cdcc        0x8 C:\gnat\2021-arm-elf\arm-eabi\lib\gnat\ravenscar-full-nrf52833\adalib\libgnarl.a(a-reatim.o)
 .ARM.exidx.text.ada__real_time__rounded_div
                0x000000000000cdd4        0x0 C:\gnat\2021-arm-elf\arm-eabi\lib\gnat\ravenscar-full-nrf52833\adalib\libgnarl.a(a-reatim.o)
                                          0x8 (size before relaxing)
 .ARM.exidx.text.ada__real_time__seconds
                0x000000000000cdd4        0x0 C:\gnat\2021-arm-elf\arm-eabi\lib\gnat\ravenscar-full-nrf52833\adalib\libgnarl.a(a-reatim.o)
                                          0x8 (size before relaxing)
 .ARM.exidx.text.ada__real_time__split
                0x000000000000cdd4        0x8 C:\gnat\2021-arm-elf\arm-eabi\lib\gnat\ravenscar-full-nrf52833\adalib\libgnarl.a(a-reatim.o)
 .ARM.exidx.text.ada__real_time__time_of
                0x000000000000cddc        0x0 C:\gnat\2021-arm-elf\arm-eabi\lib\gnat\ravenscar-full-nrf52833\adalib\libgnarl.a(a-reatim.o)
                                          0x8 (size before relaxing)
 .ARM.exidx.text.ada__real_time__to_duration
                0x000000000000cddc        0x8 C:\gnat\2021-arm-elf\arm-eabi\lib\gnat\ravenscar-full-nrf52833\adalib\libgnarl.a(a-reatim.o)
 .ARM.exidx.text.ada__real_time__to_time_span
                0x000000000000cde4        0x0 C:\gnat\2021-arm-elf\arm-eabi\lib\gnat\ravenscar-full-nrf52833\adalib\libgnarl.a(a-reatim.o)
                                          0x8 (size before relaxing)
 .ARM.exidx.text.ada__real_time___elabb
                0x000000000000cde4        0x0 C:\gnat\2021-arm-elf\arm-eabi\lib\gnat\ravenscar-full-nrf52833\adalib\libgnarl.a(a-reatim.o)
                                          0x8 (size before relaxing)
 .ARM.exidx.text.ada__real_time__delays__delay_until
                0x000000000000cde4        0x8 C:\gnat\2021-arm-elf\arm-eabi\lib\gnat\ravenscar-full-nrf52833\adalib\libgnarl.a(a-retide.o)
 .ARM.exidx.text.ada__real_time__delays__to_duration
                0x000000000000cdec        0x8 C:\gnat\2021-arm-elf\arm-eabi\lib\gnat\ravenscar-full-nrf52833\adalib\libgnarl.a(a-retide.o)
 .ARM.exidx.text.system__bb__board_support__interrupt_handler
                0x000000000000cdf4        0x8 C:\gnat\2021-arm-elf\arm-eabi\lib\gnat\ravenscar-full-nrf52833\adalib\libgnarl.a(s-bbbosu.o)
 .ARM.exidx.text.system__bb__board_support__time__max_timer_interval
                0x000000000000cdfc        0x8 C:\gnat\2021-arm-elf\arm-eabi\lib\gnat\ravenscar-full-nrf52833\adalib\libgnarl.a(s-bbbosu.o)
 .ARM.exidx.text.system__bb__board_support__time__read_clock
                0x000000000000ce04        0x0 C:\gnat\2021-arm-elf\arm-eabi\lib\gnat\ravenscar-full-nrf52833\adalib\libgnarl.a(s-bbbosu.o)
                                          0x8 (size before relaxing)
 .ARM.exidx.text.system__bb__board_support__time__clear_alarm_interrupt
                0x000000000000ce04        0x0 C:\gnat\2021-arm-elf\arm-eabi\lib\gnat\ravenscar-full-nrf52833\adalib\libgnarl.a(s-bbbosu.o)
                                          0x8 (size before relaxing)
 .ARM.exidx.text.system__bb__board_support__time__set_alarm
                0x000000000000ce04        0x0 C:\gnat\2021-arm-elf\arm-eabi\lib\gnat\ravenscar-full-nrf52833\adalib\libgnarl.a(s-bbbosu.o)
                                          0x8 (size before relaxing)
 .ARM.exidx.text.system__bb__board_support__time__install_alarm_handler
                0x000000000000ce04        0x8 C:\gnat\2021-arm-elf\arm-eabi\lib\gnat\ravenscar-full-nrf52833\adalib\libgnarl.a(s-bbbosu.o)
 .ARM.exidx.text.system__bb__board_support__multiprocessors__number_of_cpus
                0x000000000000ce0c        0x8 C:\gnat\2021-arm-elf\arm-eabi\lib\gnat\ravenscar-full-nrf52833\adalib\libgnarl.a(s-bbbosu.o)
 .ARM.exidx.text.system__bb__board_support__multiprocessors__current_cpu
                0x000000000000ce14        0x0 C:\gnat\2021-arm-elf\arm-eabi\lib\gnat\ravenscar-full-nrf52833\adalib\libgnarl.a(s-bbbosu.o)
                                          0x8 (size before relaxing)
 .ARM.exidx.text.system__bb__board_support__multiprocessors__poke_cpu
                0x000000000000ce14        0x0 C:\gnat\2021-arm-elf\arm-eabi\lib\gnat\ravenscar-full-nrf52833\adalib\libgnarl.a(s-bbbosu.o)
                                          0x8 (size before relaxing)
 .ARM.exidx.text.system__bb__board_support__multiprocessors__start_all_cpus
                0x000000000000ce14        0x0 C:\gnat\2021-arm-elf\arm-eabi\lib\gnat\ravenscar-full-nrf52833\adalib\libgnarl.a(s-bbbosu.o)
                                          0x8 (size before relaxing)
 .ARM.exidx.text.system__bb__board_support__interrupts__install_interrupt_handler
                0x000000000000ce14        0x0 C:\gnat\2021-arm-elf\arm-eabi\lib\gnat\ravenscar-full-nrf52833\adalib\libgnarl.a(s-bbbosu.o)
                                          0x8 (size before relaxing)
 .ARM.exidx.text.system__bb__board_support__interrupts__priority_of_interrupt
                0x000000000000ce14        0x0 C:\gnat\2021-arm-elf\arm-eabi\lib\gnat\ravenscar-full-nrf52833\adalib\libgnarl.a(s-bbbosu.o)
                                          0x8 (size before relaxing)
 .ARM.exidx.text.system__bb__board_support__interrupts__power_down
                0x000000000000ce14        0x0 C:\gnat\2021-arm-elf\arm-eabi\lib\gnat\ravenscar-full-nrf52833\adalib\libgnarl.a(s-bbbosu.o)
                                          0x8 (size before relaxing)
 .ARM.exidx.text.system__bb__board_support__interrupts__set_current_priority
                0x000000000000ce14        0x0 C:\gnat\2021-arm-elf\arm-eabi\lib\gnat\ravenscar-full-nrf52833\adalib\libgnarl.a(s-bbbosu.o)
                                          0x8 (size before relaxing)
 .ARM.exidx.text.system__bb__board_support__TipBIP
                0x000000000000ce14        0x0 C:\gnat\2021-arm-elf\arm-eabi\lib\gnat\ravenscar-full-nrf52833\adalib\libgnarl.a(s-bbbosu.o)
                                          0x8 (size before relaxing)
 .ARM.exidx.text.system__bb__board_support__initialize_board
                0x000000000000ce14        0x8 C:\gnat\2021-arm-elf\arm-eabi\lib\gnat\ravenscar-full-nrf52833\adalib\libgnarl.a(s-bbbosu.o)
 .ARM.exidx.text.system__bb__board_support__enable_interrupt_request
                0x000000000000ce1c        0x8 C:\gnat\2021-arm-elf\arm-eabi\lib\gnat\ravenscar-full-nrf52833\adalib\libgnarl.a(s-bbbosu.o)
 .ARM.exidx.text.system__bb__board_support__trigger_interrupt
                0x000000000000ce24        0x0 C:\gnat\2021-arm-elf\arm-eabi\lib\gnat\ravenscar-full-nrf52833\adalib\libgnarl.a(s-bbbosu.o)
                                          0x8 (size before relaxing)
 .ARM.exidx.text.system__bb__board_support__to_pri
                0x000000000000ce24        0x0 C:\gnat\2021-arm-elf\arm-eabi\lib\gnat\ravenscar-full-nrf52833\adalib\libgnarl.a(s-bbbosu.o)
                                          0x8 (size before relaxing)
 .ARM.exidx.text.system__bb__board_support__to_priority
                0x000000000000ce24        0x0 C:\gnat\2021-arm-elf\arm-eabi\lib\gnat\ravenscar-full-nrf52833\adalib\libgnarl.a(s-bbbosu.o)
                                          0x8 (size before relaxing)
 .ARM.exidx.text.system__bb__cpu_primitives__gnat_error_handler
                0x000000000000ce24        0x8 C:\gnat\2021-arm-elf\arm-eabi\lib\gnat\ravenscar-full-nrf52833\adalib\libgnarl.a(s-bbcppr.o)
 .ARM.exidx.text.system__bb__cpu_primitives__Tcontext_bufferBIP
                0x000000000000ce2c        0x8 C:\gnat\2021-arm-elf\arm-eabi\lib\gnat\ravenscar-full-nrf52833\adalib\libgnarl.a(s-bbcppr.o)
 .ARM.exidx.text.system__bb__cpu_primitives__hardware_contextIP
                0x000000000000ce34        0x0 C:\gnat\2021-arm-elf\arm-eabi\lib\gnat\ravenscar-full-nrf52833\adalib\libgnarl.a(s-bbcppr.o)
                                          0x8 (size before relaxing)
 .ARM.exidx.text.primask
                0x000000000000ce34        0x0 C:\gnat\2021-arm-elf\arm-eabi\lib\gnat\ravenscar-full-nrf52833\adalib\libgnarl.a(s-bbcppr.o)
                                          0x8 (size before relaxing)
 .ARM.exidx.text.system__bb__cpu_primitives__initialize_cpu
                0x000000000000ce34        0x8 C:\gnat\2021-arm-elf\arm-eabi\lib\gnat\ravenscar-full-nrf52833\adalib\libgnarl.a(s-bbcppr.o)
 .ARM.exidx.text.system__bb__cpu_primitives__initialize_stack
                0x000000000000ce3c        0x8 C:\gnat\2021-arm-elf\arm-eabi\lib\gnat\ravenscar-full-nrf52833\adalib\libgnarl.a(s-bbcppr.o)
 .ARM.exidx.text.system__bb__cpu_primitives__context_switch
                0x000000000000ce44        0x8 C:\gnat\2021-arm-elf\arm-eabi\lib\gnat\ravenscar-full-nrf52833\adalib\libgnarl.a(s-bbcppr.o)
 .ARM.exidx.text.system__bb__cpu_primitives__get_context
                0x000000000000ce4c        0x8 C:\gnat\2021-arm-elf\arm-eabi\lib\gnat\ravenscar-full-nrf52833\adalib\libgnarl.a(s-bbcppr.o)
 .ARM.exidx.text.__gnat_irq_trap
                0x000000000000ce54        0x8 C:\gnat\2021-arm-elf\arm-eabi\lib\gnat\ravenscar-full-nrf52833\adalib\libgnarl.a(s-bbcppr.o)
 .ARM.exidx.text.__gnat_sv_call_trap
                0x000000000000ce5c        0x8 C:\gnat\2021-arm-elf\arm-eabi\lib\gnat\ravenscar-full-nrf52833\adalib\libgnarl.a(s-bbcppr.o)
 .ARM.exidx.text.system__bb__cpu_primitives__set_context
                0x000000000000ce64        0x8 C:\gnat\2021-arm-elf\arm-eabi\lib\gnat\ravenscar-full-nrf52833\adalib\libgnarl.a(s-bbcppr.o)
 .ARM.exidx.text.__gnat_sys_tick_trap
                0x000000000000ce6c        0x8 C:\gnat\2021-arm-elf\arm-eabi\lib\gnat\ravenscar-full-nrf52833\adalib\libgnarl.a(s-bbcppr.o)
 .ARM.exidx.text.system__bb__cpu_primitives__initialize_context
                0x000000000000ce74        0x8 C:\gnat\2021-arm-elf\arm-eabi\lib\gnat\ravenscar-full-nrf52833\adalib\libgnarl.a(s-bbcppr.o)
 .ARM.exidx.text.system__bb__cpu_primitives__install_error_handlers
                0x000000000000ce7c        0x0 C:\gnat\2021-arm-elf\arm-eabi\lib\gnat\ravenscar-full-nrf52833\adalib\libgnarl.a(s-bbcppr.o)
                                          0x8 (size before relaxing)
 .ARM.exidx.text.system__bb__cpu_primitives__install_trap_handler
                0x000000000000ce7c        0x0 C:\gnat\2021-arm-elf\arm-eabi\lib\gnat\ravenscar-full-nrf52833\adalib\libgnarl.a(s-bbcppr.o)
                                          0x8 (size before relaxing)
 .ARM.exidx.text.system__bb__cpu_primitives__disable_interrupts
                0x000000000000ce7c        0x0 C:\gnat\2021-arm-elf\arm-eabi\lib\gnat\ravenscar-full-nrf52833\adalib\libgnarl.a(s-bbcppr.o)
                                          0x8 (size before relaxing)
 .ARM.exidx.text.system__bb__cpu_primitives__enable_interrupts
                0x000000000000ce7c        0x0 C:\gnat\2021-arm-elf\arm-eabi\lib\gnat\ravenscar-full-nrf52833\adalib\libgnarl.a(s-bbcppr.o)
                                          0x8 (size before relaxing)
 .ARM.exidx.text.system__bb__interrupts__Tinterrupt_stacksBIP
                0x000000000000ce7c        0x0 C:\gnat\2021-arm-elf\arm-eabi\lib\gnat\ravenscar-full-nrf52833\adalib\libgnarl.a(s-bbinte.o)
                                          0x8 (size before relaxing)
 .ARM.exidx.text.system__bb__interrupts__Tinterrupt_stack_tableBIP
                0x000000000000ce7c        0x0 C:\gnat\2021-arm-elf\arm-eabi\lib\gnat\ravenscar-full-nrf52833\adalib\libgnarl.a(s-bbinte.o)
                                          0x8 (size before relaxing)
 .ARM.exidx.text.system__bb__interrupts__Thandlers_tableBIP
                0x000000000000ce7c        0x0 C:\gnat\2021-arm-elf\arm-eabi\lib\gnat\ravenscar-full-nrf52833\adalib\libgnarl.a(s-bbinte.o)
                                          0x8 (size before relaxing)
 .ARM.exidx.text.system__bb__interrupts__attach_handler
                0x000000000000ce7c        0x8 C:\gnat\2021-arm-elf\arm-eabi\lib\gnat\ravenscar-full-nrf52833\adalib\libgnarl.a(s-bbinte.o)
 .ARM.exidx.text.system__bb__interrupts__current_interrupt
                0x000000000000ce84        0x8 C:\gnat\2021-arm-elf\arm-eabi\lib\gnat\ravenscar-full-nrf52833\adalib\libgnarl.a(s-bbinte.o)
 .ARM.exidx.text.system__bb__interrupts__interrupt_wrapper
                0x000000000000ce8c        0x8 C:\gnat\2021-arm-elf\arm-eabi\lib\gnat\ravenscar-full-nrf52833\adalib\libgnarl.a(s-bbinte.o)
 .ARM.exidx.text.system__bb__interrupts__within_interrupt_stack
                0x000000000000ce94        0x8 C:\gnat\2021-arm-elf\arm-eabi\lib\gnat\ravenscar-full-nrf52833\adalib\libgnarl.a(s-bbinte.o)
 .ARM.exidx.text.system__bb__interrupts__initialize_interrupts
                0x000000000000ce9c        0x8 C:\gnat\2021-arm-elf\arm-eabi\lib\gnat\ravenscar-full-nrf52833\adalib\libgnarl.a(s-bbinte.o)
 .ARM.exidx.text.system__bb__threads__queues__change_priority
                0x000000000000cea4        0x8 C:\gnat\2021-arm-elf\arm-eabi\lib\gnat\ravenscar-full-nrf52833\adalib\libgnarl.a(s-bbthqu.o)
 .ARM.exidx.text.__gnat_context_switch_needed
                0x000000000000ceac        0x0 C:\gnat\2021-arm-elf\arm-eabi\lib\gnat\ravenscar-full-nrf52833\adalib\libgnarl.a(s-bbthqu.o)
                                          0x8 (size before relaxing)
 .ARM.exidx.text.system__bb__threads__queues__current_priority
                0x000000000000ceac        0x0 C:\gnat\2021-arm-elf\arm-eabi\lib\gnat\ravenscar-full-nrf52833\adalib\libgnarl.a(s-bbthqu.o)
                                          0x8 (size before relaxing)
 .ARM.exidx.text.system__bb__threads__queues__extract
                0x000000000000ceac        0x0 C:\gnat\2021-arm-elf\arm-eabi\lib\gnat\ravenscar-full-nrf52833\adalib\libgnarl.a(s-bbthqu.o)
                                          0x8 (size before relaxing)
 .ARM.exidx.text.system__bb__threads__queues__first_thread
                0x000000000000ceac        0x0 C:\gnat\2021-arm-elf\arm-eabi\lib\gnat\ravenscar-full-nrf52833\adalib\libgnarl.a(s-bbthqu.o)
                                          0x8 (size before relaxing)
 .ARM.exidx.text.system__bb__threads__queues__get_next_alarm_time
                0x000000000000ceac        0x0 C:\gnat\2021-arm-elf\arm-eabi\lib\gnat\ravenscar-full-nrf52833\adalib\libgnarl.a(s-bbthqu.o)
                                          0x8 (size before relaxing)
 .ARM.exidx.text.system__bb__threads__queues__insert
                0x000000000000ceac        0x0 C:\gnat\2021-arm-elf\arm-eabi\lib\gnat\ravenscar-full-nrf52833\adalib\libgnarl.a(s-bbthqu.o)
                                          0x8 (size before relaxing)
 .ARM.exidx.text.system__bb__threads__queues__insert_alarm
                0x000000000000ceac        0x0 C:\gnat\2021-arm-elf\arm-eabi\lib\gnat\ravenscar-full-nrf52833\adalib\libgnarl.a(s-bbthqu.o)
                                          0x8 (size before relaxing)
 .ARM.exidx.text.system__bb__threads__queues__running_thread
                0x000000000000ceac        0x0 C:\gnat\2021-arm-elf\arm-eabi\lib\gnat\ravenscar-full-nrf52833\adalib\libgnarl.a(s-bbthqu.o)
                                          0x8 (size before relaxing)
 .ARM.exidx.text.system__bb__threads__queues__wakeup_expired_alarms
                0x000000000000ceac        0x0 C:\gnat\2021-arm-elf\arm-eabi\lib\gnat\ravenscar-full-nrf52833\adalib\libgnarl.a(s-bbthqu.o)
                                          0x8 (size before relaxing)
 .ARM.exidx.text.system__bb__threads__queues__yield
                0x000000000000ceac        0x0 C:\gnat\2021-arm-elf\arm-eabi\lib\gnat\ravenscar-full-nrf52833\adalib\libgnarl.a(s-bbthqu.o)
                                          0x8 (size before relaxing)
 .ARM.exidx.text.system__bb__timing_events___size
                0x000000000000ceac        0x0 C:\gnat\2021-arm-elf\arm-eabi\lib\gnat\ravenscar-full-nrf52833\adalib\libgnarl.a(s-bbtiev.o)
                                          0x8 (size before relaxing)
 .ARM.exidx.text.system__bb__timing_events__timing_eventDF
                0x000000000000ceac        0x0 C:\gnat\2021-arm-elf\arm-eabi\lib\gnat\ravenscar-full-nrf52833\adalib\libgnarl.a(s-bbtiev.o)
                                          0x8 (size before relaxing)
 .ARM.exidx.text.system__bb__timing_events__time_of_event
                0x000000000000ceac        0x0 C:\gnat\2021-arm-elf\arm-eabi\lib\gnat\ravenscar-full-nrf52833\adalib\libgnarl.a(s-bbtiev.o)
                                          0x8 (size before relaxing)
 .ARM.exidx.text.system__bb__timing_events__timing_eventPI
                0x000000000000ceac        0x0 C:\gnat\2021-arm-elf\arm-eabi\lib\gnat\ravenscar-full-nrf52833\adalib\libgnarl.a(s-bbtiev.o)
                                          0x8 (size before relaxing)
 .ARM.exidx.text.system__bb__timing_events__set_handler
                0x000000000000ceac        0x8 C:\gnat\2021-arm-elf\arm-eabi\lib\gnat\ravenscar-full-nrf52833\adalib\libgnarl.a(s-bbtiev.o)
 .ARM.exidx.text.system__bb__timing_events__cancel_handler
                0x000000000000ceb4        0x8 C:\gnat\2021-arm-elf\arm-eabi\lib\gnat\ravenscar-full-nrf52833\adalib\libgnarl.a(s-bbtiev.o)
 .ARM.exidx.text.system__bb__timing_events__timing_eventIP
                0x000000000000cebc        0x8 C:\gnat\2021-arm-elf\arm-eabi\lib\gnat\ravenscar-full-nrf52833\adalib\libgnarl.a(s-bbtiev.o)
 .ARM.exidx.text.system__bb__timing_events__Ttiming_eventCFD
                0x000000000000cec4        0x0 C:\gnat\2021-arm-elf\arm-eabi\lib\gnat\ravenscar-full-nrf52833\adalib\libgnarl.a(s-bbtiev.o)
                                          0x8 (size before relaxing)
 .ARM.exidx.text.system__bb__timing_events__finalize_spec
                0x000000000000cec4        0x0 C:\gnat\2021-arm-elf\arm-eabi\lib\gnat\ravenscar-full-nrf52833\adalib\libgnarl.a(s-bbtiev.o)
                                          0x8 (size before relaxing)
 .ARM.exidx.text.system__bb__timing_events__execute_expired_timing_events
                0x000000000000cec4        0x8 C:\gnat\2021-arm-elf\arm-eabi\lib\gnat\ravenscar-full-nrf52833\adalib\libgnarl.a(s-bbtiev.o)
 .ARM.exidx.text.system__bb__timing_events__get_next_timeout
                0x000000000000cecc        0x8 C:\gnat\2021-arm-elf\arm-eabi\lib\gnat\ravenscar-full-nrf52833\adalib\libgnarl.a(s-bbtiev.o)
 .ARM.exidx.text.system__bb__timing_events___elabs
                0x000000000000ced4        0x0 C:\gnat\2021-arm-elf\arm-eabi\lib\gnat\ravenscar-full-nrf52833\adalib\libgnarl.a(s-bbtiev.o)
                                          0x8 (size before relaxing)
 .ARM.exidx.text.system__bb__time__alarm_handler
                0x000000000000ced4        0x8 C:\gnat\2021-arm-elf\arm-eabi\lib\gnat\ravenscar-full-nrf52833\adalib\libgnarl.a(s-bbtime.o)
 .ARM.exidx.text.system__bb__time__composite_execution_timeIP
                0x000000000000cedc        0x8 C:\gnat\2021-arm-elf\arm-eabi\lib\gnat\ravenscar-full-nrf52833\adalib\libgnarl.a(s-bbtime.o)
 .ARM.exidx.text.system__bb__time__composite_timeIP
                0x000000000000cee4        0x0 C:\gnat\2021-arm-elf\arm-eabi\lib\gnat\ravenscar-full-nrf52833\adalib\libgnarl.a(s-bbtime.o)
                                          0x8 (size before relaxing)
 .ARM.exidx.text.system__bb__time__clock
                0x000000000000cee4        0x8 C:\gnat\2021-arm-elf\arm-eabi\lib\gnat\ravenscar-full-nrf52833\adalib\libgnarl.a(s-bbtime.o)
 .ARM.exidx.text.system__bb__time__epoch
                0x000000000000ceec        0x8 C:\gnat\2021-arm-elf\arm-eabi\lib\gnat\ravenscar-full-nrf52833\adalib\libgnarl.a(s-bbtime.o)
 .ARM.exidx.text.system__bb__time__get_next_timeout
                0x000000000000cef4        0x0 C:\gnat\2021-arm-elf\arm-eabi\lib\gnat\ravenscar-full-nrf52833\adalib\libgnarl.a(s-bbtime.o)
                                          0x8 (size before relaxing)
 .ARM.exidx.text.system__bb__time__initialize_timers
                0x000000000000cef4        0x8 C:\gnat\2021-arm-elf\arm-eabi\lib\gnat\ravenscar-full-nrf52833\adalib\libgnarl.a(s-bbtime.o)
 .ARM.exidx.text.system__bb__time__update_alarm
                0x000000000000cefc        0x8 C:\gnat\2021-arm-elf\arm-eabi\lib\gnat\ravenscar-full-nrf52833\adalib\libgnarl.a(s-bbtime.o)
 .ARM.exidx.text.system__bb__time__delay_until
                0x000000000000cf04        0x0 C:\gnat\2021-arm-elf\arm-eabi\lib\gnat\ravenscar-full-nrf52833\adalib\libgnarl.a(s-bbtime.o)
                                          0x8 (size before relaxing)
 .ARM.exidx.text.system__bb__time__Oconcat
                0x000000000000cf04        0x8 C:\gnat\2021-arm-elf\arm-eabi\lib\gnat\ravenscar-full-nrf52833\adalib\libgnarl.a(s-bbtime.o)
 .ARM.exidx.text.system__bb__cpu_primitives__context_switch_trigger__initialize_context_switch
                0x000000000000cf0c        0x0 C:\gnat\2021-arm-elf\arm-eabi\lib\gnat\ravenscar-full-nrf52833\adalib\libgnarl.a(s-bcpcst.o)
                                          0x8 (size before relaxing)
 .ARM.exidx.text.system__bb__cpu_primitives__context_switch_trigger__trigger_context_switch
                0x000000000000cf0c        0x0 C:\gnat\2021-arm-elf\arm-eabi\lib\gnat\ravenscar-full-nrf52833\adalib\libgnarl.a(s-bcpcst.o)
                                          0x8 (size before relaxing)
 .ARM.exidx.text.__gnat_pend_sv_trap
                0x000000000000cf0c        0x0 C:\gnat\2021-arm-elf\arm-eabi\lib\gnat\ravenscar-full-nrf52833\adalib\libgnarl.a(s-bcpcst.o)
                                          0x8 (size before relaxing)
 .ARM.exidx.text.system__tasking__restricted__stages__create_restricted_task__2
                0x000000000000cf0c        0x8 C:\gnat\2021-arm-elf\arm-eabi\lib\gnat\ravenscar-full-nrf52833\adalib\libgnarl.a(s-tarest.o)
 .ARM.exidx.text.system__tasking__restricted__stages__task_wrapper
                0x000000000000cf14        0x8 C:\gnat\2021-arm-elf\arm-eabi\lib\gnat\ravenscar-full-nrf52833\adalib\libgnarl.a(s-tarest.o)
 .ARM.exidx.text.system__tasking__restricted__stages__activate_tasks
                0x000000000000cf1c        0x8 C:\gnat\2021-arm-elf\arm-eabi\lib\gnat\ravenscar-full-nrf52833\adalib\libgnarl.a(s-tarest.o)
 .ARM.exidx.text.__gnat_activate_all_tasks
                0x000000000000cf24        0x8 C:\gnat\2021-arm-elf\arm-eabi\lib\gnat\ravenscar-full-nrf52833\adalib\libgnarl.a(s-tarest.o)
 .ARM.exidx.text.system__tasking__restricted__stages__activate_restricted_tasks
                0x000000000000cf2c        0x0 C:\gnat\2021-arm-elf\arm-eabi\lib\gnat\ravenscar-full-nrf52833\adalib\libgnarl.a(s-tarest.o)
                                          0x8 (size before relaxing)
 .ARM.exidx.text.system__tasking__restricted__stages__complete_restricted_activation
                0x000000000000cf2c        0x8 C:\gnat\2021-arm-elf\arm-eabi\lib\gnat\ravenscar-full-nrf52833\adalib\libgnarl.a(s-tarest.o)
 .ARM.exidx.text.system__tasking__restricted__stages__complete_restricted_task
                0x000000000000cf34        0x0 C:\gnat\2021-arm-elf\arm-eabi\lib\gnat\ravenscar-full-nrf52833\adalib\libgnarl.a(s-tarest.o)
                                          0x8 (size before relaxing)
 .ARM.exidx.text.system__tasking__restricted__stages__create_restricted_task
                0x000000000000cf34        0x8 C:\gnat\2021-arm-elf\arm-eabi\lib\gnat\ravenscar-full-nrf52833\adalib\libgnarl.a(s-tarest.o)
 .ARM.exidx.text.system__tasking__restricted__stages__create_restricted_task_sequential
                0x000000000000cf3c        0x8 C:\gnat\2021-arm-elf\arm-eabi\lib\gnat\ravenscar-full-nrf52833\adalib\libgnarl.a(s-tarest.o)
 .ARM.exidx.text.system__tasking__restricted__stages__finalize_global_tasks
                0x000000000000cf44        0x8 C:\gnat\2021-arm-elf\arm-eabi\lib\gnat\ravenscar-full-nrf52833\adalib\libgnarl.a(s-tarest.o)
 .ARM.exidx.text.system__tasking__restricted__stages__restricted_terminated
                0x000000000000cf4c        0x8 C:\gnat\2021-arm-elf\arm-eabi\lib\gnat\ravenscar-full-nrf52833\adalib\libgnarl.a(s-tarest.o)
 .ARM.exidx.text.system__tasking__restricted__stages___elabb
                0x000000000000cf54        0x0 C:\gnat\2021-arm-elf\arm-eabi\lib\gnat\ravenscar-full-nrf52833\adalib\libgnarl.a(s-tarest.o)
                                          0x8 (size before relaxing)
 .ARM.exidx.text.system__tasking__debug__add_task_id
                0x000000000000cf54        0x0 C:\gnat\2021-arm-elf\arm-eabi\lib\gnat\ravenscar-full-nrf52833\adalib\libgnarl.a(s-tasdeb.o)
                                          0x8 (size before relaxing)
 .ARM.exidx.text.system__tasking__E5sIP
                0x000000000000cf54        0x0 C:\gnat\2021-arm-elf\arm-eabi\lib\gnat\ravenscar-full-nrf52833\adalib\libgnarl.a(s-taskin.o)
                                          0x8 (size before relaxing)
 .ARM.exidx.text.system__tasking__task_statesH
                0x000000000000cf54        0x0 C:\gnat\2021-arm-elf\arm-eabi\lib\gnat\ravenscar-full-nrf52833\adalib\libgnarl.a(s-taskin.o)
                                          0x8 (size before relaxing)
 .ARM.exidx.text.system__tasking__call_modesH
                0x000000000000cf54        0x0 C:\gnat\2021-arm-elf\arm-eabi\lib\gnat\ravenscar-full-nrf52833\adalib\libgnarl.a(s-taskin.o)
                                          0x8 (size before relaxing)
 .ARM.exidx.text.system__tasking__entry_queueIP
                0x000000000000cf54        0x0 C:\gnat\2021-arm-elf\arm-eabi\lib\gnat\ravenscar-full-nrf52833\adalib\libgnarl.a(s-taskin.o)
                                          0x8 (size before relaxing)
 .ARM.exidx.text.system__tasking__activation_chainIP
                0x000000000000cf54        0x0 C:\gnat\2021-arm-elf\arm-eabi\lib\gnat\ravenscar-full-nrf52833\adalib\libgnarl.a(s-taskin.o)
                                          0x8 (size before relaxing)
 .ARM.exidx.text.__gnat_get_secondary_stack
                0x000000000000cf54        0x0 C:\gnat\2021-arm-elf\arm-eabi\lib\gnat\ravenscar-full-nrf52833\adalib\libgnarl.a(s-taskin.o)
                                          0x8 (size before relaxing)
 .ARM.exidx.text.system__tasking__initialize_atcb
                0x000000000000cf54        0x8 C:\gnat\2021-arm-elf\arm-eabi\lib\gnat\ravenscar-full-nrf52833\adalib\libgnarl.a(s-taskin.o)
 .ARM.exidx.text.system__tasking__initialize
                0x000000000000cf5c        0x8 C:\gnat\2021-arm-elf\arm-eabi\lib\gnat\ravenscar-full-nrf52833\adalib\libgnarl.a(s-taskin.o)
 .ARM.exidx.text.system__tasking__self
                0x000000000000cf64        0x8 C:\gnat\2021-arm-elf\arm-eabi\lib\gnat\ravenscar-full-nrf52833\adalib\libgnarl.a(s-taskin.o)
 .ARM.exidx.text.system__tasking__storage_size
                0x000000000000cf6c        0x0 C:\gnat\2021-arm-elf\arm-eabi\lib\gnat\ravenscar-full-nrf52833\adalib\libgnarl.a(s-taskin.o)
                                          0x8 (size before relaxing)
 .ARM.exidx.text.system__bb__protection__enter_kernel
                0x000000000000cf6c        0x0 C:\gnat\2021-arm-elf\arm-eabi\lib\gnat\ravenscar-full-nrf52833\adalib\libgnarl.a(s-bbprot.o)
                                          0x8 (size before relaxing)
 .ARM.exidx.text.system__bb__protection__leave_kernel
                0x000000000000cf6c        0x8 C:\gnat\2021-arm-elf\arm-eabi\lib\gnat\ravenscar-full-nrf52833\adalib\libgnarl.a(s-bbprot.o)
 .ARM.exidx.text.system__bb__threads__thread_descriptorIP
                0x000000000000cf74        0x8 C:\gnat\2021-arm-elf\arm-eabi\lib\gnat\ravenscar-full-nrf52833\adalib\libgnarl.a(s-bbthre.o)
 .ARM.exidx.text.system__bb__threads__get_affinity
                0x000000000000cf7c        0x0 C:\gnat\2021-arm-elf\arm-eabi\lib\gnat\ravenscar-full-nrf52833\adalib\libgnarl.a(s-bbthre.o)
                                          0x8 (size before relaxing)
 .ARM.exidx.text.system__bb__threads__get_cpu
                0x000000000000cf7c        0x0 C:\gnat\2021-arm-elf\arm-eabi\lib\gnat\ravenscar-full-nrf52833\adalib\libgnarl.a(s-bbthre.o)
                                          0x8 (size before relaxing)
 .ARM.exidx.text.system__bb__threads__get_atcb
                0x000000000000cf7c        0x0 C:\gnat\2021-arm-elf\arm-eabi\lib\gnat\ravenscar-full-nrf52833\adalib\libgnarl.a(s-bbthre.o)
                                          0x8 (size before relaxing)
 .ARM.exidx.text.system__bb__threads__get_priority
                0x000000000000cf7c        0x0 C:\gnat\2021-arm-elf\arm-eabi\lib\gnat\ravenscar-full-nrf52833\adalib\libgnarl.a(s-bbthre.o)
                                          0x8 (size before relaxing)
 .ARM.exidx.text.system__bb__threads__initialize
                0x000000000000cf7c        0x8 C:\gnat\2021-arm-elf\arm-eabi\lib\gnat\ravenscar-full-nrf52833\adalib\libgnarl.a(s-bbthre.o)
 .ARM.exidx.text.system__bb__threads__initialize_slave
                0x000000000000cf84        0x8 C:\gnat\2021-arm-elf\arm-eabi\lib\gnat\ravenscar-full-nrf52833\adalib\libgnarl.a(s-bbthre.o)
 .ARM.exidx.text.system__bb__threads__set_atcb
                0x000000000000cf8c        0x0 C:\gnat\2021-arm-elf\arm-eabi\lib\gnat\ravenscar-full-nrf52833\adalib\libgnarl.a(s-bbthre.o)
                                          0x8 (size before relaxing)
 .ARM.exidx.text.system__bb__threads__set_priority
                0x000000000000cf8c        0x8 C:\gnat\2021-arm-elf\arm-eabi\lib\gnat\ravenscar-full-nrf52833\adalib\libgnarl.a(s-bbthre.o)
 .ARM.exidx.text.system__bb__threads__sleep
                0x000000000000cf94        0x8 C:\gnat\2021-arm-elf\arm-eabi\lib\gnat\ravenscar-full-nrf52833\adalib\libgnarl.a(s-bbthre.o)
 .ARM.exidx.text.system__bb__threads__thread_create
                0x000000000000cf9c        0x0 C:\gnat\2021-arm-elf\arm-eabi\lib\gnat\ravenscar-full-nrf52833\adalib\libgnarl.a(s-bbthre.o)
                                          0x8 (size before relaxing)
 .ARM.exidx.text.system__bb__threads__thread_self
                0x000000000000cf9c        0x0 C:\gnat\2021-arm-elf\arm-eabi\lib\gnat\ravenscar-full-nrf52833\adalib\libgnarl.a(s-bbthre.o)
                                          0x8 (size before relaxing)
 .ARM.exidx.text.system__bb__threads__wakeup
                0x000000000000cf9c        0x0 C:\gnat\2021-arm-elf\arm-eabi\lib\gnat\ravenscar-full-nrf52833\adalib\libgnarl.a(s-bbthre.o)
                                          0x8 (size before relaxing)
 .ARM.exidx.text.system__task_primitives__operations__Tidle_stacksBIP
                0x000000000000cf9c        0x0 C:\gnat\2021-arm-elf\arm-eabi\lib\gnat\ravenscar-full-nrf52833\adalib\libgnarl.a(s-taprop.o)
                                          0x8 (size before relaxing)
 .ARM.exidx.text.system__task_primitives__operations__Tidle_stacks_tableBIP
                0x000000000000cf9c        0x0 C:\gnat\2021-arm-elf\arm-eabi\lib\gnat\ravenscar-full-nrf52833\adalib\libgnarl.a(s-taprop.o)
                                          0x8 (size before relaxing)
 .ARM.exidx.text.system__task_primitives__operations__Tidle_tasksBIP
                0x000000000000cf9c        0x0 C:\gnat\2021-arm-elf\arm-eabi\lib\gnat\ravenscar-full-nrf52833\adalib\libgnarl.a(s-taprop.o)
                                          0x8 (size before relaxing)
 .ARM.exidx.text.system__task_primitives__operations__self
                0x000000000000cf9c        0x0 C:\gnat\2021-arm-elf\arm-eabi\lib\gnat\ravenscar-full-nrf52833\adalib\libgnarl.a(s-taprop.o)
                                          0x8 (size before relaxing)
 .ARM.exidx.text.system__task_primitives__operations__sleep
                0x000000000000cf9c        0x0 C:\gnat\2021-arm-elf\arm-eabi\lib\gnat\ravenscar-full-nrf52833\adalib\libgnarl.a(s-taprop.o)
                                          0x8 (size before relaxing)
 .ARM.exidx.text.system__task_primitives__operations__delay_until
                0x000000000000cf9c        0x8 C:\gnat\2021-arm-elf\arm-eabi\lib\gnat\ravenscar-full-nrf52833\adalib\libgnarl.a(s-taprop.o)
 .ARM.exidx.text.system__task_primitives__operations__monotonic_clock
                0x000000000000cfa4        0x8 C:\gnat\2021-arm-elf\arm-eabi\lib\gnat\ravenscar-full-nrf52833\adalib\libgnarl.a(s-taprop.o)
 .ARM.exidx.text.system__task_primitives__operations__wakeup
                0x000000000000cfac        0x8 C:\gnat\2021-arm-elf\arm-eabi\lib\gnat\ravenscar-full-nrf52833\adalib\libgnarl.a(s-taprop.o)
 .ARM.exidx.text.system__task_primitives__operations__set_priority
                0x000000000000cfb4        0x8 C:\gnat\2021-arm-elf\arm-eabi\lib\gnat\ravenscar-full-nrf52833\adalib\libgnarl.a(s-taprop.o)
 .ARM.exidx.text.system__task_primitives__operations__get_priority
                0x000000000000cfbc        0x8 C:\gnat\2021-arm-elf\arm-eabi\lib\gnat\ravenscar-full-nrf52833\adalib\libgnarl.a(s-taprop.o)
 .ARM.exidx.text.system__task_primitives__operations__get_affinity
                0x000000000000cfc4        0x0 C:\gnat\2021-arm-elf\arm-eabi\lib\gnat\ravenscar-full-nrf52833\adalib\libgnarl.a(s-taprop.o)
                                          0x8 (size before relaxing)
 .ARM.exidx.text.system__task_primitives__operations__get_cpu
                0x000000000000cfc4        0x0 C:\gnat\2021-arm-elf\arm-eabi\lib\gnat\ravenscar-full-nrf52833\adalib\libgnarl.a(s-taprop.o)
                                          0x8 (size before relaxing)
 .ARM.exidx.text.system__task_primitives__operations__get_thread_id
                0x000000000000cfc4        0x0 C:\gnat\2021-arm-elf\arm-eabi\lib\gnat\ravenscar-full-nrf52833\adalib\libgnarl.a(s-taprop.o)
                                          0x8 (size before relaxing)
 .ARM.exidx.text.system__task_primitives__operations__enter_task
                0x000000000000cfc4        0x8 C:\gnat\2021-arm-elf\arm-eabi\lib\gnat\ravenscar-full-nrf52833\adalib\libgnarl.a(s-taprop.o)
 .ARM.exidx.text.system__task_primitives__operations__idle
                0x000000000000cfcc        0x8 C:\gnat\2021-arm-elf\arm-eabi\lib\gnat\ravenscar-full-nrf52833\adalib\libgnarl.a(s-taprop.o)
 .ARM.exidx.text.system__task_primitives__operations__initialize_tcb
                0x000000000000cfd4        0x8 C:\gnat\2021-arm-elf\arm-eabi\lib\gnat\ravenscar-full-nrf52833\adalib\libgnarl.a(s-taprop.o)
 .ARM.exidx.text.system__task_primitives__operations__create_task
                0x000000000000cfdc        0x8 C:\gnat\2021-arm-elf\arm-eabi\lib\gnat\ravenscar-full-nrf52833\adalib\libgnarl.a(s-taprop.o)
 .ARM.exidx.text.system__task_primitives__operations__initialize_idle
                0x000000000000cfe4        0x8 C:\gnat\2021-arm-elf\arm-eabi\lib\gnat\ravenscar-full-nrf52833\adalib\libgnarl.a(s-taprop.o)
 .ARM.exidx.text.__gnat_initialize_slave
                0x000000000000cfec        0x8 C:\gnat\2021-arm-elf\arm-eabi\lib\gnat\ravenscar-full-nrf52833\adalib\libgnarl.a(s-taprop.o)
 .ARM.exidx.text.system__task_primitives__operations__initialize
                0x000000000000cff4        0x8 C:\gnat\2021-arm-elf\arm-eabi\lib\gnat\ravenscar-full-nrf52833\adalib\libgnarl.a(s-taprop.o)
 .ARM.exidx.text.system__task_primitives__operations__is_task_context
                0x000000000000cffc        0x8 C:\gnat\2021-arm-elf\arm-eabi\lib\gnat\ravenscar-full-nrf52833\adalib\libgnarl.a(s-taprop.o)
 .ARM.exidx.text.ada__exceptions__exception_occurrenceIP
                0x000000000000d004        0x8 C:\gnat\2021-arm-elf\arm-eabi\lib\gnat\ravenscar-full-nrf52833\adalib\libgnat.a(a-except.o)
 .ARM.exidx.text.ada__exceptions__exception_data__append_info_addressXn
                0x000000000000d00c        0x8 C:\gnat\2021-arm-elf\arm-eabi\lib\gnat\ravenscar-full-nrf52833\adalib\libgnat.a(a-except.o)
 .ARM.exidx.text.ada__exceptions__exception_data__append_info_basic_exception_informationXn
                0x000000000000d014        0x8 C:\gnat\2021-arm-elf\arm-eabi\lib\gnat\ravenscar-full-nrf52833\adalib\libgnat.a(a-except.o)
 .ARM.exidx.text.ada__exceptions__exception_data__append_info_characterXn
                0x000000000000d01c        0x8 C:\gnat\2021-arm-elf\arm-eabi\lib\gnat\ravenscar-full-nrf52833\adalib\libgnat.a(a-except.o)
 .ARM.exidx.text.__gnat_append_info_e_msg
                0x000000000000d024        0x8 C:\gnat\2021-arm-elf\arm-eabi\lib\gnat\ravenscar-full-nrf52833\adalib\libgnat.a(a-except.o)
 .ARM.exidx.text.ada__exceptions__exception_data__append_info_exception_nameXn
                0x000000000000d02c        0x0 C:\gnat\2021-arm-elf\arm-eabi\lib\gnat\ravenscar-full-nrf52833\adalib\libgnat.a(a-except.o)
                                          0x8 (size before relaxing)
 .ARM.exidx.text.ada__exceptions__exception_data__append_info_exception_name__2Xn
                0x000000000000d02c        0x8 C:\gnat\2021-arm-elf\arm-eabi\lib\gnat\ravenscar-full-nrf52833\adalib\libgnat.a(a-except.o)
 .ARM.exidx.text.ada__exceptions__exception_data__exception_info_maxlengthXn
                0x000000000000d034        0x8 C:\gnat\2021-arm-elf\arm-eabi\lib\gnat\ravenscar-full-nrf52833\adalib\libgnat.a(a-except.o)
 .ARM.exidx.text.ada__exceptions__exception_data__append_info_natXn
                0x000000000000d03c        0x8 C:\gnat\2021-arm-elf\arm-eabi\lib\gnat\ravenscar-full-nrf52833\adalib\libgnat.a(a-except.o)
 .ARM.exidx.text.ada__exceptions__exception_data__append_info_nlXn
                0x000000000000d044        0x8 C:\gnat\2021-arm-elf\arm-eabi\lib\gnat\ravenscar-full-nrf52833\adalib\libgnat.a(a-except.o)
 .ARM.exidx.text.ada__exceptions__exception_data__append_info_stringXn
                0x000000000000d04c        0x8 C:\gnat\2021-arm-elf\arm-eabi\lib\gnat\ravenscar-full-nrf52833\adalib\libgnat.a(a-except.o)
 .ARM.exidx.text.__gnat_append_info_u_e_info
                0x000000000000d054        0x0 C:\gnat\2021-arm-elf\arm-eabi\lib\gnat\ravenscar-full-nrf52833\adalib\libgnat.a(a-except.o)
                                          0x8 (size before relaxing)
 .ARM.exidx.text.ada__exceptions__exception_data__append_info_untailored_exception_tracebackXn
                0x000000000000d054        0x8 C:\gnat\2021-arm-elf\arm-eabi\lib\gnat\ravenscar-full-nrf52833\adalib\libgnat.a(a-except.o)
 .ARM.exidx.text.ada__exceptions__exception_data__basic_exception_info_maxlengthXn
                0x000000000000d05c        0x8 C:\gnat\2021-arm-elf\arm-eabi\lib\gnat\ravenscar-full-nrf52833\adalib\libgnat.a(a-except.o)
 .ARM.exidx.text.ada__exceptions__exception_data__exception_informationXn
                0x000000000000d064        0x8 C:\gnat\2021-arm-elf\arm-eabi\lib\gnat\ravenscar-full-nrf52833\adalib\libgnat.a(a-except.o)
 .ARM.exidx.text.__gnat_exception_msg_len
                0x000000000000d06c        0x8 C:\gnat\2021-arm-elf\arm-eabi\lib\gnat\ravenscar-full-nrf52833\adalib\libgnat.a(a-except.o)
 .ARM.exidx.text.ada__exceptions__exception_data__exception_name_lengthXn
                0x000000000000d074        0x0 C:\gnat\2021-arm-elf\arm-eabi\lib\gnat\ravenscar-full-nrf52833\adalib\libgnat.a(a-except.o)
                                          0x8 (size before relaxing)
 .ARM.exidx.text.ada__exceptions__exception_data__exception_name_length__2Xn
                0x000000000000d074        0x0 C:\gnat\2021-arm-elf\arm-eabi\lib\gnat\ravenscar-full-nrf52833\adalib\libgnat.a(a-except.o)
                                          0x8 (size before relaxing)
 .ARM.exidx.text.ada__exceptions__exception_data__untailored_exception_tracebackXn
                0x000000000000d074        0x8 C:\gnat\2021-arm-elf\arm-eabi\lib\gnat\ravenscar-full-nrf52833\adalib\libgnat.a(a-except.o)
 .ARM.exidx.text.ada__exceptions__exception_data__untailored_exception_informationXn
                0x000000000000d07c        0x0 C:\gnat\2021-arm-elf\arm-eabi\lib\gnat\ravenscar-full-nrf52833\adalib\libgnat.a(a-except.o)
                                          0x8 (size before relaxing)
 .ARM.exidx.text.ada__exceptions__exception_data__set_exception_c_msg__append_number.0
                0x000000000000d07c        0x8 C:\gnat\2021-arm-elf\arm-eabi\lib\gnat\ravenscar-full-nrf52833\adalib\libgnat.a(a-except.o)
 .ARM.exidx.text.ada__exceptions__exception_data__set_exception_c_msgXn
                0x000000000000d084        0x0 C:\gnat\2021-arm-elf\arm-eabi\lib\gnat\ravenscar-full-nrf52833\adalib\libgnat.a(a-except.o)
                                          0x8 (size before relaxing)
 .ARM.exidx.text.ada__exceptions__exception_data__set_exception_msgXn
                0x000000000000d084        0x0 C:\gnat\2021-arm-elf\arm-eabi\lib\gnat\ravenscar-full-nrf52833\adalib\libgnat.a(a-except.o)
                                          0x8 (size before relaxing)
 .ARM.exidx.text.ada__exceptions__exception_data__tailored_exception_tracebackXn
                0x000000000000d084        0x8 C:\gnat\2021-arm-elf\arm-eabi\lib\gnat\ravenscar-full-nrf52833\adalib\libgnat.a(a-except.o)
 .ARM.exidx.text.ada__exceptions__exception_data__untailored_exception_traceback_maxlengthXn
                0x000000000000d08c        0x8 C:\gnat\2021-arm-elf\arm-eabi\lib\gnat\ravenscar-full-nrf52833\adalib\libgnat.a(a-except.o)
 .ARM.exidx.text.ada__exceptions__exception_propagation__allocate_occurrenceXn
                0x000000000000d094        0x8 C:\gnat\2021-arm-elf\arm-eabi\lib\gnat\ravenscar-full-nrf52833\adalib\libgnat.a(a-except.o)
 .ARM.exidx.text.ada__exceptions__exception_propagation__gnat_gcc_exception_cleanupXn
                0x000000000000d09c        0x8 C:\gnat\2021-arm-elf\arm-eabi\lib\gnat\ravenscar-full-nrf52833\adalib\libgnat.a(a-except.o)
 .ARM.exidx.text.ada__exceptions__exception_propagation__set_foreign_occurrenceXn
                0x000000000000d0a4        0x8 C:\gnat\2021-arm-elf\arm-eabi\lib\gnat\ravenscar-full-nrf52833\adalib\libgnat.a(a-except.o)
 .ARM.exidx.text.__gnat_setup_current_excep
                0x000000000000d0ac        0x8 C:\gnat\2021-arm-elf\arm-eabi\lib\gnat\ravenscar-full-nrf52833\adalib\libgnat.a(a-except.o)
 .ARM.exidx.text.__gnat_begin_handler_v1
                0x000000000000d0b4        0x8 C:\gnat\2021-arm-elf\arm-eabi\lib\gnat\ravenscar-full-nrf52833\adalib\libgnat.a(a-except.o)
 .ARM.exidx.text.__gnat_end_handler_v1
                0x000000000000d0bc        0x8 C:\gnat\2021-arm-elf\arm-eabi\lib\gnat\ravenscar-full-nrf52833\adalib\libgnat.a(a-except.o)
 .ARM.exidx.text.__gnat_claimed_cleanup
                0x000000000000d0c4        0x8 C:\gnat\2021-arm-elf\arm-eabi\lib\gnat\ravenscar-full-nrf52833\adalib\libgnat.a(a-except.o)
 .ARM.exidx.text.__gnat_begin_handler
                0x000000000000d0cc        0x0 C:\gnat\2021-arm-elf\arm-eabi\lib\gnat\ravenscar-full-nrf52833\adalib\libgnat.a(a-except.o)
                                          0x8 (size before relaxing)
 .ARM.exidx.text.__gnat_end_handler
                0x000000000000d0cc        0x8 C:\gnat\2021-arm-elf\arm-eabi\lib\gnat\ravenscar-full-nrf52833\adalib\libgnat.a(a-except.o)
 .ARM.exidx.text.__gnat_reraise_zcx
                0x000000000000d0d4        0x8 C:\gnat\2021-arm-elf\arm-eabi\lib\gnat\ravenscar-full-nrf52833\adalib\libgnat.a(a-except.o)
 .ARM.exidx.text.ada__exceptions__exception_propagation__propagate_gcc_exceptionXn
                0x000000000000d0dc        0x8 C:\gnat\2021-arm-elf\arm-eabi\lib\gnat\ravenscar-full-nrf52833\adalib\libgnat.a(a-except.o)
 .ARM.exidx.text.ada__exceptions__exception_propagation__propagate_exceptionXn
                0x000000000000d0e4        0x8 C:\gnat\2021-arm-elf\arm-eabi\lib\gnat\ravenscar-full-nrf52833\adalib\libgnat.a(a-except.o)
 .ARM.exidx.text.__gnat_set_exception_parameter
                0x000000000000d0ec        0x8 C:\gnat\2021-arm-elf\arm-eabi\lib\gnat\ravenscar-full-nrf52833\adalib\libgnat.a(a-except.o)
 .ARM.exidx.text.__gnat_unhandled_except_handler
                0x000000000000d0f4        0x8 C:\gnat\2021-arm-elf\arm-eabi\lib\gnat\ravenscar-full-nrf52833\adalib\libgnat.a(a-except.o)
 .ARM.exidx.text.__gnat_eid_for
                0x000000000000d0fc        0x8 C:\gnat\2021-arm-elf\arm-eabi\lib\gnat\ravenscar-full-nrf52833\adalib\libgnat.a(a-except.o)
 .ARM.exidx.text.__gnat_foreign_data_for
                0x000000000000d104        0x0 C:\gnat\2021-arm-elf\arm-eabi\lib\gnat\ravenscar-full-nrf52833\adalib\libgnat.a(a-except.o)
                                          0x8 (size before relaxing)
 .ARM.exidx.text.__gnat_is_handled_by_others
                0x000000000000d104        0x0 C:\gnat\2021-arm-elf\arm-eabi\lib\gnat\ravenscar-full-nrf52833\adalib\libgnat.a(a-except.o)
                                          0x8 (size before relaxing)
 .ARM.exidx.text.__gnat_language_for
                0x000000000000d104        0x0 C:\gnat\2021-arm-elf\arm-eabi\lib\gnat\ravenscar-full-nrf52833\adalib\libgnat.a(a-except.o)
                                          0x8 (size before relaxing)
 .ARM.exidx.text.ada__exceptions__exception_traces__notify_exception__B295b___finalizerXn.1
                0x000000000000d104        0x8 C:\gnat\2021-arm-elf\arm-eabi\lib\gnat\ravenscar-full-nrf52833\adalib\libgnat.a(a-except.o)
 .ARM.exidx.text.ada__exceptions__exception_traces__notify_exceptionXn
                0x000000000000d10c        0x8 C:\gnat\2021-arm-elf\arm-eabi\lib\gnat\ravenscar-full-nrf52833\adalib\libgnat.a(a-except.o)
 .ARM.exidx.text.__gnat_notify_handled_exception
                0x000000000000d114        0x8 C:\gnat\2021-arm-elf\arm-eabi\lib\gnat\ravenscar-full-nrf52833\adalib\libgnat.a(a-except.o)
 .ARM.exidx.text.__gnat_notify_unhandled_exception
                0x000000000000d11c        0x8 C:\gnat\2021-arm-elf\arm-eabi\lib\gnat\ravenscar-full-nrf52833\adalib\libgnat.a(a-except.o)
 .ARM.exidx.text.ada__exceptions__exception_traces__unhandled_exception_terminateXn
                0x000000000000d124        0x8 C:\gnat\2021-arm-elf\arm-eabi\lib\gnat\ravenscar-full-nrf52833\adalib\libgnat.a(a-except.o)
 .ARM.exidx.text.ada__exceptions__stream_attributes__eid_to_stringXn
                0x000000000000d12c        0x8 C:\gnat\2021-arm-elf\arm-eabi\lib\gnat\ravenscar-full-nrf52833\adalib\libgnat.a(a-except.o)
 .ARM.exidx.text.ada__exceptions__stream_attributes__eo_to_stringXn
                0x000000000000d134        0x0 C:\gnat\2021-arm-elf\arm-eabi\lib\gnat\ravenscar-full-nrf52833\adalib\libgnat.a(a-except.o)
                                          0x8 (size before relaxing)
 .ARM.exidx.text.ada__exceptions__stream_attributes__string_to_eidXn
                0x000000000000d134        0x8 C:\gnat\2021-arm-elf\arm-eabi\lib\gnat\ravenscar-full-nrf52833\adalib\libgnat.a(a-except.o)
 .ARM.exidx.text.ada__exceptions__stream_attributes__string_to_eo__bad_eo.3
                0x000000000000d13c        0x8 C:\gnat\2021-arm-elf\arm-eabi\lib\gnat\ravenscar-full-nrf52833\adalib\libgnat.a(a-except.o)
 .ARM.exidx.text.ada__exceptions__stream_attributes__string_to_eoXn
                0x000000000000d144        0x8 C:\gnat\2021-arm-elf\arm-eabi\lib\gnat\ravenscar-full-nrf52833\adalib\libgnat.a(a-except.o)
 .ARM.exidx.text.ada__exceptions__stream_attributes__string_to_eo__next_string.2
                0x000000000000d14c        0x8 C:\gnat\2021-arm-elf\arm-eabi\lib\gnat\ravenscar-full-nrf52833\adalib\libgnat.a(a-except.o)
 .ARM.exidx.text.ada__exceptions__code_address_for_aaa
                0x000000000000d154        0x8 C:\gnat\2021-arm-elf\arm-eabi\lib\gnat\ravenscar-full-nrf52833\adalib\libgnat.a(a-except.o)
 .ARM.exidx.text.ada__exceptions__call_chain
                0x000000000000d15c        0x8 C:\gnat\2021-arm-elf\arm-eabi\lib\gnat\ravenscar-full-nrf52833\adalib\libgnat.a(a-except.o)
 .ARM.exidx.text.ada__exceptions__eid_to_string
                0x000000000000d164        0x8 C:\gnat\2021-arm-elf\arm-eabi\lib\gnat\ravenscar-full-nrf52833\adalib\libgnat.a(a-except.o)
 .ARM.exidx.text.ada__exceptions__eo_to_string
                0x000000000000d16c        0x0 C:\gnat\2021-arm-elf\arm-eabi\lib\gnat\ravenscar-full-nrf52833\adalib\libgnat.a(a-except.o)
                                          0x8 (size before relaxing)
 .ARM.exidx.text.ada__exceptions__exception_identity
                0x000000000000d16c        0x8 C:\gnat\2021-arm-elf\arm-eabi\lib\gnat\ravenscar-full-nrf52833\adalib\libgnat.a(a-except.o)
 .ARM.exidx.text.ada__exceptions__exception_information
                0x000000000000d174        0x8 C:\gnat\2021-arm-elf\arm-eabi\lib\gnat\ravenscar-full-nrf52833\adalib\libgnat.a(a-except.o)
 .ARM.exidx.text.ada__exceptions__exception_message
                0x000000000000d17c        0x8 C:\gnat\2021-arm-elf\arm-eabi\lib\gnat\ravenscar-full-nrf52833\adalib\libgnat.a(a-except.o)
 .ARM.exidx.text.ada__exceptions__exception_name
                0x000000000000d184        0x0 C:\gnat\2021-arm-elf\arm-eabi\lib\gnat\ravenscar-full-nrf52833\adalib\libgnat.a(a-except.o)
                                          0x8 (size before relaxing)
 .ARM.exidx.text.ada__exceptions__exception_name__2
                0x000000000000d184        0x8 C:\gnat\2021-arm-elf\arm-eabi\lib\gnat\ravenscar-full-nrf52833\adalib\libgnat.a(a-except.o)
 .ARM.exidx.text.ada__exceptions__exception_name_simple
                0x000000000000d18c        0x8 C:\gnat\2021-arm-elf\arm-eabi\lib\gnat\ravenscar-full-nrf52833\adalib\libgnat.a(a-except.o)
 .ARM.exidx.text.__gnat_get_exception_machine_occurrence
                0x000000000000d194        0x8 C:\gnat\2021-arm-elf\arm-eabi\lib\gnat\ravenscar-full-nrf52833\adalib\libgnat.a(a-except.o)
 .ARM.exidx.text.ada__exceptions__image
                0x000000000000d19c        0x8 C:\gnat\2021-arm-elf\arm-eabi\lib\gnat\ravenscar-full-nrf52833\adalib\libgnat.a(a-except.o)
 .ARM.exidx.text.__gnat_raise_constraint_error
                0x000000000000d1a4        0x8 C:\gnat\2021-arm-elf\arm-eabi\lib\gnat\ravenscar-full-nrf52833\adalib\libgnat.a(a-except.o)
 .ARM.exidx.text.__gnat_raise_constraint_error_msg
                0x000000000000d1ac        0x0 C:\gnat\2021-arm-elf\arm-eabi\lib\gnat\ravenscar-full-nrf52833\adalib\libgnat.a(a-except.o)
                                          0x8 (size before relaxing)
 .ARM.exidx.text.ada__exceptions__complete_occurrence
                0x000000000000d1ac        0x8 C:\gnat\2021-arm-elf\arm-eabi\lib\gnat\ravenscar-full-nrf52833\adalib\libgnat.a(a-except.o)
 .ARM.exidx.text.ada__exceptions__complete_and_propagate_occurrence
                0x000000000000d1b4        0x8 C:\gnat\2021-arm-elf\arm-eabi\lib\gnat\ravenscar-full-nrf52833\adalib\libgnat.a(a-except.o)
 .ARM.exidx.text.ada__exceptions__raise_exception
                0x000000000000d1bc        0x8 C:\gnat\2021-arm-elf\arm-eabi\lib\gnat\ravenscar-full-nrf52833\adalib\libgnat.a(a-except.o)
 .ARM.exidx.text.__gnat_raise_exception
                0x000000000000d1c4        0x8 C:\gnat\2021-arm-elf\arm-eabi\lib\gnat\ravenscar-full-nrf52833\adalib\libgnat.a(a-except.o)
 .ARM.exidx.text.ada__exceptions__raise_exception_no_defer
                0x000000000000d1cc        0x0 C:\gnat\2021-arm-elf\arm-eabi\lib\gnat\ravenscar-full-nrf52833\adalib\libgnat.a(a-except.o)
                                          0x8 (size before relaxing)
 .ARM.exidx.text.ada__exceptions__raise_from_controlled_operation___finalizer.5
                0x000000000000d1cc        0x8 C:\gnat\2021-arm-elf\arm-eabi\lib\gnat\ravenscar-full-nrf52833\adalib\libgnat.a(a-except.o)
 .ARM.exidx.text.__gnat_raise_from_controlled_operation
                0x000000000000d1d4        0x8 C:\gnat\2021-arm-elf\arm-eabi\lib\gnat\ravenscar-full-nrf52833\adalib\libgnat.a(a-except.o)
 .ARM.exidx.text.ada__exceptions__raise_from_controlled_operation__B_3___finalizer.4
                0x000000000000d1dc        0x8 C:\gnat\2021-arm-elf\arm-eabi\lib\gnat\ravenscar-full-nrf52833\adalib\libgnat.a(a-except.o)
 .ARM.exidx.text.ada__exceptions__create_occurrence_from_signal_handler
                0x000000000000d1e4        0x8 C:\gnat\2021-arm-elf\arm-eabi\lib\gnat\ravenscar-full-nrf52833\adalib\libgnat.a(a-except.o)
 .ARM.exidx.text.__gnat_create_machine_occurrence_from_signal_handler
                0x000000000000d1ec        0x8 C:\gnat\2021-arm-elf\arm-eabi\lib\gnat\ravenscar-full-nrf52833\adalib\libgnat.a(a-except.o)
 .ARM.exidx.text.__gnat_raise_from_signal_handler
                0x000000000000d1f4        0x8 C:\gnat\2021-arm-elf\arm-eabi\lib\gnat\ravenscar-full-nrf52833\adalib\libgnat.a(a-except.o)
 .ARM.exidx.text.__gnat_raise_program_error
                0x000000000000d1fc        0x8 C:\gnat\2021-arm-elf\arm-eabi\lib\gnat\ravenscar-full-nrf52833\adalib\libgnat.a(a-except.o)
 .ARM.exidx.text.__gnat_raise_program_error_msg
                0x000000000000d204        0x0 C:\gnat\2021-arm-elf\arm-eabi\lib\gnat\ravenscar-full-nrf52833\adalib\libgnat.a(a-except.o)
                                          0x8 (size before relaxing)
 .ARM.exidx.text.__gnat_raise_storage_error
                0x000000000000d204        0x0 C:\gnat\2021-arm-elf\arm-eabi\lib\gnat\ravenscar-full-nrf52833\adalib\libgnat.a(a-except.o)
                                          0x8 (size before relaxing)
 .ARM.exidx.text.__gnat_raise_storage_error_msg
                0x000000000000d204        0x0 C:\gnat\2021-arm-elf\arm-eabi\lib\gnat\ravenscar-full-nrf52833\adalib\libgnat.a(a-except.o)
                                          0x8 (size before relaxing)
 .ARM.exidx.text.ada__exceptions__raise_with_location_and_msg
                0x000000000000d204        0x8 C:\gnat\2021-arm-elf\arm-eabi\lib\gnat\ravenscar-full-nrf52833\adalib\libgnat.a(a-except.o)
 .ARM.exidx.text.__gnat_raise_with_msg
                0x000000000000d20c        0x8 C:\gnat\2021-arm-elf\arm-eabi\lib\gnat\ravenscar-full-nrf52833\adalib\libgnat.a(a-except.o)
 .ARM.exidx.text.__gnat_rcheck_CE_Access_Check
                0x000000000000d214        0x8 C:\gnat\2021-arm-elf\arm-eabi\lib\gnat\ravenscar-full-nrf52833\adalib\libgnat.a(a-except.o)
 .ARM.exidx.text.__gnat_rcheck_CE_Null_Access_Parameter
                0x000000000000d21c        0x8 C:\gnat\2021-arm-elf\arm-eabi\lib\gnat\ravenscar-full-nrf52833\adalib\libgnat.a(a-except.o)
 .ARM.exidx.text.__gnat_rcheck_CE_Discriminant_Check
                0x000000000000d224        0x8 C:\gnat\2021-arm-elf\arm-eabi\lib\gnat\ravenscar-full-nrf52833\adalib\libgnat.a(a-except.o)
 .ARM.exidx.text.__gnat_rcheck_CE_Divide_By_Zero
                0x000000000000d22c        0x8 C:\gnat\2021-arm-elf\arm-eabi\lib\gnat\ravenscar-full-nrf52833\adalib\libgnat.a(a-except.o)
 .ARM.exidx.text.__gnat_rcheck_CE_Explicit_Raise
                0x000000000000d234        0x8 C:\gnat\2021-arm-elf\arm-eabi\lib\gnat\ravenscar-full-nrf52833\adalib\libgnat.a(a-except.o)
 .ARM.exidx.text.__gnat_rcheck_CE_Index_Check
                0x000000000000d23c        0x8 C:\gnat\2021-arm-elf\arm-eabi\lib\gnat\ravenscar-full-nrf52833\adalib\libgnat.a(a-except.o)
 .ARM.exidx.text.__gnat_rcheck_CE_Invalid_Data
                0x000000000000d244        0x8 C:\gnat\2021-arm-elf\arm-eabi\lib\gnat\ravenscar-full-nrf52833\adalib\libgnat.a(a-except.o)
 .ARM.exidx.text.__gnat_rcheck_CE_Length_Check
                0x000000000000d24c        0x8 C:\gnat\2021-arm-elf\arm-eabi\lib\gnat\ravenscar-full-nrf52833\adalib\libgnat.a(a-except.o)
 .ARM.exidx.text.__gnat_rcheck_CE_Null_Exception_Id
                0x000000000000d254        0x8 C:\gnat\2021-arm-elf\arm-eabi\lib\gnat\ravenscar-full-nrf52833\adalib\libgnat.a(a-except.o)
 .ARM.exidx.text.__gnat_rcheck_CE_Null_Not_Allowed
                0x000000000000d25c        0x8 C:\gnat\2021-arm-elf\arm-eabi\lib\gnat\ravenscar-full-nrf52833\adalib\libgnat.a(a-except.o)
 .ARM.exidx.text.__gnat_rcheck_CE_Overflow_Check
                0x000000000000d264        0x8 C:\gnat\2021-arm-elf\arm-eabi\lib\gnat\ravenscar-full-nrf52833\adalib\libgnat.a(a-except.o)
 .ARM.exidx.text.__gnat_rcheck_CE_Partition_Check
                0x000000000000d26c        0x8 C:\gnat\2021-arm-elf\arm-eabi\lib\gnat\ravenscar-full-nrf52833\adalib\libgnat.a(a-except.o)
 .ARM.exidx.text.__gnat_rcheck_CE_Range_Check
                0x000000000000d274        0x8 C:\gnat\2021-arm-elf\arm-eabi\lib\gnat\ravenscar-full-nrf52833\adalib\libgnat.a(a-except.o)
 .ARM.exidx.text.__gnat_rcheck_CE_Tag_Check
                0x000000000000d27c        0x8 C:\gnat\2021-arm-elf\arm-eabi\lib\gnat\ravenscar-full-nrf52833\adalib\libgnat.a(a-except.o)
 .ARM.exidx.text.__gnat_rcheck_PE_Access_Before_Elaboration
                0x000000000000d284        0x8 C:\gnat\2021-arm-elf\arm-eabi\lib\gnat\ravenscar-full-nrf52833\adalib\libgnat.a(a-except.o)
 .ARM.exidx.text.__gnat_rcheck_PE_Accessibility_Check
                0x000000000000d28c        0x8 C:\gnat\2021-arm-elf\arm-eabi\lib\gnat\ravenscar-full-nrf52833\adalib\libgnat.a(a-except.o)
 .ARM.exidx.text.__gnat_rcheck_PE_Address_Of_Intrinsic
                0x000000000000d294        0x8 C:\gnat\2021-arm-elf\arm-eabi\lib\gnat\ravenscar-full-nrf52833\adalib\libgnat.a(a-except.o)
 .ARM.exidx.text.__gnat_rcheck_PE_Aliased_Parameters
                0x000000000000d29c        0x8 C:\gnat\2021-arm-elf\arm-eabi\lib\gnat\ravenscar-full-nrf52833\adalib\libgnat.a(a-except.o)
 .ARM.exidx.text.__gnat_rcheck_PE_All_Guards_Closed
                0x000000000000d2a4        0x8 C:\gnat\2021-arm-elf\arm-eabi\lib\gnat\ravenscar-full-nrf52833\adalib\libgnat.a(a-except.o)
 .ARM.exidx.text.__gnat_rcheck_PE_Bad_Predicated_Generic_Type
                0x000000000000d2ac        0x8 C:\gnat\2021-arm-elf\arm-eabi\lib\gnat\ravenscar-full-nrf52833\adalib\libgnat.a(a-except.o)
 .ARM.exidx.text.__gnat_rcheck_PE_Build_In_Place_Mismatch
                0x000000000000d2b4        0x8 C:\gnat\2021-arm-elf\arm-eabi\lib\gnat\ravenscar-full-nrf52833\adalib\libgnat.a(a-except.o)
 .ARM.exidx.text.__gnat_rcheck_PE_Current_Task_In_Entry_Body
                0x000000000000d2bc        0x8 C:\gnat\2021-arm-elf\arm-eabi\lib\gnat\ravenscar-full-nrf52833\adalib\libgnat.a(a-except.o)
 .ARM.exidx.text.__gnat_rcheck_PE_Duplicated_Entry_Address
                0x000000000000d2c4        0x8 C:\gnat\2021-arm-elf\arm-eabi\lib\gnat\ravenscar-full-nrf52833\adalib\libgnat.a(a-except.o)
 .ARM.exidx.text.__gnat_rcheck_PE_Explicit_Raise
                0x000000000000d2cc        0x8 C:\gnat\2021-arm-elf\arm-eabi\lib\gnat\ravenscar-full-nrf52833\adalib\libgnat.a(a-except.o)
 .ARM.exidx.text.__gnat_rcheck_PE_Implicit_Return
                0x000000000000d2d4        0x8 C:\gnat\2021-arm-elf\arm-eabi\lib\gnat\ravenscar-full-nrf52833\adalib\libgnat.a(a-except.o)
 .ARM.exidx.text.__gnat_rcheck_PE_Misaligned_Address_Value
                0x000000000000d2dc        0x8 C:\gnat\2021-arm-elf\arm-eabi\lib\gnat\ravenscar-full-nrf52833\adalib\libgnat.a(a-except.o)
 .ARM.exidx.text.__gnat_rcheck_PE_Missing_Return
                0x000000000000d2e4        0x8 C:\gnat\2021-arm-elf\arm-eabi\lib\gnat\ravenscar-full-nrf52833\adalib\libgnat.a(a-except.o)
 .ARM.exidx.text.__gnat_rcheck_PE_Non_Transportable_Actual
                0x000000000000d2ec        0x8 C:\gnat\2021-arm-elf\arm-eabi\lib\gnat\ravenscar-full-nrf52833\adalib\libgnat.a(a-except.o)
 .ARM.exidx.text.__gnat_rcheck_PE_Overlaid_Controlled_Object
                0x000000000000d2f4        0x8 C:\gnat\2021-arm-elf\arm-eabi\lib\gnat\ravenscar-full-nrf52833\adalib\libgnat.a(a-except.o)
 .ARM.exidx.text.__gnat_rcheck_PE_Potentially_Blocking_Operation
                0x000000000000d2fc        0x8 C:\gnat\2021-arm-elf\arm-eabi\lib\gnat\ravenscar-full-nrf52833\adalib\libgnat.a(a-except.o)
 .ARM.exidx.text.__gnat_rcheck_PE_Stream_Operation_Not_Allowed
                0x000000000000d304        0x8 C:\gnat\2021-arm-elf\arm-eabi\lib\gnat\ravenscar-full-nrf52833\adalib\libgnat.a(a-except.o)
 .ARM.exidx.text.__gnat_rcheck_PE_Stubbed_Subprogram_Called
                0x000000000000d30c        0x8 C:\gnat\2021-arm-elf\arm-eabi\lib\gnat\ravenscar-full-nrf52833\adalib\libgnat.a(a-except.o)
 .ARM.exidx.text.__gnat_rcheck_PE_Unchecked_Union_Restriction
                0x000000000000d314        0x8 C:\gnat\2021-arm-elf\arm-eabi\lib\gnat\ravenscar-full-nrf52833\adalib\libgnat.a(a-except.o)
 .ARM.exidx.text.__gnat_rcheck_SE_Empty_Storage_Pool
                0x000000000000d31c        0x8 C:\gnat\2021-arm-elf\arm-eabi\lib\gnat\ravenscar-full-nrf52833\adalib\libgnat.a(a-except.o)
 .ARM.exidx.text.__gnat_rcheck_SE_Explicit_Raise
                0x000000000000d324        0x8 C:\gnat\2021-arm-elf\arm-eabi\lib\gnat\ravenscar-full-nrf52833\adalib\libgnat.a(a-except.o)
 .ARM.exidx.text.__gnat_rcheck_SE_Infinite_Recursion
                0x000000000000d32c        0x8 C:\gnat\2021-arm-elf\arm-eabi\lib\gnat\ravenscar-full-nrf52833\adalib\libgnat.a(a-except.o)
 .ARM.exidx.text.__gnat_rcheck_SE_Object_Too_Large
                0x000000000000d334        0x8 C:\gnat\2021-arm-elf\arm-eabi\lib\gnat\ravenscar-full-nrf52833\adalib\libgnat.a(a-except.o)
 .ARM.exidx.text.__gnat_rcheck_CE_Access_Check_ext
                0x000000000000d33c        0x8 C:\gnat\2021-arm-elf\arm-eabi\lib\gnat\ravenscar-full-nrf52833\adalib\libgnat.a(a-except.o)
 .ARM.exidx.text.ada__exceptions__rcheck_ce_index_check_ext___finalizer.6
                0x000000000000d344        0x8 C:\gnat\2021-arm-elf\arm-eabi\lib\gnat\ravenscar-full-nrf52833\adalib\libgnat.a(a-except.o)
 .ARM.exidx.text.__gnat_rcheck_CE_Index_Check_ext
                0x000000000000d34c        0x8 C:\gnat\2021-arm-elf\arm-eabi\lib\gnat\ravenscar-full-nrf52833\adalib\libgnat.a(a-except.o)
 .ARM.exidx.text.ada__exceptions__rcheck_ce_invalid_data_ext___finalizer.7
                0x000000000000d354        0x8 C:\gnat\2021-arm-elf\arm-eabi\lib\gnat\ravenscar-full-nrf52833\adalib\libgnat.a(a-except.o)
 .ARM.exidx.text.__gnat_rcheck_CE_Invalid_Data_ext
                0x000000000000d35c        0x8 C:\gnat\2021-arm-elf\arm-eabi\lib\gnat\ravenscar-full-nrf52833\adalib\libgnat.a(a-except.o)
 .ARM.exidx.text.ada__exceptions__rcheck_ce_range_check_ext___finalizer.8
                0x000000000000d364        0x8 C:\gnat\2021-arm-elf\arm-eabi\lib\gnat\ravenscar-full-nrf52833\adalib\libgnat.a(a-except.o)
 .ARM.exidx.text.__gnat_rcheck_CE_Range_Check_ext
                0x000000000000d36c        0x8 C:\gnat\2021-arm-elf\arm-eabi\lib\gnat\ravenscar-full-nrf52833\adalib\libgnat.a(a-except.o)
 .ARM.exidx.text.__gnat_rcheck_PE_Finalize_Raised_Exception
                0x000000000000d374        0x8 C:\gnat\2021-arm-elf\arm-eabi\lib\gnat\ravenscar-full-nrf52833\adalib\libgnat.a(a-except.o)
 .ARM.exidx.text.__gnat_reraise
                0x000000000000d37c        0x8 C:\gnat\2021-arm-elf\arm-eabi\lib\gnat\ravenscar-full-nrf52833\adalib\libgnat.a(a-except.o)
 .ARM.exidx.text.__gnat_reraise_library_exception_if_any
                0x000000000000d384        0x8 C:\gnat\2021-arm-elf\arm-eabi\lib\gnat\ravenscar-full-nrf52833\adalib\libgnat.a(a-except.o)
 .ARM.exidx.text.ada__exceptions__reraise_occurrence
                0x000000000000d38c        0x8 C:\gnat\2021-arm-elf\arm-eabi\lib\gnat\ravenscar-full-nrf52833\adalib\libgnat.a(a-except.o)
 .ARM.exidx.text.ada__exceptions__reraise_occurrence_always
                0x000000000000d394        0x8 C:\gnat\2021-arm-elf\arm-eabi\lib\gnat\ravenscar-full-nrf52833\adalib\libgnat.a(a-except.o)
 .ARM.exidx.text.ada__exceptions__reraise_occurrence_no_defer
                0x000000000000d39c        0x8 C:\gnat\2021-arm-elf\arm-eabi\lib\gnat\ravenscar-full-nrf52833\adalib\libgnat.a(a-except.o)
 .ARM.exidx.text.ada__exceptions__save_occurrence
                0x000000000000d3a4        0x8 C:\gnat\2021-arm-elf\arm-eabi\lib\gnat\ravenscar-full-nrf52833\adalib\libgnat.a(a-except.o)
 .ARM.exidx.text.ada__exceptions__save_occurrence__2
                0x000000000000d3ac        0x8 C:\gnat\2021-arm-elf\arm-eabi\lib\gnat\ravenscar-full-nrf52833\adalib\libgnat.a(a-except.o)
 .ARM.exidx.text.ada__exceptions__string_to_eid
                0x000000000000d3b4        0x8 C:\gnat\2021-arm-elf\arm-eabi\lib\gnat\ravenscar-full-nrf52833\adalib\libgnat.a(a-except.o)
 .ARM.exidx.text.ada__exceptions__string_to_eo
                0x000000000000d3bc        0x8 C:\gnat\2021-arm-elf\arm-eabi\lib\gnat\ravenscar-full-nrf52833\adalib\libgnat.a(a-except.o)
 .ARM.exidx.text.__gnat_to_stderr_char
                0x000000000000d3c4        0x8 C:\gnat\2021-arm-elf\arm-eabi\lib\gnat\ravenscar-full-nrf52833\adalib\libgnat.a(a-except.o)
 .ARM.exidx.text.__gnat_to_stderr
                0x000000000000d3cc        0x8 C:\gnat\2021-arm-elf\arm-eabi\lib\gnat\ravenscar-full-nrf52833\adalib\libgnat.a(a-except.o)
 .ARM.exidx.text.__gnat_transfer_occurrence
                0x000000000000d3d4        0x8 C:\gnat\2021-arm-elf\arm-eabi\lib\gnat\ravenscar-full-nrf52833\adalib\libgnat.a(a-except.o)
 .ARM.exidx.text.ada__exceptions__triggered_by_abort
                0x000000000000d3dc        0x8 C:\gnat\2021-arm-elf\arm-eabi\lib\gnat\ravenscar-full-nrf52833\adalib\libgnat.a(a-except.o)
 .ARM.exidx.text.ada__exceptions__wide_exception_name
                0x000000000000d3e4        0x8 C:\gnat\2021-arm-elf\arm-eabi\lib\gnat\ravenscar-full-nrf52833\adalib\libgnat.a(a-except.o)
 .ARM.exidx.text.ada__exceptions__wide_exception_name__2
                0x000000000000d3ec        0x0 C:\gnat\2021-arm-elf\arm-eabi\lib\gnat\ravenscar-full-nrf52833\adalib\libgnat.a(a-except.o)
                                          0x8 (size before relaxing)
 .ARM.exidx.text.ada__exceptions__wide_wide_exception_name
                0x000000000000d3ec        0x0 C:\gnat\2021-arm-elf\arm-eabi\lib\gnat\ravenscar-full-nrf52833\adalib\libgnat.a(a-except.o)
                                          0x8 (size before relaxing)
 .ARM.exidx.text.ada__exceptions__wide_wide_exception_name__2
                0x000000000000d3ec        0x0 C:\gnat\2021-arm-elf\arm-eabi\lib\gnat\ravenscar-full-nrf52833\adalib\libgnat.a(a-except.o)
                                          0x8 (size before relaxing)
 .ARM.exidx.text.ada__exceptions__code_address_for_zzz
                0x000000000000d3ec        0x8 C:\gnat\2021-arm-elf\arm-eabi\lib\gnat\ravenscar-full-nrf52833\adalib\libgnat.a(a-except.o)
 .ARM.exidx.text.ada__exceptions___elabs
                0x000000000000d3f4        0x0 C:\gnat\2021-arm-elf\arm-eabi\lib\gnat\ravenscar-full-nrf52833\adalib\libgnat.a(a-except.o)
                                          0x8 (size before relaxing)
 .ARM.exidx.text.ada__strings__text_buffers___size
                0x000000000000d3f4        0x0 C:\gnat\2021-arm-elf\arm-eabi\lib\gnat\ravenscar-full-nrf52833\adalib\libgnat.a(a-sttebu.o)
                                          0x8 (size before relaxing)
 .ARM.exidx.text.ada__strings__text_buffers__root_buffer_typeDF
                0x000000000000d3f4        0x0 C:\gnat\2021-arm-elf\arm-eabi\lib\gnat\ravenscar-full-nrf52833\adalib\libgnat.a(a-sttebu.o)
                                          0x8 (size before relaxing)
 .ARM.exidx.text.ada__strings__text_buffers__current_indent
                0x000000000000d3f4        0x0 C:\gnat\2021-arm-elf\arm-eabi\lib\gnat\ravenscar-full-nrf52833\adalib\libgnat.a(a-sttebu.o)
                                          0x8 (size before relaxing)
 .ARM.exidx.text.ada__strings__text_buffers__increase_indent
                0x000000000000d3f4        0x0 C:\gnat\2021-arm-elf\arm-eabi\lib\gnat\ravenscar-full-nrf52833\adalib\libgnat.a(a-sttebu.o)
                                          0x8 (size before relaxing)
 .ARM.exidx.text.ada__strings__text_buffers__decrease_indent
                0x000000000000d3f4        0x0 C:\gnat\2021-arm-elf\arm-eabi\lib\gnat\ravenscar-full-nrf52833\adalib\libgnat.a(a-sttebu.o)
                                          0x8 (size before relaxing)
 .ARM.exidx.text.ada__strings__text_buffers__root_buffer_typePI
                0x000000000000d3f4        0x8 C:\gnat\2021-arm-elf\arm-eabi\lib\gnat\ravenscar-full-nrf52833\adalib\libgnat.a(a-sttebu.o)
 .ARM.exidx.text.ada__strings__text_buffers__root_buffer_typePartial_DIC
                0x000000000000d3fc        0x8 C:\gnat\2021-arm-elf\arm-eabi\lib\gnat\ravenscar-full-nrf52833\adalib\libgnat.a(a-sttebu.o)
 .ARM.exidx.text.ada__strings__text_buffers__root_buffer_typeIP
                0x000000000000d404        0x0 C:\gnat\2021-arm-elf\arm-eabi\lib\gnat\ravenscar-full-nrf52833\adalib\libgnat.a(a-sttebu.o)
                                          0x8 (size before relaxing)
 .ARM.exidx.text.ada__strings__text_buffers__root_buffer_typeDIC
                0x000000000000d404        0x0 C:\gnat\2021-arm-elf\arm-eabi\lib\gnat\ravenscar-full-nrf52833\adalib\libgnat.a(a-sttebu.o)
                                          0x8 (size before relaxing)
 .ARM.exidx.text.ada__strings__text_buffers__Troot_buffer_typeCFD
                0x000000000000d404        0x0 C:\gnat\2021-arm-elf\arm-eabi\lib\gnat\ravenscar-full-nrf52833\adalib\libgnat.a(a-sttebu.o)
                                          0x8 (size before relaxing)
 .ARM.exidx.text.ada__strings__text_buffers__increase_indentCL
                0x000000000000d404        0x0 C:\gnat\2021-arm-elf\arm-eabi\lib\gnat\ravenscar-full-nrf52833\adalib\libgnat.a(a-sttebu.o)
                                          0x8 (size before relaxing)
 .ARM.exidx.text.ada__strings__text_buffers__decrease_indentCL
                0x000000000000d404        0x0 C:\gnat\2021-arm-elf\arm-eabi\lib\gnat\ravenscar-full-nrf52833\adalib\libgnat.a(a-sttebu.o)
                                          0x8 (size before relaxing)
 .ARM.exidx.text.ada__strings__text_buffers___elabs
                0x000000000000d404        0x0 C:\gnat\2021-arm-elf\arm-eabi\lib\gnat\ravenscar-full-nrf52833\adalib\libgnat.a(a-sttebu.o)
                                          0x8 (size before relaxing)
 .ARM.exidx.text.ada__tags__htable_subprograms__hashXn
                0x000000000000d404        0x0 C:\gnat\2021-arm-elf\arm-eabi\lib\gnat\ravenscar-full-nrf52833\adalib\libgnat.a(a-tags.o)
                                          0x8 (size before relaxing)
 .ARM.exidx.text.ada__tags__external_tag_htable__getXn
                0x000000000000d404        0x0 C:\gnat\2021-arm-elf\arm-eabi\lib\gnat\ravenscar-full-nrf52833\adalib\libgnat.a(a-tags.o)
                                          0x8 (size before relaxing)
 .ARM.exidx.text.ada__tags__tag_arrayIP
                0x000000000000d404        0x0 C:\gnat\2021-arm-elf\arm-eabi\lib\gnat\ravenscar-full-nrf52833\adalib\libgnat.a(a-tags.o)
                                          0x8 (size before relaxing)
 .ARM.exidx.text.ada__tags__interface_data_elementIP
                0x000000000000d404        0x0 C:\gnat\2021-arm-elf\arm-eabi\lib\gnat\ravenscar-full-nrf52833\adalib\libgnat.a(a-tags.o)
                                          0x8 (size before relaxing)
 .ARM.exidx.text.ada__tags__interfaces_arrayIP
                0x000000000000d404        0x0 C:\gnat\2021-arm-elf\arm-eabi\lib\gnat\ravenscar-full-nrf52833\adalib\libgnat.a(a-tags.o)
                                          0x8 (size before relaxing)
 .ARM.exidx.text.ada__tags__interface_dataIP
                0x000000000000d404        0x0 C:\gnat\2021-arm-elf\arm-eabi\lib\gnat\ravenscar-full-nrf52833\adalib\libgnat.a(a-tags.o)
                                          0x8 (size before relaxing)
 .ARM.exidx.text.ada__tags__prim_op_kindH
                0x000000000000d404        0x0 C:\gnat\2021-arm-elf\arm-eabi\lib\gnat\ravenscar-full-nrf52833\adalib\libgnat.a(a-tags.o)
                                          0x8 (size before relaxing)
 .ARM.exidx.text.ada__tags__select_specific_data_elementIP
                0x000000000000d404        0x0 C:\gnat\2021-arm-elf\arm-eabi\lib\gnat\ravenscar-full-nrf52833\adalib\libgnat.a(a-tags.o)
                                          0x8 (size before relaxing)
 .ARM.exidx.text.ada__tags__select_specific_data_arrayIP
                0x000000000000d404        0x0 C:\gnat\2021-arm-elf\arm-eabi\lib\gnat\ravenscar-full-nrf52833\adalib\libgnat.a(a-tags.o)
                                          0x8 (size before relaxing)
 .ARM.exidx.text.ada__tags__select_specific_dataIP
                0x000000000000d404        0x0 C:\gnat\2021-arm-elf\arm-eabi\lib\gnat\ravenscar-full-nrf52833\adalib\libgnat.a(a-tags.o)
                                          0x8 (size before relaxing)
 .ARM.exidx.text.ada__tags__address_arrayIP
                0x000000000000d404        0x0 C:\gnat\2021-arm-elf\arm-eabi\lib\gnat\ravenscar-full-nrf52833\adalib\libgnat.a(a-tags.o)
                                          0x8 (size before relaxing)
 .ARM.exidx.text.ada__tags__tag_tableIP
                0x000000000000d404        0x0 C:\gnat\2021-arm-elf\arm-eabi\lib\gnat\ravenscar-full-nrf52833\adalib\libgnat.a(a-tags.o)
                                          0x8 (size before relaxing)
 .ARM.exidx.text.ada__tags__type_specific_dataIP
                0x000000000000d404        0x0 C:\gnat\2021-arm-elf\arm-eabi\lib\gnat\ravenscar-full-nrf52833\adalib\libgnat.a(a-tags.o)
                                          0x8 (size before relaxing)
 .ARM.exidx.text.ada__tags__tagged_kindH
                0x000000000000d404        0x0 C:\gnat\2021-arm-elf\arm-eabi\lib\gnat\ravenscar-full-nrf52833\adalib\libgnat.a(a-tags.o)
                                          0x8 (size before relaxing)
 .ARM.exidx.text.ada__tags__dispatch_table_wrapperIP
                0x000000000000d404        0x0 C:\gnat\2021-arm-elf\arm-eabi\lib\gnat\ravenscar-full-nrf52833\adalib\libgnat.a(a-tags.o)
                                          0x8 (size before relaxing)
 .ARM.exidx.text.ada__tags__no_dispatch_table_wrapperIP
                0x000000000000d404        0x0 C:\gnat\2021-arm-elf\arm-eabi\lib\gnat\ravenscar-full-nrf52833\adalib\libgnat.a(a-tags.o)
                                          0x8 (size before relaxing)
 .ARM.exidx.text.ada__tags__object_specific_data_arrayIP
                0x000000000000d404        0x0 C:\gnat\2021-arm-elf\arm-eabi\lib\gnat\ravenscar-full-nrf52833\adalib\libgnat.a(a-tags.o)
                                          0x8 (size before relaxing)
 .ARM.exidx.text.ada__tags__object_specific_dataIP
                0x000000000000d404        0x0 C:\gnat\2021-arm-elf\arm-eabi\lib\gnat\ravenscar-full-nrf52833\adalib\libgnat.a(a-tags.o)
                                          0x8 (size before relaxing)
 .ARM.exidx.text.ada__tags__cw_membership
                0x000000000000d404        0x0 C:\gnat\2021-arm-elf\arm-eabi\lib\gnat\ravenscar-full-nrf52833\adalib\libgnat.a(a-tags.o)
                                          0x8 (size before relaxing)
 .ARM.exidx.text.ada__tags__external_tag_htable__TtableBIPXn
                0x000000000000d404        0x0 C:\gnat\2021-arm-elf\arm-eabi\lib\gnat\ravenscar-full-nrf52833\adalib\libgnat.a(a-tags.o)
                                          0x8 (size before relaxing)
 .ARM.exidx.text.ada__tags__is_abstract
                0x000000000000d404        0x8 C:\gnat\2021-arm-elf\arm-eabi\lib\gnat\ravenscar-full-nrf52833\adalib\libgnat.a(a-tags.o)
 .ARM.exidx.text.ada__tags__base_address
                0x000000000000d40c        0x8 C:\gnat\2021-arm-elf\arm-eabi\lib\gnat\ravenscar-full-nrf52833\adalib\libgnat.a(a-tags.o)
 .ARM.exidx.text.ada__tags__check_tsd
                0x000000000000d414        0x8 C:\gnat\2021-arm-elf\arm-eabi\lib\gnat\ravenscar-full-nrf52833\adalib\libgnat.a(a-tags.o)
 .ARM.exidx.text.ada__tags__displace
                0x000000000000d41c        0x8 C:\gnat\2021-arm-elf\arm-eabi\lib\gnat\ravenscar-full-nrf52833\adalib\libgnat.a(a-tags.o)
 .ARM.exidx.text.ada__tags__dt
                0x000000000000d424        0x8 C:\gnat\2021-arm-elf\arm-eabi\lib\gnat\ravenscar-full-nrf52833\adalib\libgnat.a(a-tags.o)
 .ARM.exidx.text.ada__tags__iw_membership__2
                0x000000000000d42c        0x0 C:\gnat\2021-arm-elf\arm-eabi\lib\gnat\ravenscar-full-nrf52833\adalib\libgnat.a(a-tags.o)
                                          0x8 (size before relaxing)
 .ARM.exidx.text.ada__tags__iw_membership
                0x000000000000d42c        0x0 C:\gnat\2021-arm-elf\arm-eabi\lib\gnat\ravenscar-full-nrf52833\adalib\libgnat.a(a-tags.o)
                                          0x8 (size before relaxing)
 .ARM.exidx.text.ada__tags__expanded_name
                0x000000000000d42c        0x8 C:\gnat\2021-arm-elf\arm-eabi\lib\gnat\ravenscar-full-nrf52833\adalib\libgnat.a(a-tags.o)
 .ARM.exidx.text.ada__tags__external_tag
                0x000000000000d434        0x0 C:\gnat\2021-arm-elf\arm-eabi\lib\gnat\ravenscar-full-nrf52833\adalib\libgnat.a(a-tags.o)
                                          0x8 (size before relaxing)
 .ARM.exidx.text.ada__tags__get_entry_index
                0x000000000000d434        0x8 C:\gnat\2021-arm-elf\arm-eabi\lib\gnat\ravenscar-full-nrf52833\adalib\libgnat.a(a-tags.o)
 .ARM.exidx.text.ada__tags__get_prim_op_kind
                0x000000000000d43c        0x0 C:\gnat\2021-arm-elf\arm-eabi\lib\gnat\ravenscar-full-nrf52833\adalib\libgnat.a(a-tags.o)
                                          0x8 (size before relaxing)
 .ARM.exidx.text.ada__tags__get_offset_index
                0x000000000000d43c        0x0 C:\gnat\2021-arm-elf\arm-eabi\lib\gnat\ravenscar-full-nrf52833\adalib\libgnat.a(a-tags.o)
                                          0x8 (size before relaxing)
 .ARM.exidx.text.ada__tags__get_tagged_kind
                0x000000000000d43c        0x0 C:\gnat\2021-arm-elf\arm-eabi\lib\gnat\ravenscar-full-nrf52833\adalib\libgnat.a(a-tags.o)
                                          0x8 (size before relaxing)
 .ARM.exidx.text.ada__tags__interface_ancestor_tags
                0x000000000000d43c        0x8 C:\gnat\2021-arm-elf\arm-eabi\lib\gnat\ravenscar-full-nrf52833\adalib\libgnat.a(a-tags.o)
 .ARM.exidx.text.ada__tags__internal_tag
                0x000000000000d444        0x8 C:\gnat\2021-arm-elf\arm-eabi\lib\gnat\ravenscar-full-nrf52833\adalib\libgnat.a(a-tags.o)
 .ARM.exidx.text.ada__tags__descendant_tag
                0x000000000000d44c        0x8 C:\gnat\2021-arm-elf\arm-eabi\lib\gnat\ravenscar-full-nrf52833\adalib\libgnat.a(a-tags.o)
 .ARM.exidx.text.ada__tags__is_descendant_at_same_level
                0x000000000000d454        0x8 C:\gnat\2021-arm-elf\arm-eabi\lib\gnat\ravenscar-full-nrf52833\adalib\libgnat.a(a-tags.o)
 .ARM.exidx.text.ada__tags__length
                0x000000000000d45c        0x0 C:\gnat\2021-arm-elf\arm-eabi\lib\gnat\ravenscar-full-nrf52833\adalib\libgnat.a(a-tags.o)
                                          0x8 (size before relaxing)
 .ARM.exidx.text.ada__tags__offset_to_top
                0x000000000000d45c        0x0 C:\gnat\2021-arm-elf\arm-eabi\lib\gnat\ravenscar-full-nrf52833\adalib\libgnat.a(a-tags.o)
                                          0x8 (size before relaxing)
 .ARM.exidx.text.ada__tags__needs_finalization
                0x000000000000d45c        0x0 C:\gnat\2021-arm-elf\arm-eabi\lib\gnat\ravenscar-full-nrf52833\adalib\libgnat.a(a-tags.o)
                                          0x8 (size before relaxing)
 .ARM.exidx.text.ada__tags__parent_size
                0x000000000000d45c        0x8 C:\gnat\2021-arm-elf\arm-eabi\lib\gnat\ravenscar-full-nrf52833\adalib\libgnat.a(a-tags.o)
 .ARM.exidx.text.ada__tags__parent_tag
                0x000000000000d464        0x8 C:\gnat\2021-arm-elf\arm-eabi\lib\gnat\ravenscar-full-nrf52833\adalib\libgnat.a(a-tags.o)
 .ARM.exidx.text.ada__tags__register_interface_offset
                0x000000000000d46c        0x8 C:\gnat\2021-arm-elf\arm-eabi\lib\gnat\ravenscar-full-nrf52833\adalib\libgnat.a(a-tags.o)
 .ARM.exidx.text.ada__tags__register_tag
                0x000000000000d474        0x8 C:\gnat\2021-arm-elf\arm-eabi\lib\gnat\ravenscar-full-nrf52833\adalib\libgnat.a(a-tags.o)
 .ARM.exidx.text.ada__tags__secondary_tag
                0x000000000000d47c        0x8 C:\gnat\2021-arm-elf\arm-eabi\lib\gnat\ravenscar-full-nrf52833\adalib\libgnat.a(a-tags.o)
 .ARM.exidx.text.ada__tags__set_entry_index
                0x000000000000d484        0x8 C:\gnat\2021-arm-elf\arm-eabi\lib\gnat\ravenscar-full-nrf52833\adalib\libgnat.a(a-tags.o)
 .ARM.exidx.text.ada__tags__set_dynamic_offset_to_top
                0x000000000000d48c        0x0 C:\gnat\2021-arm-elf\arm-eabi\lib\gnat\ravenscar-full-nrf52833\adalib\libgnat.a(a-tags.o)
                                          0x8 (size before relaxing)
 .ARM.exidx.text.ada__tags__set_prim_op_kind
                0x000000000000d48c        0x0 C:\gnat\2021-arm-elf\arm-eabi\lib\gnat\ravenscar-full-nrf52833\adalib\libgnat.a(a-tags.o)
                                          0x8 (size before relaxing)
 .ARM.exidx.text.ada__tags__unregister_tag
                0x000000000000d48c        0x0 C:\gnat\2021-arm-elf\arm-eabi\lib\gnat\ravenscar-full-nrf52833\adalib\libgnat.a(a-tags.o)
                                          0x8 (size before relaxing)
 .ARM.exidx.text.ada__tags__wide_expanded_name
                0x000000000000d48c        0x8 C:\gnat\2021-arm-elf\arm-eabi\lib\gnat\ravenscar-full-nrf52833\adalib\libgnat.a(a-tags.o)
 .ARM.exidx.text.ada__tags__wide_wide_expanded_name
                0x000000000000d494        0x0 C:\gnat\2021-arm-elf\arm-eabi\lib\gnat\ravenscar-full-nrf52833\adalib\libgnat.a(a-tags.o)
                                          0x8 (size before relaxing)
 .ARM.exidx.text.ada__tags___elabb
                0x000000000000d494        0x8 C:\gnat\2021-arm-elf\arm-eabi\lib\gnat\ravenscar-full-nrf52833\adalib\libgnat.a(a-tags.o)
 .ARM.exidx.text.ada__text_io__get
                0x000000000000d49c        0x8 C:\gnat\2021-arm-elf\arm-eabi\lib\gnat\ravenscar-full-nrf52833\adalib\libgnat.a(a-textio.o)
 .ARM.exidx.text.ada__text_io__new_line
                0x000000000000d4a4        0x8 C:\gnat\2021-arm-elf\arm-eabi\lib\gnat\ravenscar-full-nrf52833\adalib\libgnat.a(a-textio.o)
 .ARM.exidx.text.ada__text_io__put
                0x000000000000d4ac        0x8 C:\gnat\2021-arm-elf\arm-eabi\lib\gnat\ravenscar-full-nrf52833\adalib\libgnat.a(a-textio.o)
 .ARM.exidx.text.ada__text_io__put__2
                0x000000000000d4b4        0x8 C:\gnat\2021-arm-elf\arm-eabi\lib\gnat\ravenscar-full-nrf52833\adalib\libgnat.a(a-textio.o)
 .ARM.exidx.text.ada__text_io__put_line
                0x000000000000d4bc        0x0 C:\gnat\2021-arm-elf\arm-eabi\lib\gnat\ravenscar-full-nrf52833\adalib\libgnat.a(a-textio.o)
                                          0x8 (size before relaxing)
 .ARM.exidx.text.ada__text_io___elabb
                0x000000000000d4bc        0x8 C:\gnat\2021-arm-elf\arm-eabi\lib\gnat\ravenscar-full-nrf52833\adalib\libgnat.a(a-textio.o)
 .ARM.exidx.text.read_encoded_value_with_base
                0x000000000000d4c4        0x0 C:\gnat\2021-arm-elf\arm-eabi\lib\gnat\ravenscar-full-nrf52833\adalib\libgnat.a(raise-gcc.o)
                                          0x8 (size before relaxing)
 .ARM.exidx.text.base_of_encoded_value
                0x000000000000d4c4        0x0 C:\gnat\2021-arm-elf\arm-eabi\lib\gnat\ravenscar-full-nrf52833\adalib\libgnat.a(raise-gcc.o)
                                          0x8 (size before relaxing)
 .ARM.exidx.text.__gnat_personality_v0
                0x000000000000d4c4        0x8 C:\gnat\2021-arm-elf\arm-eabi\lib\gnat\ravenscar-full-nrf52833\adalib\libgnat.a(raise-gcc.o)
 .ARM.exidx.text.__gnat_cleanupunwind_handler
                0x000000000000d4cc        0x8 C:\gnat\2021-arm-elf\arm-eabi\lib\gnat\ravenscar-full-nrf52833\adalib\libgnat.a(raise-gcc.o)
 .ARM.exidx.text.__gnat_Unwind_RaiseException
                0x000000000000d4d4        0x8 C:\gnat\2021-arm-elf\arm-eabi\lib\gnat\ravenscar-full-nrf52833\adalib\libgnat.a(raise-gcc.o)
 .ARM.exidx.text.__gnat_Unwind_ForcedUnwind
                0x000000000000d4dc        0x0 C:\gnat\2021-arm-elf\arm-eabi\lib\gnat\ravenscar-full-nrf52833\adalib\libgnat.a(raise-gcc.o)
                                          0x8 (size before relaxing)
 .ARM.exidx.text.__gnat_debug_raise_exception
                0x000000000000d4dc        0x0 C:\gnat\2021-arm-elf\arm-eabi\lib\gnat\ravenscar-full-nrf52833\adalib\libgnat.a(s-excdeb.o)
                                          0x8 (size before relaxing)
 .ARM.exidx.text.__gnat_unhandled_exception
                0x000000000000d4dc        0x0 C:\gnat\2021-arm-elf\arm-eabi\lib\gnat\ravenscar-full-nrf52833\adalib\libgnat.a(s-excdeb.o)
                                          0x8 (size before relaxing)
 .ARM.exidx.text.__gnat_debug_raise_assert_failure
                0x000000000000d4dc        0x0 C:\gnat\2021-arm-elf\arm-eabi\lib\gnat\ravenscar-full-nrf52833\adalib\libgnat.a(s-excdeb.o)
                                          0x8 (size before relaxing)
 .ARM.exidx.text.local_raise
                0x000000000000d4dc        0x0 C:\gnat\2021-arm-elf\arm-eabi\lib\gnat\ravenscar-full-nrf52833\adalib\libgnat.a(s-excdeb.o)
                                          0x8 (size before relaxing)
 .ARM.exidx.text.system__exceptions__machine__Texception_classBIP
                0x000000000000d4dc        0x0 C:\gnat\2021-arm-elf\arm-eabi\lib\gnat\ravenscar-full-nrf52833\adalib\libgnat.a(s-excmac.o)
                                          0x8 (size before relaxing)
 .ARM.exidx.text.system__exceptions__machine__unwind_reason_codeH
                0x000000000000d4dc        0x0 C:\gnat\2021-arm-elf\arm-eabi\lib\gnat\ravenscar-full-nrf52833\adalib\libgnat.a(s-excmac.o)
                                          0x8 (size before relaxing)
 .ARM.exidx.text.system__exceptions__machine__uint32_t_arrayIP
                0x000000000000d4dc        0x0 C:\gnat\2021-arm-elf\arm-eabi\lib\gnat\ravenscar-full-nrf52833\adalib\libgnat.a(s-excmac.o)
                                          0x8 (size before relaxing)
 .ARM.exidx.text.system__exceptions__machine__unwinder_cache_typeIP
                0x000000000000d4dc        0x0 C:\gnat\2021-arm-elf\arm-eabi\lib\gnat\ravenscar-full-nrf52833\adalib\libgnat.a(s-excmac.o)
                                          0x8 (size before relaxing)
 .ARM.exidx.text.system__exceptions__machine__barrier_cache_typeIP
                0x000000000000d4dc        0x0 C:\gnat\2021-arm-elf\arm-eabi\lib\gnat\ravenscar-full-nrf52833\adalib\libgnat.a(s-excmac.o)
                                          0x8 (size before relaxing)
 .ARM.exidx.text.system__exceptions__machine__cleanup_cache_typeIP
                0x000000000000d4dc        0x0 C:\gnat\2021-arm-elf\arm-eabi\lib\gnat\ravenscar-full-nrf52833\adalib\libgnat.a(s-excmac.o)
                                          0x8 (size before relaxing)
 .ARM.exidx.text.system__exceptions__machine__pr_cache_typeIP
                0x000000000000d4dc        0x0 C:\gnat\2021-arm-elf\arm-eabi\lib\gnat\ravenscar-full-nrf52833\adalib\libgnat.a(s-excmac.o)
                                          0x8 (size before relaxing)
 .ARM.exidx.text.system__exceptions__machine__unwind_control_blockIP
                0x000000000000d4dc        0x0 C:\gnat\2021-arm-elf\arm-eabi\lib\gnat\ravenscar-full-nrf52833\adalib\libgnat.a(s-excmac.o)
                                          0x8 (size before relaxing)
 .ARM.exidx.text.system__exceptions__machine__gnat_gcc_exceptionIP
                0x000000000000d4dc        0x0 C:\gnat\2021-arm-elf\arm-eabi\lib\gnat\ravenscar-full-nrf52833\adalib\libgnat.a(s-excmac.o)
                                          0x8 (size before relaxing)
 .ARM.exidx.text.system__exceptions__machine__new_occurrence
                0x000000000000d4dc        0x8 C:\gnat\2021-arm-elf\arm-eabi\lib\gnat\ravenscar-full-nrf52833\adalib\libgnat.a(s-excmac.o)
 .ARM.exidx.text.system__exception_table__register.part.0
                0x000000000000d4e4        0x8 C:\gnat\2021-arm-elf\arm-eabi\lib\gnat\ravenscar-full-nrf52833\adalib\libgnat.a(s-exctab.o)
 .ARM.exidx.text.system__exception_table__exception_data_arrayIP
                0x000000000000d4ec        0x0 C:\gnat\2021-arm-elf\arm-eabi\lib\gnat\ravenscar-full-nrf52833\adalib\libgnat.a(s-exctab.o)
                                          0x8 (size before relaxing)
 .ARM.exidx.text.system__exception_table__ThtableBIP
                0x000000000000d4ec        0x0 C:\gnat\2021-arm-elf\arm-eabi\lib\gnat\ravenscar-full-nrf52833\adalib\libgnat.a(s-exctab.o)
                                          0x8 (size before relaxing)
 .ARM.exidx.text.system__exception_table__has_name
                0x000000000000d4ec        0x0 C:\gnat\2021-arm-elf\arm-eabi\lib\gnat\ravenscar-full-nrf52833\adalib\libgnat.a(s-exctab.o)
                                          0x8 (size before relaxing)
 .ARM.exidx.text.system__exception_table__lookup
                0x000000000000d4ec        0x0 C:\gnat\2021-arm-elf\arm-eabi\lib\gnat\ravenscar-full-nrf52833\adalib\libgnat.a(s-exctab.o)
                                          0x8 (size before relaxing)
 .ARM.exidx.text.system__exception_table__hash
                0x000000000000d4ec        0x0 C:\gnat\2021-arm-elf\arm-eabi\lib\gnat\ravenscar-full-nrf52833\adalib\libgnat.a(s-exctab.o)
                                          0x8 (size before relaxing)
 .ARM.exidx.text.system__exception_table__register
                0x000000000000d4ec        0x0 C:\gnat\2021-arm-elf\arm-eabi\lib\gnat\ravenscar-full-nrf52833\adalib\libgnat.a(s-exctab.o)
                                          0x8 (size before relaxing)
 .ARM.exidx.text.system__exception_table__get_registered_exceptions
                0x000000000000d4ec        0x8 C:\gnat\2021-arm-elf\arm-eabi\lib\gnat\ravenscar-full-nrf52833\adalib\libgnat.a(s-exctab.o)
 .ARM.exidx.text.system__exception_table__internal_exception
                0x000000000000d4f4        0x8 C:\gnat\2021-arm-elf\arm-eabi\lib\gnat\ravenscar-full-nrf52833\adalib\libgnat.a(s-exctab.o)
 .ARM.exidx.text.system__exception_table__register_exception
                0x000000000000d4fc        0x8 C:\gnat\2021-arm-elf\arm-eabi\lib\gnat\ravenscar-full-nrf52833\adalib\libgnat.a(s-exctab.o)
 .ARM.exidx.text.system__exception_table__registered_exceptions_count
                0x000000000000d504        0x8 C:\gnat\2021-arm-elf\arm-eabi\lib\gnat\ravenscar-full-nrf52833\adalib\libgnat.a(s-exctab.o)
 .ARM.exidx.text.system__exception_table___elabb
                0x000000000000d50c        0x8 C:\gnat\2021-arm-elf\arm-eabi\lib\gnat\ravenscar-full-nrf52833\adalib\libgnat.a(s-exctab.o)
 .ARM.exidx.text.system__img_int__impl__set_image_integer
                0x000000000000d514        0x0 C:\gnat\2021-arm-elf\arm-eabi\lib\gnat\ravenscar-full-nrf52833\adalib\libgnat.a(s-imgint.o)
                                          0x8 (size before relaxing)
 .ARM.exidx.text.system__img_int__impl__image_integer
                0x000000000000d514        0x0 C:\gnat\2021-arm-elf\arm-eabi\lib\gnat\ravenscar-full-nrf52833\adalib\libgnat.a(s-imgint.o)
                                          0x8 (size before relaxing)
 .ARM.exidx.text.__gnat_finalize
                0x000000000000d514        0x0 C:\gnat\2021-arm-elf\arm-eabi\lib\gnat\ravenscar-full-nrf52833\adalib\libgnat.a(s-init.o)
                                          0x8 (size before relaxing)
 .ARM.exidx.text.__gnat_initialize
                0x000000000000d514        0x0 C:\gnat\2021-arm-elf\arm-eabi\lib\gnat\ravenscar-full-nrf52833\adalib\libgnat.a(s-init.o)
                                          0x8 (size before relaxing)
 .ARM.exidx.text.__gnat_install_handler
                0x000000000000d514        0x8 C:\gnat\2021-arm-elf\arm-eabi\lib\gnat\ravenscar-full-nrf52833\adalib\libgnat.a(s-init.o)
 .ARM.exidx.text.__gnat_runtime_initialize
                0x000000000000d51c        0x8 C:\gnat\2021-arm-elf\arm-eabi\lib\gnat\ravenscar-full-nrf52833\adalib\libgnat.a(s-init.o)
 .ARM.exidx.text.__gnat_runtime_finalize
                0x000000000000d524        0x8 C:\gnat\2021-arm-elf\arm-eabi\lib\gnat\ravenscar-full-nrf52833\adalib\libgnat.a(s-init.o)
 .ARM.exidx.text.system__io__new_line
                0x000000000000d52c        0x8 C:\gnat\2021-arm-elf\arm-eabi\lib\gnat\ravenscar-full-nrf52833\adalib\libgnat.a(s-io.o)
 .ARM.exidx.text.system__io__put__2
                0x000000000000d534        0x8 C:\gnat\2021-arm-elf\arm-eabi\lib\gnat\ravenscar-full-nrf52833\adalib\libgnat.a(s-io.o)
 .ARM.exidx.text.system__io__put__3
                0x000000000000d53c        0x8 C:\gnat\2021-arm-elf\arm-eabi\lib\gnat\ravenscar-full-nrf52833\adalib\libgnat.a(s-io.o)
 .ARM.exidx.text.system__io__put
                0x000000000000d544        0x8 C:\gnat\2021-arm-elf\arm-eabi\lib\gnat\ravenscar-full-nrf52833\adalib\libgnat.a(s-io.o)
 .ARM.exidx.text.put_char_stderr
                0x000000000000d54c        0x8 C:\gnat\2021-arm-elf\arm-eabi\lib\gnat\ravenscar-full-nrf52833\adalib\libgnat.a(s-io.o)
 .ARM.exidx.text.system__io__put_line
                0x000000000000d554        0x0 C:\gnat\2021-arm-elf\arm-eabi\lib\gnat\ravenscar-full-nrf52833\adalib\libgnat.a(s-io.o)
                                          0x8 (size before relaxing)
 .ARM.exidx.text.system__io__standard_output
                0x000000000000d554        0x8 C:\gnat\2021-arm-elf\arm-eabi\lib\gnat\ravenscar-full-nrf52833\adalib\libgnat.a(s-io.o)
 .ARM.exidx.text.system__io__standard_error
                0x000000000000d55c        0x0 C:\gnat\2021-arm-elf\arm-eabi\lib\gnat\ravenscar-full-nrf52833\adalib\libgnat.a(s-io.o)
                                          0x8 (size before relaxing)
 .ARM.exidx.text.system__io__set_output
                0x000000000000d55c        0x0 C:\gnat\2021-arm-elf\arm-eabi\lib\gnat\ravenscar-full-nrf52833\adalib\libgnat.a(s-io.o)
                                          0x8 (size before relaxing)
 .ARM.exidx.text._exit
                0x000000000000d55c        0x0 C:\gnat\2021-arm-elf\arm-eabi\lib\gnat\ravenscar-full-nrf52833\adalib\libgnat.a(s-macres.o)
                                          0x8 (size before relaxing)
 .ARM.exidx.text.abort
                0x000000000000d55c        0x0 C:\gnat\2021-arm-elf\arm-eabi\lib\gnat\ravenscar-full-nrf52833\adalib\libgnat.a(s-macres.o)
                                          0x8 (size before relaxing)
 .ARM.exidx.text.system__machine_reset__stop
                0x000000000000d55c        0x0 C:\gnat\2021-arm-elf\arm-eabi\lib\gnat\ravenscar-full-nrf52833\adalib\libgnat.a(s-macres.o)
                                          0x8 (size before relaxing)
 .ARM.exidx.text.__gnat_malloc
                0x000000000000d55c        0x8 C:\gnat\2021-arm-elf\arm-eabi\lib\gnat\ravenscar-full-nrf52833\adalib\libgnat.a(s-memory.o)
 .ARM.exidx.text.__gnat_free
                0x000000000000d564        0x8 C:\gnat\2021-arm-elf\arm-eabi\lib\gnat\ravenscar-full-nrf52833\adalib\libgnat.a(s-memory.o)
 .ARM.exidx.text.__gnat_realloc
                0x000000000000d56c        0x8 C:\gnat\2021-arm-elf\arm-eabi\lib\gnat\ravenscar-full-nrf52833\adalib\libgnat.a(s-memory.o)
 .ARM.exidx.text.system__parameters__adjust_storage_size
                0x000000000000d574        0x8 C:\gnat\2021-arm-elf\arm-eabi\lib\gnat\ravenscar-full-nrf52833\adalib\libgnat.a(s-parame.o)
 .ARM.exidx.text.system__put_images__hex__put_digitsXn
                0x000000000000d57c        0x8 C:\gnat\2021-arm-elf\arm-eabi\lib\gnat\ravenscar-full-nrf52833\adalib\libgnat.a(s-putima.o)
 .ARM.exidx.text.system__put_images__thin_instance
                0x000000000000d584        0x8 C:\gnat\2021-arm-elf\arm-eabi\lib\gnat\ravenscar-full-nrf52833\adalib\libgnat.a(s-putima.o)
 .ARM.exidx.text.system__put_images__ll_integer_images__put_digitsXn
                0x000000000000d58c        0x8 C:\gnat\2021-arm-elf\arm-eabi\lib\gnat\ravenscar-full-nrf52833\adalib\libgnat.a(s-putima.o)
 .ARM.exidx.text.system__put_images__integer_images__put_digitsXn
                0x000000000000d594        0x8 C:\gnat\2021-arm-elf\arm-eabi\lib\gnat\ravenscar-full-nrf52833\adalib\libgnat.a(s-putima.o)
 .ARM.exidx.text.system__put_images__byte_stringIP
                0x000000000000d59c        0x8 C:\gnat\2021-arm-elf\arm-eabi\lib\gnat\ravenscar-full-nrf52833\adalib\libgnat.a(s-putima.o)
 .ARM.exidx.text.system__put_images__integer_images__put_imageXn
                0x000000000000d5a4        0x8 C:\gnat\2021-arm-elf\arm-eabi\lib\gnat\ravenscar-full-nrf52833\adalib\libgnat.a(s-putima.o)
 .ARM.exidx.text.system__put_images__integer_images__put_image__2Xn
                0x000000000000d5ac        0x8 C:\gnat\2021-arm-elf\arm-eabi\lib\gnat\ravenscar-full-nrf52833\adalib\libgnat.a(s-putima.o)
 .ARM.exidx.text.system__put_images__ll_integer_images__put_imageXn
                0x000000000000d5b4        0x8 C:\gnat\2021-arm-elf\arm-eabi\lib\gnat\ravenscar-full-nrf52833\adalib\libgnat.a(s-putima.o)
 .ARM.exidx.text.system__put_images__ll_integer_images__put_image__2Xn
                0x000000000000d5bc        0x8 C:\gnat\2021-arm-elf\arm-eabi\lib\gnat\ravenscar-full-nrf52833\adalib\libgnat.a(s-putima.o)
 .ARM.exidx.text.system__put_images__lll_integer_images__put_imageXn
                0x000000000000d5c4        0x8 C:\gnat\2021-arm-elf\arm-eabi\lib\gnat\ravenscar-full-nrf52833\adalib\libgnat.a(s-putima.o)
 .ARM.exidx.text.system__put_images__lll_integer_images__put_image__2Xn
                0x000000000000d5cc        0x8 C:\gnat\2021-arm-elf\arm-eabi\lib\gnat\ravenscar-full-nrf52833\adalib\libgnat.a(s-putima.o)
 .ARM.exidx.text.system__put_images__hex__put_imageXn
                0x000000000000d5d4        0x8 C:\gnat\2021-arm-elf\arm-eabi\lib\gnat\ravenscar-full-nrf52833\adalib\libgnat.a(s-putima.o)
 .ARM.exidx.text.system__put_images__hex__put_image__2Xn
                0x000000000000d5dc        0x0 C:\gnat\2021-arm-elf\arm-eabi\lib\gnat\ravenscar-full-nrf52833\adalib\libgnat.a(s-putima.o)
                                          0x8 (size before relaxing)
 .ARM.exidx.text.system__put_images__put_image_integer
                0x000000000000d5dc        0x8 C:\gnat\2021-arm-elf\arm-eabi\lib\gnat\ravenscar-full-nrf52833\adalib\libgnat.a(s-putima.o)
 .ARM.exidx.text.system__put_images__put_image_long_long_integer
                0x000000000000d5e4        0x8 C:\gnat\2021-arm-elf\arm-eabi\lib\gnat\ravenscar-full-nrf52833\adalib\libgnat.a(s-putima.o)
 .ARM.exidx.text.system__put_images__put_image_long_long_long_integer
                0x000000000000d5ec        0x0 C:\gnat\2021-arm-elf\arm-eabi\lib\gnat\ravenscar-full-nrf52833\adalib\libgnat.a(s-putima.o)
                                          0x8 (size before relaxing)
 .ARM.exidx.text.system__put_images__put_image_unsigned
                0x000000000000d5ec        0x8 C:\gnat\2021-arm-elf\arm-eabi\lib\gnat\ravenscar-full-nrf52833\adalib\libgnat.a(s-putima.o)
 .ARM.exidx.text.system__put_images__put_image_long_long_unsigned
                0x000000000000d5f4        0x8 C:\gnat\2021-arm-elf\arm-eabi\lib\gnat\ravenscar-full-nrf52833\adalib\libgnat.a(s-putima.o)
 .ARM.exidx.text.system__put_images__put_image_long_long_long_unsigned
                0x000000000000d5fc        0x0 C:\gnat\2021-arm-elf\arm-eabi\lib\gnat\ravenscar-full-nrf52833\adalib\libgnat.a(s-putima.o)
                                          0x8 (size before relaxing)
 .ARM.exidx.text.system__put_images__put_image_thin_pointer
                0x000000000000d5fc        0x8 C:\gnat\2021-arm-elf\arm-eabi\lib\gnat\ravenscar-full-nrf52833\adalib\libgnat.a(s-putima.o)
 .ARM.exidx.text.system__put_images__put_image_fat_pointer
                0x000000000000d604        0x8 C:\gnat\2021-arm-elf\arm-eabi\lib\gnat\ravenscar-full-nrf52833\adalib\libgnat.a(s-putima.o)
 .ARM.exidx.text.system__put_images__put_image_access_subp
                0x000000000000d60c        0x8 C:\gnat\2021-arm-elf\arm-eabi\lib\gnat\ravenscar-full-nrf52833\adalib\libgnat.a(s-putima.o)
 .ARM.exidx.text.system__put_images__put_image_access_prot_subp
                0x000000000000d614        0x0 C:\gnat\2021-arm-elf\arm-eabi\lib\gnat\ravenscar-full-nrf52833\adalib\libgnat.a(s-putima.o)
                                          0x8 (size before relaxing)
 .ARM.exidx.text.system__put_images__put_image_string
                0x000000000000d614        0x8 C:\gnat\2021-arm-elf\arm-eabi\lib\gnat\ravenscar-full-nrf52833\adalib\libgnat.a(s-putima.o)
 .ARM.exidx.text.system__put_images__put_image_wide_string
                0x000000000000d61c        0x0 C:\gnat\2021-arm-elf\arm-eabi\lib\gnat\ravenscar-full-nrf52833\adalib\libgnat.a(s-putima.o)
                                          0x8 (size before relaxing)
 .ARM.exidx.text.system__put_images__put_image_wide_wide_string
                0x000000000000d61c        0x0 C:\gnat\2021-arm-elf\arm-eabi\lib\gnat\ravenscar-full-nrf52833\adalib\libgnat.a(s-putima.o)
                                          0x8 (size before relaxing)
 .ARM.exidx.text.system__put_images__array_before
                0x000000000000d61c        0x8 C:\gnat\2021-arm-elf\arm-eabi\lib\gnat\ravenscar-full-nrf52833\adalib\libgnat.a(s-putima.o)
 .ARM.exidx.text.system__put_images__array_between
                0x000000000000d624        0x0 C:\gnat\2021-arm-elf\arm-eabi\lib\gnat\ravenscar-full-nrf52833\adalib\libgnat.a(s-putima.o)
                                          0x8 (size before relaxing)
 .ARM.exidx.text.system__put_images__array_after
                0x000000000000d624        0x0 C:\gnat\2021-arm-elf\arm-eabi\lib\gnat\ravenscar-full-nrf52833\adalib\libgnat.a(s-putima.o)
                                          0x8 (size before relaxing)
 .ARM.exidx.text.system__put_images__simple_array_between
                0x000000000000d624        0x0 C:\gnat\2021-arm-elf\arm-eabi\lib\gnat\ravenscar-full-nrf52833\adalib\libgnat.a(s-putima.o)
                                          0x8 (size before relaxing)
 .ARM.exidx.text.system__put_images__record_before
                0x000000000000d624        0x0 C:\gnat\2021-arm-elf\arm-eabi\lib\gnat\ravenscar-full-nrf52833\adalib\libgnat.a(s-putima.o)
                                          0x8 (size before relaxing)
 .ARM.exidx.text.system__put_images__record_between
                0x000000000000d624        0x0 C:\gnat\2021-arm-elf\arm-eabi\lib\gnat\ravenscar-full-nrf52833\adalib\libgnat.a(s-putima.o)
                                          0x8 (size before relaxing)
 .ARM.exidx.text.system__put_images__record_after
                0x000000000000d624        0x0 C:\gnat\2021-arm-elf\arm-eabi\lib\gnat\ravenscar-full-nrf52833\adalib\libgnat.a(s-putima.o)
                                          0x8 (size before relaxing)
 .ARM.exidx.text.system__put_images__put_arrow
                0x000000000000d624        0x8 C:\gnat\2021-arm-elf\arm-eabi\lib\gnat\ravenscar-full-nrf52833\adalib\libgnat.a(s-putima.o)
 .ARM.exidx.text.system__put_images__put_image_unknown
                0x000000000000d62c        0x8 C:\gnat\2021-arm-elf\arm-eabi\lib\gnat\ravenscar-full-nrf52833\adalib\libgnat.a(s-putima.o)
 .ARM.exidx.text.system__secondary_stack__memoryIP
                0x000000000000d634        0x8 C:\gnat\2021-arm-elf\arm-eabi\lib\gnat\ravenscar-full-nrf52833\adalib\libgnat.a(s-secsta.o)
 .ARM.exidx.text.system__secondary_stack__ss_stackIP
                0x000000000000d63c        0x0 C:\gnat\2021-arm-elf\arm-eabi\lib\gnat\ravenscar-full-nrf52833\adalib\libgnat.a(s-secsta.o)
                                          0x8 (size before relaxing)
 .ARM.exidx.text.system__secondary_stack__ss_allocate
                0x000000000000d63c        0x8 C:\gnat\2021-arm-elf\arm-eabi\lib\gnat\ravenscar-full-nrf52833\adalib\libgnat.a(s-secsta.o)
 .ARM.exidx.text.system__secondary_stack__ss_get_max
                0x000000000000d644        0x8 C:\gnat\2021-arm-elf\arm-eabi\lib\gnat\ravenscar-full-nrf52833\adalib\libgnat.a(s-secsta.o)
 .ARM.exidx.text.system__secondary_stack__ss_init
                0x000000000000d64c        0x8 C:\gnat\2021-arm-elf\arm-eabi\lib\gnat\ravenscar-full-nrf52833\adalib\libgnat.a(s-secsta.o)
 .ARM.exidx.text.system__secondary_stack__ss_mark
                0x000000000000d654        0x8 C:\gnat\2021-arm-elf\arm-eabi\lib\gnat\ravenscar-full-nrf52833\adalib\libgnat.a(s-secsta.o)
 .ARM.exidx.text.system__secondary_stack__ss_release
                0x000000000000d65c        0x8 C:\gnat\2021-arm-elf\arm-eabi\lib\gnat\ravenscar-full-nrf52833\adalib\libgnat.a(s-secsta.o)
 .ARM.exidx.text.system__soft_links__abort_defer_raven
                0x000000000000d664        0x8 C:\gnat\2021-arm-elf\arm-eabi\lib\gnat\ravenscar-full-nrf52833\adalib\libgnat.a(s-soflin.o)
 .ARM.exidx.text.system__soft_links__get_current_excep_soft
                0x000000000000d66c        0x0 C:\gnat\2021-arm-elf\arm-eabi\lib\gnat\ravenscar-full-nrf52833\adalib\libgnat.a(s-soflin.o)
                                          0x8 (size before relaxing)
 .ARM.exidx.text.system__soft_links__adafinal_soft
                0x000000000000d66c        0x0 C:\gnat\2021-arm-elf\arm-eabi\lib\gnat\ravenscar-full-nrf52833\adalib\libgnat.a(s-soflin.o)
                                          0x8 (size before relaxing)
 .ARM.exidx.text.system__soft_links__task_lock_soft
                0x000000000000d66c        0x8 C:\gnat\2021-arm-elf\arm-eabi\lib\gnat\ravenscar-full-nrf52833\adalib\libgnat.a(s-soflin.o)
 .ARM.exidx.text.system__soft_links__abort_undefer_raven
                0x000000000000d674        0x8 C:\gnat\2021-arm-elf\arm-eabi\lib\gnat\ravenscar-full-nrf52833\adalib\libgnat.a(s-soflin.o)
 .ARM.exidx.text.system__soft_links__task_termination_soft
                0x000000000000d67c        0x8 C:\gnat\2021-arm-elf\arm-eabi\lib\gnat\ravenscar-full-nrf52833\adalib\libgnat.a(s-soflin.o)
 .ARM.exidx.text.system__soft_links__task_unlock_soft
                0x000000000000d684        0x8 C:\gnat\2021-arm-elf\arm-eabi\lib\gnat\ravenscar-full-nrf52833\adalib\libgnat.a(s-soflin.o)
 .ARM.exidx.text.system__soft_links__get_gnat_exception
                0x000000000000d68c        0x8 C:\gnat\2021-arm-elf\arm-eabi\lib\gnat\ravenscar-full-nrf52833\adalib\libgnat.a(s-soflin.o)
 .ARM.exidx.text.system__soft_links___elabs
                0x000000000000d694        0x0 C:\gnat\2021-arm-elf\arm-eabi\lib\gnat\ravenscar-full-nrf52833\adalib\libgnat.a(s-soflin.o)
                                          0x8 (size before relaxing)
 .ARM.exidx.text.system__standard_library__exception_dataIP
                0x000000000000d694        0x0 C:\gnat\2021-arm-elf\arm-eabi\lib\gnat\ravenscar-full-nrf52833\adalib\libgnat.a(s-stalib.o)
                                          0x8 (size before relaxing)
 .ARM.exidx.text.system__standard_library__exception_trace_kindH
                0x000000000000d694        0x0 C:\gnat\2021-arm-elf\arm-eabi\lib\gnat\ravenscar-full-nrf52833\adalib\libgnat.a(s-stalib.o)
                                          0x8 (size before relaxing)
 .ARM.exidx.text.system__standard_library__abort_undefer_direct
                0x000000000000d694        0x0 C:\gnat\2021-arm-elf\arm-eabi\lib\gnat\ravenscar-full-nrf52833\adalib\libgnat.a(s-stalib.o)
                                          0x8 (size before relaxing)
 .ARM.exidx.text.system__standard_library__adafinal
                0x000000000000d694        0x0 C:\gnat\2021-arm-elf\arm-eabi\lib\gnat\ravenscar-full-nrf52833\adalib\libgnat.a(s-stalib.o)
                                          0x8 (size before relaxing)
 .ARM.exidx.text.__gnat_break_start
                0x000000000000d694        0x0 C:\gnat\2021-arm-elf\arm-eabi\lib\gnat\ravenscar-full-nrf52833\adalib\libgnat.a(s-stalib.o)
                                          0x8 (size before relaxing)
 .ARM.exidx.text.system__text_io__get
                0x000000000000d694        0x0 C:\gnat\2021-arm-elf\arm-eabi\lib\gnat\ravenscar-full-nrf52833\adalib\libgnat.a(s-textio.o)
                                          0x8 (size before relaxing)
 .ARM.exidx.text.system__text_io__is_rx_ready
                0x000000000000d694        0x0 C:\gnat\2021-arm-elf\arm-eabi\lib\gnat\ravenscar-full-nrf52833\adalib\libgnat.a(s-textio.o)
                                          0x8 (size before relaxing)
 .ARM.exidx.text.system__text_io__is_tx_ready
                0x000000000000d694        0x0 C:\gnat\2021-arm-elf\arm-eabi\lib\gnat\ravenscar-full-nrf52833\adalib\libgnat.a(s-textio.o)
                                          0x8 (size before relaxing)
 .ARM.exidx.text.system__text_io__put
                0x000000000000d694        0x0 C:\gnat\2021-arm-elf\arm-eabi\lib\gnat\ravenscar-full-nrf52833\adalib\libgnat.a(s-textio.o)
                                          0x8 (size before relaxing)
 .ARM.exidx.text.system__text_io__initialize
                0x000000000000d694        0x0 C:\gnat\2021-arm-elf\arm-eabi\lib\gnat\ravenscar-full-nrf52833\adalib\libgnat.a(s-textio.o)
                                          0x8 (size before relaxing)
 .ARM.exidx.text.system__text_io__use_cr_lf_for_new_line
                0x000000000000d694        0x0 C:\gnat\2021-arm-elf\arm-eabi\lib\gnat\ravenscar-full-nrf52833\adalib\libgnat.a(s-textio.o)
                                          0x8 (size before relaxing)
 .ARM.exidx.text.system__traceback__backtrace_callback
                0x000000000000d694        0x8 C:\gnat\2021-arm-elf\arm-eabi\lib\gnat\ravenscar-full-nrf52833\adalib\libgnat.a(s-traceb.o)
 .ARM.exidx.text.system__traceback__unwind_context_typeIP
                0x000000000000d69c        0x8 C:\gnat\2021-arm-elf\arm-eabi\lib\gnat\ravenscar-full-nrf52833\adalib\libgnat.a(s-traceb.o)
 .ARM.exidx.text.system__traceback__callback_params_typeIP
                0x000000000000d6a4        0x0 C:\gnat\2021-arm-elf\arm-eabi\lib\gnat\ravenscar-full-nrf52833\adalib\libgnat.a(s-traceb.o)
                                          0x8 (size before relaxing)
 .ARM.exidx.text.system__traceback__call_chain
                0x000000000000d6a4        0x8 C:\gnat\2021-arm-elf\arm-eabi\lib\gnat\ravenscar-full-nrf52833\adalib\libgnat.a(s-traceb.o)
 .ARM.exidx.text.system__traceback_entries__tracebacks_arrayIP
                0x000000000000d6ac        0x8 C:\gnat\2021-arm-elf\arm-eabi\lib\gnat\ravenscar-full-nrf52833\adalib\libgnat.a(s-traent.o)
 .ARM.exidx.text.system__traceback_entries__pc_for
                0x000000000000d6b4        0x0 C:\gnat\2021-arm-elf\arm-eabi\lib\gnat\ravenscar-full-nrf52833\adalib\libgnat.a(s-traent.o)
                                          0x8 (size before relaxing)
 .ARM.exidx.text.system__traceback_entries__tb_entry_for
                0x000000000000d6b4        0x0 C:\gnat\2021-arm-elf\arm-eabi\lib\gnat\ravenscar-full-nrf52833\adalib\libgnat.a(s-traent.o)
                                          0x8 (size before relaxing)
 .ARM.exidx.text.system__val_uns__impl__scan_raw_unsigned
                0x000000000000d6b4        0x8 C:\gnat\2021-arm-elf\arm-eabi\lib\gnat\ravenscar-full-nrf52833\adalib\libgnat.a(s-valuns.o)
 .ARM.exidx.text.system__val_uns__impl__scan_unsigned
                0x000000000000d6bc        0x8 C:\gnat\2021-arm-elf\arm-eabi\lib\gnat\ravenscar-full-nrf52833\adalib\libgnat.a(s-valuns.o)
 .ARM.exidx.text.system__val_uns__impl__value_unsigned
                0x000000000000d6c4        0x8 C:\gnat\2021-arm-elf\arm-eabi\lib\gnat\ravenscar-full-nrf52833\adalib\libgnat.a(s-valuns.o)
 .ARM.exidx.text.system__val_util__bad_value
                0x000000000000d6cc        0x8 C:\gnat\2021-arm-elf\arm-eabi\lib\gnat\ravenscar-full-nrf52833\adalib\libgnat.a(s-valuti.o)
 .ARM.exidx.text.system__val_util__normalize_string
                0x000000000000d6d4        0x8 C:\gnat\2021-arm-elf\arm-eabi\lib\gnat\ravenscar-full-nrf52833\adalib\libgnat.a(s-valuti.o)
 .ARM.exidx.text.system__val_util__scan_exponent
                0x000000000000d6dc        0x8 C:\gnat\2021-arm-elf\arm-eabi\lib\gnat\ravenscar-full-nrf52833\adalib\libgnat.a(s-valuti.o)
 .ARM.exidx.text.system__val_util__scan_plus_sign
                0x000000000000d6e4        0x8 C:\gnat\2021-arm-elf\arm-eabi\lib\gnat\ravenscar-full-nrf52833\adalib\libgnat.a(s-valuti.o)
 .ARM.exidx.text.system__val_util__scan_sign
                0x000000000000d6ec        0x0 C:\gnat\2021-arm-elf\arm-eabi\lib\gnat\ravenscar-full-nrf52833\adalib\libgnat.a(s-valuti.o)
                                          0x8 (size before relaxing)
 .ARM.exidx.text.system__val_util__scan_trailing_blanks
                0x000000000000d6ec        0x8 C:\gnat\2021-arm-elf\arm-eabi\lib\gnat\ravenscar-full-nrf52833\adalib\libgnat.a(s-valuti.o)
 .ARM.exidx.text.system__val_util__scan_underscore
                0x000000000000d6f4        0x8 C:\gnat\2021-arm-elf\arm-eabi\lib\gnat\ravenscar-full-nrf52833\adalib\libgnat.a(s-valuti.o)
 .ARM.exidx.text.system__wch_con__get_wc_encoding_method
                0x000000000000d6fc        0x8 C:\gnat\2021-arm-elf\arm-eabi\lib\gnat\ravenscar-full-nrf52833\adalib\libgnat.a(s-wchcon.o)
 .ARM.exidx.text.system__wch_con__get_wc_encoding_method__2
                0x000000000000d704        0x8 C:\gnat\2021-arm-elf\arm-eabi\lib\gnat\ravenscar-full-nrf52833\adalib\libgnat.a(s-wchcon.o)
 .ARM.exidx.text.system__wch_con__is_start_of_encoding
                0x000000000000d70c        0x8 C:\gnat\2021-arm-elf\arm-eabi\lib\gnat\ravenscar-full-nrf52833\adalib\libgnat.a(s-wchcon.o)
 .ARM.exidx.text.system__wch_stw__get_next_code__in_char.0
                0x000000000000d714        0x8 C:\gnat\2021-arm-elf\arm-eabi\lib\gnat\ravenscar-full-nrf52833\adalib\libgnat.a(s-wchstw.o)
 .ARM.exidx.text.system__wch_stw__get_next_code__get_utf_32__get_hex.3
                0x000000000000d71c        0x8 C:\gnat\2021-arm-elf\arm-eabi\lib\gnat\ravenscar-full-nrf52833\adalib\libgnat.a(s-wchstw.o)
 .ARM.exidx.text.system__wch_stw__get_next_code__get_utf_32.1
                0x000000000000d724        0x8 C:\gnat\2021-arm-elf\arm-eabi\lib\gnat\ravenscar-full-nrf52833\adalib\libgnat.a(s-wchstw.o)
 .ARM.exidx.text.system__wch_stw__get_next_code
                0x000000000000d72c        0x8 C:\gnat\2021-arm-elf\arm-eabi\lib\gnat\ravenscar-full-nrf52833\adalib\libgnat.a(s-wchstw.o)
 .ARM.exidx.text.system__wch_stw__string_to_wide_string
                0x000000000000d734        0x8 C:\gnat\2021-arm-elf\arm-eabi\lib\gnat\ravenscar-full-nrf52833\adalib\libgnat.a(s-wchstw.o)
 .ARM.exidx.text.system__wch_stw__string_to_wide_wide_string
                0x000000000000d73c       0x10 C:\gnat\2021-arm-elf\arm-eabi\lib\gnat\ravenscar-full-nrf52833\adalib\libgnat.a(s-wchstw.o)
                                          0x8 (size before relaxing)
 .ARM.exidx.text.__gnat_last_chance_handler
                0x000000000000d74c        0x8 C:\gnat\2021-arm-elf\arm-eabi\lib\gnat\ravenscar-full-nrf52833\adalib\libgnat.a(a-elchha.o)
 .ARM.exidx.text.ada__strings__text_buffers__utils__utf_8_length
                0x000000000000d754        0x8 C:\gnat\2021-arm-elf\arm-eabi\lib\gnat\ravenscar-full-nrf52833\adalib\libgnat.a(a-stbuut.o)
 .ARM.exidx.text.ada__strings__text_buffers__utils__utf_8_linesPredicate
                0x000000000000d75c        0x8 C:\gnat\2021-arm-elf\arm-eabi\lib\gnat\ravenscar-full-nrf52833\adalib\libgnat.a(a-stbuut.o)
 .ARM.exidx.text.ada__strings__text_buffers__utils__utf_8Predicate
                0x000000000000d764        0x8 C:\gnat\2021-arm-elf\arm-eabi\lib\gnat\ravenscar-full-nrf52833\adalib\libgnat.a(a-stbuut.o)
 .ARM.exidx.text.ada__strings__text_buffers__utils__nl
                0x000000000000d76c        0x8 C:\gnat\2021-arm-elf\arm-eabi\lib\gnat\ravenscar-full-nrf52833\adalib\libgnat.a(a-stbuut.o)
 .ARM.exidx.text.ada__strings__text_buffers__utils__put_7bit
                0x000000000000d774        0x8 C:\gnat\2021-arm-elf\arm-eabi\lib\gnat\ravenscar-full-nrf52833\adalib\libgnat.a(a-stbuut.o)
 .ARM.exidx.text.ada__strings__text_buffers__utils__put_character
                0x000000000000d77c        0x0 C:\gnat\2021-arm-elf\arm-eabi\lib\gnat\ravenscar-full-nrf52833\adalib\libgnat.a(a-stbuut.o)
                                          0x8 (size before relaxing)
 .ARM.exidx.text.ada__strings__text_buffers__utils__put_wide_character
                0x000000000000d77c        0x0 C:\gnat\2021-arm-elf\arm-eabi\lib\gnat\ravenscar-full-nrf52833\adalib\libgnat.a(a-stbuut.o)
                                          0x8 (size before relaxing)
 .ARM.exidx.text.ada__strings__text_buffers__utils__put_wide_wide_character
                0x000000000000d77c        0x0 C:\gnat\2021-arm-elf\arm-eabi\lib\gnat\ravenscar-full-nrf52833\adalib\libgnat.a(a-stbuut.o)
                                          0x8 (size before relaxing)
 .ARM.exidx.text.ada__strings__text_buffers__utils__put_utf_8_lines
                0x000000000000d77c        0x8 C:\gnat\2021-arm-elf\arm-eabi\lib\gnat\ravenscar-full-nrf52833\adalib\libgnat.a(a-stbuut.o)
 .ARM.exidx.text.ada__strings__text_buffers__utils__column
                0x000000000000d784        0x0 C:\gnat\2021-arm-elf\arm-eabi\lib\gnat\ravenscar-full-nrf52833\adalib\libgnat.a(a-stbuut.o)
                                          0x8 (size before relaxing)
 .ARM.exidx.text.ada__strings__text_buffers__utils__tab_to_column
                0x000000000000d784        0x8 C:\gnat\2021-arm-elf\arm-eabi\lib\gnat\ravenscar-full-nrf52833\adalib\libgnat.a(a-stbuut.o)
 .ARM.exidx.text.ada__strings__utf_encoding__wide_wide_strings__decode__get_continuation__2.0
                0x000000000000d78c        0x8 C:\gnat\2021-arm-elf\arm-eabi\lib\gnat\ravenscar-full-nrf52833\adalib\libgnat.a(a-suezst.o)
 .ARM.exidx.text.ada__strings__utf_encoding__wide_wide_strings__decode__2
                0x000000000000d794        0x8 C:\gnat\2021-arm-elf\arm-eabi\lib\gnat\ravenscar-full-nrf52833\adalib\libgnat.a(a-suezst.o)
 .ARM.exidx.text.ada__strings__utf_encoding__wide_wide_strings__decode__3
                0x000000000000d79c        0x8 C:\gnat\2021-arm-elf\arm-eabi\lib\gnat\ravenscar-full-nrf52833\adalib\libgnat.a(a-suezst.o)
 .ARM.exidx.text.ada__strings__utf_encoding__wide_wide_strings__decode
                0x000000000000d7a4        0x8 C:\gnat\2021-arm-elf\arm-eabi\lib\gnat\ravenscar-full-nrf52833\adalib\libgnat.a(a-suezst.o)
 .ARM.exidx.text.ada__strings__utf_encoding__wide_wide_strings__encode__2
                0x000000000000d7ac        0x8 C:\gnat\2021-arm-elf\arm-eabi\lib\gnat\ravenscar-full-nrf52833\adalib\libgnat.a(a-suezst.o)
 .ARM.exidx.text.ada__strings__utf_encoding__wide_wide_strings__encode__3
                0x000000000000d7b4        0x0 C:\gnat\2021-arm-elf\arm-eabi\lib\gnat\ravenscar-full-nrf52833\adalib\libgnat.a(a-suezst.o)
                                          0x8 (size before relaxing)
 .ARM.exidx.text.ada__strings__utf_encoding__wide_wide_strings__encode
                0x000000000000d7b4       0x10 C:\gnat\2021-arm-elf\arm-eabi\lib\gnat\ravenscar-full-nrf52833\adalib\libgnat.a(a-suezst.o)
                                          0x8 (size before relaxing)
 .ARM.exidx.text.gnat__debug_utilities__image__2
                0x000000000000d7c4        0x0 C:\gnat\2021-arm-elf\arm-eabi\lib\gnat\ravenscar-full-nrf52833\adalib\libgnat.a(g-debuti.o)
                                          0x8 (size before relaxing)
 .ARM.exidx.text.gnat__debug_utilities__image
                0x000000000000d7c4        0x8 C:\gnat\2021-arm-elf\arm-eabi\lib\gnat\ravenscar-full-nrf52833\adalib\libgnat.a(g-debuti.o)
 .ARM.exidx.text.gnat__debug_utilities__image_c
                0x000000000000d7cc        0x8 C:\gnat\2021-arm-elf\arm-eabi\lib\gnat\ravenscar-full-nrf52833\adalib\libgnat.a(g-debuti.o)
 .ARM.exidx.text.gnat__debug_utilities__value
                0x000000000000d7d4        0x8 C:\gnat\2021-arm-elf\arm-eabi\lib\gnat\ravenscar-full-nrf52833\adalib\libgnat.a(g-debuti.o)
 .ARM.exidx.text.system__case_util__to_lower
                0x000000000000d7dc        0x8 C:\gnat\2021-arm-elf\arm-eabi\lib\gnat\ravenscar-full-nrf52833\adalib\libgnat.a(s-casuti.o)
 .ARM.exidx.text.system__case_util__to_lower__2
                0x000000000000d7e4        0x0 C:\gnat\2021-arm-elf\arm-eabi\lib\gnat\ravenscar-full-nrf52833\adalib\libgnat.a(s-casuti.o)
                                          0x8 (size before relaxing)
 .ARM.exidx.text.system__case_util__to_lower__3
                0x000000000000d7e4        0x8 C:\gnat\2021-arm-elf\arm-eabi\lib\gnat\ravenscar-full-nrf52833\adalib\libgnat.a(s-casuti.o)
 .ARM.exidx.text.system__case_util__to_mixed
                0x000000000000d7ec        0x8 C:\gnat\2021-arm-elf\arm-eabi\lib\gnat\ravenscar-full-nrf52833\adalib\libgnat.a(s-casuti.o)
 .ARM.exidx.text.system__case_util__to_mixed__2
                0x000000000000d7f4        0x8 C:\gnat\2021-arm-elf\arm-eabi\lib\gnat\ravenscar-full-nrf52833\adalib\libgnat.a(s-casuti.o)
 .ARM.exidx.text.system__case_util__to_upper
                0x000000000000d7fc        0x8 C:\gnat\2021-arm-elf\arm-eabi\lib\gnat\ravenscar-full-nrf52833\adalib\libgnat.a(s-casuti.o)
 .ARM.exidx.text.system__case_util__to_upper__2
                0x000000000000d804        0x0 C:\gnat\2021-arm-elf\arm-eabi\lib\gnat\ravenscar-full-nrf52833\adalib\libgnat.a(s-casuti.o)
                                          0x8 (size before relaxing)
 .ARM.exidx.text.system__case_util__to_upper__3
                0x000000000000d804        0x8 C:\gnat\2021-arm-elf\arm-eabi\lib\gnat\ravenscar-full-nrf52833\adalib\libgnat.a(s-casuti.o)
 .ARM.exidx.text.system__wch_jis__euc_to_jis
                0x000000000000d80c        0x8 C:\gnat\2021-arm-elf\arm-eabi\lib\gnat\ravenscar-full-nrf52833\adalib\libgnat.a(s-wchjis.o)
 .ARM.exidx.text.system__wch_jis__jis_to_euc
                0x000000000000d814        0x8 C:\gnat\2021-arm-elf\arm-eabi\lib\gnat\ravenscar-full-nrf52833\adalib\libgnat.a(s-wchjis.o)
 .ARM.exidx.text.system__wch_jis__jis_to_shift_jis
                0x000000000000d81c        0x8 C:\gnat\2021-arm-elf\arm-eabi\lib\gnat\ravenscar-full-nrf52833\adalib\libgnat.a(s-wchjis.o)
 .ARM.exidx.text.system__wch_jis__shift_jis_to_jis
                0x000000000000d824        0x8 C:\gnat\2021-arm-elf\arm-eabi\lib\gnat\ravenscar-full-nrf52833\adalib\libgnat.a(s-wchjis.o)
 .ARM.exidx.text._ada_setup_board
                0x000000000000d82c        0x8 C:\gnat\2021-arm-elf\arm-eabi\lib\gnat\ravenscar-full-nrf52833\adalib\libgnat.a(setup_board.o)
 .ARM.exidx.text.ada__strings__utf_encoding__encoding
                0x000000000000d834        0x0 C:\gnat\2021-arm-elf\arm-eabi\lib\gnat\ravenscar-full-nrf52833\adalib\libgnat.a(a-stuten.o)
                                          0x8 (size before relaxing)
 .ARM.exidx.text.ada__strings__utf_encoding__from_utf_16
                0x000000000000d834        0x8 C:\gnat\2021-arm-elf\arm-eabi\lib\gnat\ravenscar-full-nrf52833\adalib\libgnat.a(a-stuten.o)
 .ARM.exidx.text.ada__strings__utf_encoding__raise_encoding_error
                0x000000000000d83c        0x8 C:\gnat\2021-arm-elf\arm-eabi\lib\gnat\ravenscar-full-nrf52833\adalib\libgnat.a(a-stuten.o)
 .ARM.exidx.text.ada__strings__utf_encoding__to_utf_16
                0x000000000000d844       0x10 C:\gnat\2021-arm-elf\arm-eabi\lib\gnat\ravenscar-full-nrf52833\adalib\libgnat.a(a-stuten.o)
                                          0x8 (size before relaxing)
 .ARM.exidx     0x000000000000d854        0x0 c:/gnat/2021-arm-elf/bin/../lib/gcc/arm-eabi/10.3.1/thumb/v7e-m/fpv4-sp/hard\libgcc.a(_udivmoddi4.o)
                                          0x8 (size before relaxing)
 .ARM.exidx     0x000000000000d854       0x78 c:/gnat/2021-arm-elf/bin/../lib/gcc/arm-eabi/10.3.1/thumb/v7e-m/fpv4-sp/hard\libgcc.a(unwind-arm.o)
                                         0xd8 (size before relaxing)
 .ARM.exidx     0x000000000000d8cc       0x30 c:/gnat/2021-arm-elf/bin/../lib/gcc/arm-eabi/10.3.1/thumb/v7e-m/fpv4-sp/hard\libgcc.a(pr-support.o)
                                         0x38 (size before relaxing)
 .ARM.exidx.text.unlikely
                0x000000000000d8fc        0x8 c:/gnat/2021-arm-elf/bin/../lib/gcc/arm-eabi/10.3.1/thumb/v7e-m/fpv4-sp/hard\libgcc.a(pr-support.o)
                                         0x10 (size before relaxing)
                0x000000000000cd24                PROVIDE (__exidx_start = LOADADDR (.ARM.exidx))
                0x000000000000d904                PROVIDE (__exidx_end = (__exidx_start + SIZEOF (.ARM.exidx)))

.rodata         0x000000000000d908     0x1714
 *(.lit)
 *(.rodata .rodata.* .gnu.linkonce.r*)
 .rodata        0x000000000000d908       0x10 test.o
 .rodata        0x000000000000d918       0x51 b__test.o
                0x000000000000d928                __gnat_version
                0x000000000000d954                __gnat_version_address
                0x000000000000d958                __gnat_ada_main_program_name
 *fill*         0x000000000000d969        0x7 
 .rodata        0x000000000000d970       0x2d C:\Users\Stigen\Documents\GitHub\ADA-project\CarProject\obj\tasking.o
                0x000000000000d998                tasking___master
                0x000000000000d99c                tasking__tT1
 *fill*         0x000000000000d99d        0x3 
 .rodata        0x000000000000d9a0        0xd C:\gnat\2021-arm-elf\arm-eabi\lib\gnat\ravenscar-full-nrf52833\adalib\libgnarl.a(a-reatim.o)
 *fill*         0x000000000000d9ad        0x3 
 .rodata.ada__real_time__duration_units
                0x000000000000d9b0        0x4 C:\gnat\2021-arm-elf\arm-eabi\lib\gnat\ravenscar-full-nrf52833\adalib\libgnarl.a(a-reatim.o)
                0x000000000000d9b0                ada__real_time__duration_units
 *fill*         0x000000000000d9b4        0x4 
 .rodata.ada__real_time__tick
                0x000000000000d9b8        0x8 C:\gnat\2021-arm-elf\arm-eabi\lib\gnat\ravenscar-full-nrf52833\adalib\libgnarl.a(a-reatim.o)
                0x000000000000d9b8                ada__real_time__tick
 .rodata.ada__real_time__time_first
                0x000000000000d9c0        0x8 C:\gnat\2021-arm-elf\arm-eabi\lib\gnat\ravenscar-full-nrf52833\adalib\libgnarl.a(a-reatim.o)
                0x000000000000d9c0                ada__real_time__time_first
 .rodata.ada__real_time__time_last
                0x000000000000d9c8        0x8 C:\gnat\2021-arm-elf\arm-eabi\lib\gnat\ravenscar-full-nrf52833\adalib\libgnarl.a(a-reatim.o)
                0x000000000000d9c8                ada__real_time__time_last
 .rodata.ada__real_time__time_span_first
                0x000000000000d9d0        0x8 C:\gnat\2021-arm-elf\arm-eabi\lib\gnat\ravenscar-full-nrf52833\adalib\libgnarl.a(a-reatim.o)
                0x000000000000d9d0                ada__real_time__time_span_first
 .rodata.ada__real_time__time_span_last
                0x000000000000d9d8        0x8 C:\gnat\2021-arm-elf\arm-eabi\lib\gnat\ravenscar-full-nrf52833\adalib\libgnarl.a(a-reatim.o)
                0x000000000000d9d8                ada__real_time__time_span_last
 .rodata.ada__real_time__time_span_unit
                0x000000000000d9e0        0x8 C:\gnat\2021-arm-elf\arm-eabi\lib\gnat\ravenscar-full-nrf52833\adalib\libgnarl.a(a-reatim.o)
                0x000000000000d9e0                ada__real_time__time_span_unit
 .rodata.ada__real_time__time_span_zero
                0x000000000000d9e8        0x8 C:\gnat\2021-arm-elf\arm-eabi\lib\gnat\ravenscar-full-nrf52833\adalib\libgnarl.a(a-reatim.o)
                0x000000000000d9e8                ada__real_time__time_span_zero
 .rodata        0x000000000000d9f0        0xd C:\gnat\2021-arm-elf\arm-eabi\lib\gnat\ravenscar-full-nrf52833\adalib\libgnarl.a(a-retide.o)
 *fill*         0x000000000000d9fd        0x3 
 .rodata        0x000000000000da00        0xd C:\gnat\2021-arm-elf\arm-eabi\lib\gnat\ravenscar-full-nrf52833\adalib\libgnarl.a(s-bbbosu.o)
 *fill*         0x000000000000da0d        0x3 
 .rodata.system__bb__board_support__alarm_interrupt_id
                0x000000000000da10        0x4 C:\gnat\2021-arm-elf\arm-eabi\lib\gnat\ravenscar-full-nrf52833\adalib\libgnarl.a(s-bbbosu.o)
                0x000000000000da10                system__bb__board_support__alarm_interrupt_id
 .rodata.system__bb__board_support__interrupt_request_vector
                0x000000000000da14        0x1 C:\gnat\2021-arm-elf\arm-eabi\lib\gnat\ravenscar-full-nrf52833\adalib\libgnarl.a(s-bbbosu.o)
                0x000000000000da14                system__bb__board_support__interrupt_request_vector
 *fill*         0x000000000000da15        0x3 
 .rodata.system__bb__board_support__nvic_iser0
                0x000000000000da18        0x4 C:\gnat\2021-arm-elf\arm-eabi\lib\gnat\ravenscar-full-nrf52833\adalib\libgnarl.a(s-bbbosu.o)
                0x000000000000da18                system__bb__board_support__nvic_iser0
 .rodata.system__bb__cpu_primitives__gnat_error_handler.str1.4
                0x000000000000da1c      0x16c C:\gnat\2021-arm-elf\arm-eabi\lib\gnat\ravenscar-full-nrf52833\adalib\libgnarl.a(s-bbcppr.o)
 .rodata        0x000000000000db88       0x30 C:\gnat\2021-arm-elf\arm-eabi\lib\gnat\ravenscar-full-nrf52833\adalib\libgnarl.a(s-bbcppr.o)
 .rodata.system__bb__cpu_primitives__bus_fault_vector
                0x000000000000dbb8        0x1 C:\gnat\2021-arm-elf\arm-eabi\lib\gnat\ravenscar-full-nrf52833\adalib\libgnarl.a(s-bbcppr.o)
                0x000000000000dbb8                system__bb__cpu_primitives__bus_fault_vector
 .rodata.system__bb__cpu_primitives__hard_fault_vector
                0x000000000000dbb9        0x1 C:\gnat\2021-arm-elf\arm-eabi\lib\gnat\ravenscar-full-nrf52833\adalib\libgnarl.a(s-bbcppr.o)
                0x000000000000dbb9                system__bb__cpu_primitives__hard_fault_vector
 .rodata.system__bb__cpu_primitives__has_os_extensions
                0x000000000000dbba        0x1 C:\gnat\2021-arm-elf\arm-eabi\lib\gnat\ravenscar-full-nrf52833\adalib\libgnarl.a(s-bbcppr.o)
                0x000000000000dbba                system__bb__cpu_primitives__has_os_extensions
 .rodata.system__bb__cpu_primitives__has_vtor
                0x000000000000dbbb        0x1 C:\gnat\2021-arm-elf\arm-eabi\lib\gnat\ravenscar-full-nrf52833\adalib\libgnarl.a(s-bbcppr.o)
                0x000000000000dbbb                system__bb__cpu_primitives__has_vtor
 .rodata.system__bb__cpu_primitives__interrupt_request_vector
                0x000000000000dbbc        0x1 C:\gnat\2021-arm-elf\arm-eabi\lib\gnat\ravenscar-full-nrf52833\adalib\libgnarl.a(s-bbcppr.o)
                0x000000000000dbbc                system__bb__cpu_primitives__interrupt_request_vector
 .rodata.system__bb__cpu_primitives__is_armv6m
                0x000000000000dbbd        0x1 C:\gnat\2021-arm-elf\arm-eabi\lib\gnat\ravenscar-full-nrf52833\adalib\libgnarl.a(s-bbcppr.o)
                0x000000000000dbbd                system__bb__cpu_primitives__is_armv6m
 *fill*         0x000000000000dbbe        0x2 
 .rodata.system__bb__cpu_primitives__nl
                0x000000000000dbc0        0x2 C:\gnat\2021-arm-elf\arm-eabi\lib\gnat\ravenscar-full-nrf52833\adalib\libgnarl.a(s-bbcppr.o)
                0x000000000000dbc0                system__bb__cpu_primitives__nl
 .rodata.system__bb__cpu_primitives__nmi_vector
                0x000000000000dbc2        0x1 C:\gnat\2021-arm-elf\arm-eabi\lib\gnat\ravenscar-full-nrf52833\adalib\libgnarl.a(s-bbcppr.o)
                0x000000000000dbc2                system__bb__cpu_primitives__nmi_vector
 .rodata.system__bb__cpu_primitives__pend_sv_vector
                0x000000000000dbc3        0x1 C:\gnat\2021-arm-elf\arm-eabi\lib\gnat\ravenscar-full-nrf52833\adalib\libgnarl.a(s-bbcppr.o)
                0x000000000000dbc3                system__bb__cpu_primitives__pend_sv_vector
 .rodata.system__bb__cpu_primitives__reset_vector
                0x000000000000dbc4        0x1 C:\gnat\2021-arm-elf\arm-eabi\lib\gnat\ravenscar-full-nrf52833\adalib\libgnarl.a(s-bbcppr.o)
                0x000000000000dbc4                system__bb__cpu_primitives__reset_vector
 .rodata.system__bb__cpu_primitives__sp_process
                0x000000000000dbc5        0x1 C:\gnat\2021-arm-elf\arm-eabi\lib\gnat\ravenscar-full-nrf52833\adalib\libgnarl.a(s-bbcppr.o)
                0x000000000000dbc5                system__bb__cpu_primitives__sp_process
 .rodata.system__bb__cpu_primitives__sv_call_vector
                0x000000000000dbc6        0x1 C:\gnat\2021-arm-elf\arm-eabi\lib\gnat\ravenscar-full-nrf52833\adalib\libgnarl.a(s-bbcppr.o)
                0x000000000000dbc6                system__bb__cpu_primitives__sv_call_vector
 .rodata.system__bb__cpu_primitives__sys_tick_vector
                0x000000000000dbc7        0x1 C:\gnat\2021-arm-elf\arm-eabi\lib\gnat\ravenscar-full-nrf52833\adalib\libgnarl.a(s-bbcppr.o)
                0x000000000000dbc7                system__bb__cpu_primitives__sys_tick_vector
 .rodata.system__bb__cpu_primitives__usage_fault_vector
                0x000000000000dbc8        0x1 C:\gnat\2021-arm-elf\arm-eabi\lib\gnat\ravenscar-full-nrf52833\adalib\libgnarl.a(s-bbcppr.o)
                0x000000000000dbc8                system__bb__cpu_primitives__usage_fault_vector
 *fill*         0x000000000000dbc9        0x3 
 .rodata.system__bb__interrupts__interrupt_wrapper.str1.4
                0x000000000000dbcc       0x19 C:\gnat\2021-arm-elf\arm-eabi\lib\gnat\ravenscar-full-nrf52833\adalib\libgnarl.a(s-bbinte.o)
 *fill*         0x000000000000dbe5        0x3 
 .rodata        0x000000000000dbe8       0x18 C:\gnat\2021-arm-elf\arm-eabi\lib\gnat\ravenscar-full-nrf52833\adalib\libgnarl.a(s-bbinte.o)
 .rodata.system__bb__interrupts__no_interrupt
                0x000000000000dc00        0x4 C:\gnat\2021-arm-elf\arm-eabi\lib\gnat\ravenscar-full-nrf52833\adalib\libgnarl.a(s-bbinte.o)
                0x000000000000dc00                system__bb__interrupts__no_interrupt
 .rodata.system__bb__timing_events__timing_eventPI.str1.4
                0x000000000000dc04       0x25 C:\gnat\2021-arm-elf\arm-eabi\lib\gnat\ravenscar-full-nrf52833\adalib\libgnarl.a(s-bbtiev.o)
 *fill*         0x000000000000dc29        0x3 
 .rodata        0x000000000000dc2c        0x8 C:\gnat\2021-arm-elf\arm-eabi\lib\gnat\ravenscar-full-nrf52833\adalib\libgnarl.a(s-bbtiev.o)
 .rodata.system__bb__timing_events__timing_eventB15s
                0x000000000000dc34       0x2c C:\gnat\2021-arm-elf\arm-eabi\lib\gnat\ravenscar-full-nrf52833\adalib\libgnarl.a(s-bbtiev.o)
                0x000000000000dc34                system__bb__timing_events__timing_eventB15s
 .rodata.system__bb__timing_events__timing_eventE11s
                0x000000000000dc60       0x25 C:\gnat\2021-arm-elf\arm-eabi\lib\gnat\ravenscar-full-nrf52833\adalib\libgnarl.a(s-bbtiev.o)
                0x000000000000dc60                system__bb__timing_events__timing_eventE11s
 *fill*         0x000000000000dc85        0x3 
 .rodata.system__bb__timing_events__timing_eventP
                0x000000000000dc88        0x4 C:\gnat\2021-arm-elf\arm-eabi\lib\gnat\ravenscar-full-nrf52833\adalib\libgnarl.a(s-bbtiev.o)
                0x000000000000dc88                system__bb__timing_events__timing_eventP
 .rodata.system__bb__timing_events__timing_eventR13s
                0x000000000000dc8c        0x4 C:\gnat\2021-arm-elf\arm-eabi\lib\gnat\ravenscar-full-nrf52833\adalib\libgnarl.a(s-bbtiev.o)
                0x000000000000dc8c                system__bb__timing_events__timing_eventR13s
 .rodata.system__bb__timing_events__timing_eventR13s___UNC
                0x000000000000dc90       0x30 C:\gnat\2021-arm-elf\arm-eabi\lib\gnat\ravenscar-full-nrf52833\adalib\libgnarl.a(s-bbtiev.o)
                0x000000000000dc90                system__bb__timing_events__timing_eventR13s___UNC
 .rodata.system__bb__timing_events__timing_eventT
                0x000000000000dcc0       0x20 C:\gnat\2021-arm-elf\arm-eabi\lib\gnat\ravenscar-full-nrf52833\adalib\libgnarl.a(s-bbtiev.o)
                0x000000000000dcc0                system__bb__timing_events__timing_eventT
 .rodata.system__bb__timing_events__timing_eventY
                0x000000000000dce0        0x4 C:\gnat\2021-arm-elf\arm-eabi\lib\gnat\ravenscar-full-nrf52833\adalib\libgnarl.a(s-bbtiev.o)
                0x000000000000dce0                system__bb__timing_events__timing_eventY
 .rodata.system__bb__time__initial_composite_execution_time
                0x000000000000dce4        0x8 C:\gnat\2021-arm-elf\arm-eabi\lib\gnat\ravenscar-full-nrf52833\adalib\libgnarl.a(s-bbtime.o)
                0x000000000000dce4                system__bb__time__initial_composite_execution_time
 .rodata.system__bb__time__periods_in_epoch
                0x000000000000dcec        0x4 C:\gnat\2021-arm-elf\arm-eabi\lib\gnat\ravenscar-full-nrf52833\adalib\libgnarl.a(s-bbtime.o)
                0x000000000000dcec                system__bb__time__periods_in_epoch
 .rodata.system__bb__time__update_in_progress
                0x000000000000dcf0        0x4 C:\gnat\2021-arm-elf\arm-eabi\lib\gnat\ravenscar-full-nrf52833\adalib\libgnarl.a(s-bbtime.o)
                0x000000000000dcf0                system__bb__time__update_in_progress
 .rodata.system__tasking__restricted__stages__create_restricted_task__2.str1.4
                0x000000000000dcf4       0x4a C:\gnat\2021-arm-elf\arm-eabi\lib\gnat\ravenscar-full-nrf52833\adalib\libgnarl.a(s-tarest.o)
 *fill*         0x000000000000dd3e        0x2 
 .rodata        0x000000000000dd40       0x20 C:\gnat\2021-arm-elf\arm-eabi\lib\gnat\ravenscar-full-nrf52833\adalib\libgnarl.a(s-tarest.o)
 .rodata.system__tasking__initialize.str1.4
                0x000000000000dd60       0x3a C:\gnat\2021-arm-elf\arm-eabi\lib\gnat\ravenscar-full-nrf52833\adalib\libgnarl.a(s-taskin.o)
 *fill*         0x000000000000dd9a        0x2 
 .rodata        0x000000000000dd9c        0x8 C:\gnat\2021-arm-elf\arm-eabi\lib\gnat\ravenscar-full-nrf52833\adalib\libgnarl.a(s-taskin.o)
 .rodata.call_modesG.0
                0x000000000000dda4        0xb C:\gnat\2021-arm-elf\arm-eabi\lib\gnat\ravenscar-full-nrf52833\adalib\libgnarl.a(s-taskin.o)
 *fill*         0x000000000000ddaf        0x1 
 .rodata.system__tasking__call_modesN
                0x000000000000ddb0        0x8 C:\gnat\2021-arm-elf\arm-eabi\lib\gnat\ravenscar-full-nrf52833\adalib\libgnarl.a(s-taskin.o)
                0x000000000000ddb0                system__tasking__call_modesN
 .rodata.system__tasking__call_modesS
                0x000000000000ddb8       0x36 C:\gnat\2021-arm-elf\arm-eabi\lib\gnat\ravenscar-full-nrf52833\adalib\libgnarl.a(s-taskin.o)
                0x000000000000ddb8                system__tasking__call_modesS
 *fill*         0x000000000000ddee        0x2 
 .rodata.system__tasking__idle_priority
                0x000000000000ddf0        0x4 C:\gnat\2021-arm-elf\arm-eabi\lib\gnat\ravenscar-full-nrf52833\adalib\libgnarl.a(s-taskin.o)
                0x000000000000ddf0                system__tasking__idle_priority
 .rodata.system__tasking__null_task
                0x000000000000ddf4        0x4 C:\gnat\2021-arm-elf\arm-eabi\lib\gnat\ravenscar-full-nrf52833\adalib\libgnarl.a(s-taskin.o)
                0x000000000000ddf4                system__tasking__null_task
 .rodata.system__tasking__task_statesN
                0x000000000000ddf8       0x22 C:\gnat\2021-arm-elf\arm-eabi\lib\gnat\ravenscar-full-nrf52833\adalib\libgnarl.a(s-taskin.o)
                0x000000000000ddf8                system__tasking__task_statesN
 *fill*         0x000000000000de1a        0x2 
 .rodata.system__tasking__task_statesS
                0x000000000000de1c      0x130 C:\gnat\2021-arm-elf\arm-eabi\lib\gnat\ravenscar-full-nrf52833\adalib\libgnarl.a(s-taskin.o)
                0x000000000000de1c                system__tasking__task_statesS
 .rodata.task_statesG.4
                0x000000000000df4c       0x21 C:\gnat\2021-arm-elf\arm-eabi\lib\gnat\ravenscar-full-nrf52833\adalib\libgnarl.a(s-taskin.o)
 *fill*         0x000000000000df6d        0x3 
 .rodata.task_statesP.7
                0x000000000000df70        0xc C:\gnat\2021-arm-elf\arm-eabi\lib\gnat\ravenscar-full-nrf52833\adalib\libgnarl.a(s-taskin.o)
 .rodata.task_statesT1.6
                0x000000000000df7c        0x4 C:\gnat\2021-arm-elf\arm-eabi\lib\gnat\ravenscar-full-nrf52833\adalib\libgnarl.a(s-taskin.o)
 .rodata.task_statesT2.5
                0x000000000000df80        0x4 C:\gnat\2021-arm-elf\arm-eabi\lib\gnat\ravenscar-full-nrf52833\adalib\libgnarl.a(s-taskin.o)
 .rodata.system__bb__threads__null_thread_id
                0x000000000000df84        0x4 C:\gnat\2021-arm-elf\arm-eabi\lib\gnat\ravenscar-full-nrf52833\adalib\libgnarl.a(s-bbthre.o)
                0x000000000000df84                system__bb__threads__null_thread_id
 .rodata.system__bb__threads__thread_statesN
                0x000000000000df88        0x4 C:\gnat\2021-arm-elf\arm-eabi\lib\gnat\ravenscar-full-nrf52833\adalib\libgnarl.a(s-bbthre.o)
                0x000000000000df88                system__bb__threads__thread_statesN
 .rodata.system__bb__threads__thread_statesS
                0x000000000000df8c       0x18 C:\gnat\2021-arm-elf\arm-eabi\lib\gnat\ravenscar-full-nrf52833\adalib\libgnarl.a(s-bbthre.o)
                0x000000000000df8c                system__bb__threads__thread_statesS
 .rodata.system__task_primitives__operations__idle_stack_size
                0x000000000000dfa4        0x4 C:\gnat\2021-arm-elf\arm-eabi\lib\gnat\ravenscar-full-nrf52833\adalib\libgnarl.a(s-taprop.o)
                0x000000000000dfa4                system__task_primitives__operations__idle_stack_size
 .rodata        0x000000000000dfa8       0xb0 C:\gnat\2021-arm-elf\arm-eabi\lib\gnat\ravenscar-full-nrf52833\adalib\libgnat.a(a-except.o)
 .rodata.__gnat_setup_current_excep.str1.4
                0x000000000000e058        0x8 C:\gnat\2021-arm-elf\arm-eabi\lib\gnat\ravenscar-full-nrf52833\adalib\libgnat.a(a-except.o)
 .rodata.ada__exceptions__exception_traces__notify_exceptionXn.str1.4
                0x000000000000e060       0x1d C:\gnat\2021-arm-elf\arm-eabi\lib\gnat\ravenscar-full-nrf52833\adalib\libgnat.a(a-except.o)
 *fill*         0x000000000000e07d        0x3 
 .rodata.ada__exceptions__stream_attributes__string_to_eo__bad_eo.3.str1.4
                0x000000000000e080       0x29 C:\gnat\2021-arm-elf\arm-eabi\lib\gnat\ravenscar-full-nrf52833\adalib\libgnat.a(a-except.o)
 *fill*         0x000000000000e0a9        0x3 
 .rodata.ada__exceptions__stream_attributes__string_to_eoXn.str1.4
                0x000000000000e0ac       0x2c C:\gnat\2021-arm-elf\arm-eabi\lib\gnat\ravenscar-full-nrf52833\adalib\libgnat.a(a-except.o)
                                         0x34 (size before relaxing)
 .rodata.__gnat_raise_from_controlled_operation.str1.4
                0x000000000000e0d8       0x1b C:\gnat\2021-arm-elf\arm-eabi\lib\gnat\ravenscar-full-nrf52833\adalib\libgnat.a(a-except.o)
 *fill*         0x000000000000e0f3        0x1 
 .rodata.__gnat_rcheck_CE_Index_Check_ext.str1.4
                0x000000000000e0f4       0x2b C:\gnat\2021-arm-elf\arm-eabi\lib\gnat\ravenscar-full-nrf52833\adalib\libgnat.a(a-except.o)
 *fill*         0x000000000000e11f        0x1 
 .rodata.__gnat_rcheck_CE_Invalid_Data_ext.str1.4
                0x000000000000e120       0x17 C:\gnat\2021-arm-elf\arm-eabi\lib\gnat\ravenscar-full-nrf52833\adalib\libgnat.a(a-except.o)
 *fill*         0x000000000000e137        0x1 
 .rodata.__gnat_rcheck_CE_Range_Check_ext.str1.4
                0x000000000000e138       0x13 C:\gnat\2021-arm-elf\arm-eabi\lib\gnat\ravenscar-full-nrf52833\adalib\libgnat.a(a-except.o)
 *fill*         0x000000000000e14b        0x1 
 .rodata.__gnat_reraise_library_exception_if_any.str1.4
                0x000000000000e14c       0x21 C:\gnat\2021-arm-elf\arm-eabi\lib\gnat\ravenscar-full-nrf52833\adalib\libgnat.a(a-except.o)
 *fill*         0x000000000000e16d        0x3 
 .rodata.ada__exceptions__null_loc
                0x000000000000e170        0x4 C:\gnat\2021-arm-elf\arm-eabi\lib\gnat\ravenscar-full-nrf52833\adalib\libgnat.a(a-except.o)
                0x000000000000e170                ada__exceptions__null_loc
 .rodata.ada__exceptions__exception_propagation__ua_search_phaseXn
                0x000000000000e174        0x4 C:\gnat\2021-arm-elf\arm-eabi\lib\gnat\ravenscar-full-nrf52833\adalib\libgnat.a(a-except.o)
                0x000000000000e174                ada__exceptions__exception_propagation__ua_search_phaseXn
 .rodata.ada__exceptions__exception_propagation__ua_cleanup_phaseXn
                0x000000000000e178        0x4 C:\gnat\2021-arm-elf\arm-eabi\lib\gnat\ravenscar-full-nrf52833\adalib\libgnat.a(a-except.o)
                0x000000000000e178                ada__exceptions__exception_propagation__ua_cleanup_phaseXn
 .rodata.ada__exceptions__exception_propagation__ua_handler_frameXn
                0x000000000000e17c        0x4 C:\gnat\2021-arm-elf\arm-eabi\lib\gnat\ravenscar-full-nrf52833\adalib\libgnat.a(a-except.o)
                0x000000000000e17c                ada__exceptions__exception_propagation__ua_handler_frameXn
 .rodata.ada__exceptions__exception_propagation__ua_force_unwindXn
                0x000000000000e180        0x4 C:\gnat\2021-arm-elf\arm-eabi\lib\gnat\ravenscar-full-nrf52833\adalib\libgnat.a(a-except.o)
                0x000000000000e180                ada__exceptions__exception_propagation__ua_force_unwindXn
 .rodata.ada__exceptions__exception_propagation__ua_end_of_stackXn
                0x000000000000e184        0x4 C:\gnat\2021-arm-elf\arm-eabi\lib\gnat\ravenscar-full-nrf52833\adalib\libgnat.a(a-except.o)
                0x000000000000e184                ada__exceptions__exception_propagation__ua_end_of_stackXn
 .rodata.__gnat_others_value
                0x000000000000e188        0x1 C:\gnat\2021-arm-elf\arm-eabi\lib\gnat\ravenscar-full-nrf52833\adalib\libgnat.a(a-except.o)
                0x000000000000e188                __gnat_others_value
 .rodata.__gnat_all_others_value
                0x000000000000e189        0x1 C:\gnat\2021-arm-elf\arm-eabi\lib\gnat\ravenscar-full-nrf52833\adalib\libgnat.a(a-except.o)
                0x000000000000e189                __gnat_all_others_value
 .rodata.__gnat_unhandled_others_value
                0x000000000000e18a        0x1 C:\gnat\2021-arm-elf\arm-eabi\lib\gnat\ravenscar-full-nrf52833\adalib\libgnat.a(a-except.o)
                0x000000000000e18a                __gnat_unhandled_others_value
 *fill*         0x000000000000e18b        0x1 
 .rodata.ada__exceptions__null_id
                0x000000000000e18c        0x4 C:\gnat\2021-arm-elf\arm-eabi\lib\gnat\ravenscar-full-nrf52833\adalib\libgnat.a(a-except.o)
                0x000000000000e18c                ada__exceptions__null_id
 .rodata.ada__exceptions__rmsg_00
                0x000000000000e190       0x14 C:\gnat\2021-arm-elf\arm-eabi\lib\gnat\ravenscar-full-nrf52833\adalib\libgnat.a(a-except.o)
                0x000000000000e190                ada__exceptions__rmsg_00
 .rodata.ada__exceptions__rmsg_01
                0x000000000000e1a4       0x19 C:\gnat\2021-arm-elf\arm-eabi\lib\gnat\ravenscar-full-nrf52833\adalib\libgnat.a(a-except.o)
                0x000000000000e1a4                ada__exceptions__rmsg_01
 *fill*         0x000000000000e1bd        0x3 
 .rodata.ada__exceptions__rmsg_02
                0x000000000000e1c0       0x1a C:\gnat\2021-arm-elf\arm-eabi\lib\gnat\ravenscar-full-nrf52833\adalib\libgnat.a(a-except.o)
                0x000000000000e1c0                ada__exceptions__rmsg_02
 *fill*         0x000000000000e1da        0x2 
 .rodata.ada__exceptions__rmsg_03
                0x000000000000e1dc        0xf C:\gnat\2021-arm-elf\arm-eabi\lib\gnat\ravenscar-full-nrf52833\adalib\libgnat.a(a-except.o)
                0x000000000000e1dc                ada__exceptions__rmsg_03
 *fill*         0x000000000000e1eb        0x1 
 .rodata.ada__exceptions__rmsg_04
                0x000000000000e1ec        0xf C:\gnat\2021-arm-elf\arm-eabi\lib\gnat\ravenscar-full-nrf52833\adalib\libgnat.a(a-except.o)
                0x000000000000e1ec                ada__exceptions__rmsg_04
 *fill*         0x000000000000e1fb        0x1 
 .rodata.ada__exceptions__rmsg_05
                0x000000000000e1fc       0x13 C:\gnat\2021-arm-elf\arm-eabi\lib\gnat\ravenscar-full-nrf52833\adalib\libgnat.a(a-except.o)
                0x000000000000e1fc                ada__exceptions__rmsg_05
 *fill*         0x000000000000e20f        0x1 
 .rodata.ada__exceptions__rmsg_06
                0x000000000000e210        0xd C:\gnat\2021-arm-elf\arm-eabi\lib\gnat\ravenscar-full-nrf52833\adalib\libgnat.a(a-except.o)
                0x000000000000e210                ada__exceptions__rmsg_06
 *fill*         0x000000000000e21d        0x3 
 .rodata.ada__exceptions__rmsg_07
                0x000000000000e220       0x14 C:\gnat\2021-arm-elf\arm-eabi\lib\gnat\ravenscar-full-nrf52833\adalib\libgnat.a(a-except.o)
                0x000000000000e220                ada__exceptions__rmsg_07
 .rodata.ada__exceptions__rmsg_08
                0x000000000000e234       0x12 C:\gnat\2021-arm-elf\arm-eabi\lib\gnat\ravenscar-full-nrf52833\adalib\libgnat.a(a-except.o)
                0x000000000000e234                ada__exceptions__rmsg_08
 *fill*         0x000000000000e246        0x2 
 .rodata.ada__exceptions__rmsg_09
                0x000000000000e248       0x1c C:\gnat\2021-arm-elf\arm-eabi\lib\gnat\ravenscar-full-nrf52833\adalib\libgnat.a(a-except.o)
                0x000000000000e248                ada__exceptions__rmsg_09
 .rodata.ada__exceptions__rmsg_10
                0x000000000000e264       0x16 C:\gnat\2021-arm-elf\arm-eabi\lib\gnat\ravenscar-full-nrf52833\adalib\libgnat.a(a-except.o)
                0x000000000000e264                ada__exceptions__rmsg_10
 *fill*         0x000000000000e27a        0x2 
 .rodata.ada__exceptions__rmsg_11
                0x000000000000e27c       0x17 C:\gnat\2021-arm-elf\arm-eabi\lib\gnat\ravenscar-full-nrf52833\adalib\libgnat.a(a-except.o)
                0x000000000000e27c                ada__exceptions__rmsg_11
 *fill*         0x000000000000e293        0x1 
 .rodata.ada__exceptions__rmsg_12
                0x000000000000e294       0x13 C:\gnat\2021-arm-elf\arm-eabi\lib\gnat\ravenscar-full-nrf52833\adalib\libgnat.a(a-except.o)
                0x000000000000e294                ada__exceptions__rmsg_12
 *fill*         0x000000000000e2a7        0x1 
 .rodata.ada__exceptions__rmsg_13
                0x000000000000e2a8       0x11 C:\gnat\2021-arm-elf\arm-eabi\lib\gnat\ravenscar-full-nrf52833\adalib\libgnat.a(a-except.o)
                0x000000000000e2a8                ada__exceptions__rmsg_13
 *fill*         0x000000000000e2b9        0x3 
 .rodata.ada__exceptions__rmsg_14
                0x000000000000e2bc       0x1a C:\gnat\2021-arm-elf\arm-eabi\lib\gnat\ravenscar-full-nrf52833\adalib\libgnat.a(a-except.o)
                0x000000000000e2bc                ada__exceptions__rmsg_14
 *fill*         0x000000000000e2d6        0x2 
 .rodata.ada__exceptions__rmsg_15
                0x000000000000e2d8       0x1b C:\gnat\2021-arm-elf\arm-eabi\lib\gnat\ravenscar-full-nrf52833\adalib\libgnat.a(a-except.o)
                0x000000000000e2d8                ada__exceptions__rmsg_15
 *fill*         0x000000000000e2f3        0x1 
 .rodata.ada__exceptions__rmsg_16
                0x000000000000e2f4       0x30 C:\gnat\2021-arm-elf\arm-eabi\lib\gnat\ravenscar-full-nrf52833\adalib\libgnat.a(a-except.o)
                0x000000000000e2f4                ada__exceptions__rmsg_16
 .rodata.ada__exceptions__rmsg_17
                0x000000000000e324       0x13 C:\gnat\2021-arm-elf\arm-eabi\lib\gnat\ravenscar-full-nrf52833\adalib\libgnat.a(a-except.o)
                0x000000000000e324                ada__exceptions__rmsg_17
 *fill*         0x000000000000e337        0x1 
 .rodata.ada__exceptions__rmsg_18
                0x000000000000e338       0x12 C:\gnat\2021-arm-elf\arm-eabi\lib\gnat\ravenscar-full-nrf52833\adalib\libgnat.a(a-except.o)
                0x000000000000e338                ada__exceptions__rmsg_18
 *fill*         0x000000000000e34a        0x2 
 .rodata.ada__exceptions__rmsg_19
                0x000000000000e34c       0x2f C:\gnat\2021-arm-elf\arm-eabi\lib\gnat\ravenscar-full-nrf52833\adalib\libgnat.a(a-except.o)
                0x000000000000e34c                ada__exceptions__rmsg_19
 *fill*         0x000000000000e37b        0x1 
 .rodata.ada__exceptions__rmsg_20
                0x000000000000e37c       0x26 C:\gnat\2021-arm-elf\arm-eabi\lib\gnat\ravenscar-full-nrf52833\adalib\libgnat.a(a-except.o)
                0x000000000000e37c                ada__exceptions__rmsg_20
 *fill*         0x000000000000e3a2        0x2 
 .rodata.ada__exceptions__rmsg_21
                0x000000000000e3a4       0x19 C:\gnat\2021-arm-elf\arm-eabi\lib\gnat\ravenscar-full-nrf52833\adalib\libgnat.a(a-except.o)
                0x000000000000e3a4                ada__exceptions__rmsg_21
 *fill*         0x000000000000e3bd        0x3 
 .rodata.ada__exceptions__rmsg_22
                0x000000000000e3c0        0xf C:\gnat\2021-arm-elf\arm-eabi\lib\gnat\ravenscar-full-nrf52833\adalib\libgnat.a(a-except.o)
                0x000000000000e3c0                ada__exceptions__rmsg_22
 *fill*         0x000000000000e3cf        0x1 
 .rodata.ada__exceptions__rmsg_23
                0x000000000000e3d0       0x21 C:\gnat\2021-arm-elf\arm-eabi\lib\gnat\ravenscar-full-nrf52833\adalib\libgnat.a(a-except.o)
                0x000000000000e3d0                ada__exceptions__rmsg_23
 *fill*         0x000000000000e3f1        0x3 
 .rodata.ada__exceptions__rmsg_24
                0x000000000000e3f4       0x1f C:\gnat\2021-arm-elf\arm-eabi\lib\gnat\ravenscar-full-nrf52833\adalib\libgnat.a(a-except.o)
                0x000000000000e3f4                ada__exceptions__rmsg_24
 *fill*         0x000000000000e413        0x1 
 .rodata.ada__exceptions__rmsg_25
                0x000000000000e414       0x19 C:\gnat\2021-arm-elf\arm-eabi\lib\gnat\ravenscar-full-nrf52833\adalib\libgnat.a(a-except.o)
                0x000000000000e414                ada__exceptions__rmsg_25
 *fill*         0x000000000000e42d        0x3 
 .rodata.ada__exceptions__rmsg_26
                0x000000000000e430        0xf C:\gnat\2021-arm-elf\arm-eabi\lib\gnat\ravenscar-full-nrf52833\adalib\libgnat.a(a-except.o)
                0x000000000000e430                ada__exceptions__rmsg_26
 *fill*         0x000000000000e43f        0x1 
 .rodata.ada__exceptions__rmsg_27
                0x000000000000e440       0x1b C:\gnat\2021-arm-elf\arm-eabi\lib\gnat\ravenscar-full-nrf52833\adalib\libgnat.a(a-except.o)
                0x000000000000e440                ada__exceptions__rmsg_27
 *fill*         0x000000000000e45b        0x1 
 .rodata.ada__exceptions__rmsg_28
                0x000000000000e45c       0x1f C:\gnat\2021-arm-elf\arm-eabi\lib\gnat\ravenscar-full-nrf52833\adalib\libgnat.a(a-except.o)
                0x000000000000e45c                ada__exceptions__rmsg_28
 *fill*         0x000000000000e47b        0x1 
 .rodata.ada__exceptions__rmsg_29
                0x000000000000e47c       0x1a C:\gnat\2021-arm-elf\arm-eabi\lib\gnat\ravenscar-full-nrf52833\adalib\libgnat.a(a-except.o)
                0x000000000000e47c                ada__exceptions__rmsg_29
 *fill*         0x000000000000e496        0x2 
 .rodata.ada__exceptions__rmsg_30
                0x000000000000e498       0x1c C:\gnat\2021-arm-elf\arm-eabi\lib\gnat\ravenscar-full-nrf52833\adalib\libgnat.a(a-except.o)
                0x000000000000e498                ada__exceptions__rmsg_30
 .rodata.ada__exceptions__rmsg_31
                0x000000000000e4b4       0x33 C:\gnat\2021-arm-elf\arm-eabi\lib\gnat\ravenscar-full-nrf52833\adalib\libgnat.a(a-except.o)
                0x000000000000e4b4                ada__exceptions__rmsg_31
 *fill*         0x000000000000e4e7        0x1 
 .rodata.ada__exceptions__rmsg_32
                0x000000000000e4e8       0x13 C:\gnat\2021-arm-elf\arm-eabi\lib\gnat\ravenscar-full-nrf52833\adalib\libgnat.a(a-except.o)
                0x000000000000e4e8                ada__exceptions__rmsg_32
 *fill*         0x000000000000e4fb        0x1 
 .rodata.ada__exceptions__rmsg_33
                0x000000000000e4fc        0xf C:\gnat\2021-arm-elf\arm-eabi\lib\gnat\ravenscar-full-nrf52833\adalib\libgnat.a(a-except.o)
                0x000000000000e4fc                ada__exceptions__rmsg_33
 *fill*         0x000000000000e50b        0x1 
 .rodata.ada__exceptions__rmsg_34
                0x000000000000e50c       0x13 C:\gnat\2021-arm-elf\arm-eabi\lib\gnat\ravenscar-full-nrf52833\adalib\libgnat.a(a-except.o)
                0x000000000000e50c                ada__exceptions__rmsg_34
 *fill*         0x000000000000e51f        0x1 
 .rodata.ada__exceptions__rmsg_35
                0x000000000000e520       0x11 C:\gnat\2021-arm-elf\arm-eabi\lib\gnat\ravenscar-full-nrf52833\adalib\libgnat.a(a-except.o)
                0x000000000000e520                ada__exceptions__rmsg_35
 *fill*         0x000000000000e531        0x3 
 .rodata.ada__exceptions__rmsg_36
                0x000000000000e534       0x1d C:\gnat\2021-arm-elf\arm-eabi\lib\gnat\ravenscar-full-nrf52833\adalib\libgnat.a(a-except.o)
                0x000000000000e534                ada__exceptions__rmsg_36
 *fill*         0x000000000000e551        0x3 
 .rodata.ada__exceptions__rmsg_37
                0x000000000000e554       0x18 C:\gnat\2021-arm-elf\arm-eabi\lib\gnat\ravenscar-full-nrf52833\adalib\libgnat.a(a-except.o)
                0x000000000000e554                ada__exceptions__rmsg_37
 .rodata.ada__exceptions__exception_data__bei_name_headerXn
                0x000000000000e56c        0x8 C:\gnat\2021-arm-elf\arm-eabi\lib\gnat\ravenscar-full-nrf52833\adalib\libgnat.a(a-except.o)
                0x000000000000e56c                ada__exceptions__exception_data__bei_name_headerXn
 .rodata.ada__exceptions__exception_data__bei_msg_headerXn
                0x000000000000e574        0x4 C:\gnat\2021-arm-elf\arm-eabi\lib\gnat\ravenscar-full-nrf52833\adalib\libgnat.a(a-except.o)
                0x000000000000e574                ada__exceptions__exception_data__bei_msg_headerXn
 .rodata.ada__exceptions__exception_data__bei_pid_headerXn
                0x000000000000e578        0x8 C:\gnat\2021-arm-elf\arm-eabi\lib\gnat\ravenscar-full-nrf52833\adalib\libgnat.a(a-except.o)
                0x000000000000e578                ada__exceptions__exception_data__bei_pid_headerXn
 .rodata.ada__exceptions__exception_data__betb_headerXn
                0x000000000000e580       0x1f C:\gnat\2021-arm-elf\arm-eabi\lib\gnat\ravenscar-full-nrf52833\adalib\libgnat.a(a-except.o)
                0x000000000000e580                ada__exceptions__exception_data__betb_headerXn
 *fill*         0x000000000000e59f        0x1 
 .rodata.ada__exceptions__exception_data__ldad_headerXn
                0x000000000000e5a0        0xe C:\gnat\2021-arm-elf\arm-eabi\lib\gnat\ravenscar-full-nrf52833\adalib\libgnat.a(a-except.o)
                0x000000000000e5a0                ada__exceptions__exception_data__ldad_headerXn
 *fill*         0x000000000000e5ae        0x2 
 .rodata.ada__exceptions__exception_traces__nlineXn
                0x000000000000e5b0        0x1 C:\gnat\2021-arm-elf\arm-eabi\lib\gnat\ravenscar-full-nrf52833\adalib\libgnat.a(a-except.o)
                0x000000000000e5b0                ada__exceptions__exception_traces__nlineXn
 *fill*         0x000000000000e5b1        0x3 
 .rodata.h.10   0x000000000000e5b4       0x10 C:\gnat\2021-arm-elf\arm-eabi\lib\gnat\ravenscar-full-nrf52833\adalib\libgnat.a(a-except.o)
 .rodata.prefix.9
                0x000000000000e5c4       0x17 C:\gnat\2021-arm-elf\arm-eabi\lib\gnat\ravenscar-full-nrf52833\adalib\libgnat.a(a-except.o)
 *fill*         0x000000000000e5db        0x1 
 .rodata        0x000000000000e5dc        0xd C:\gnat\2021-arm-elf\arm-eabi\lib\gnat\ravenscar-full-nrf52833\adalib\libgnat.a(a-sttebu.o)
 *fill*         0x000000000000e5e9        0x3 
 .rodata.ada__strings__text_buffers__new_line_count
                0x000000000000e5ec        0x4 C:\gnat\2021-arm-elf\arm-eabi\lib\gnat\ravenscar-full-nrf52833\adalib\libgnat.a(a-sttebu.o)
                0x000000000000e5ec                ada__strings__text_buffers__new_line_count
 .rodata.ada__strings__text_buffers__root_buffer_typeB16s
                0x000000000000e5f0       0x2c C:\gnat\2021-arm-elf\arm-eabi\lib\gnat\ravenscar-full-nrf52833\adalib\libgnat.a(a-sttebu.o)
                0x000000000000e5f0                ada__strings__text_buffers__root_buffer_typeB16s
 .rodata.ada__strings__text_buffers__root_buffer_typeE12s
                0x000000000000e61c       0x2a C:\gnat\2021-arm-elf\arm-eabi\lib\gnat\ravenscar-full-nrf52833\adalib\libgnat.a(a-sttebu.o)
                0x000000000000e61c                ada__strings__text_buffers__root_buffer_typeE12s
 *fill*         0x000000000000e646        0x2 
 .rodata.ada__strings__text_buffers__root_buffer_typeP
                0x000000000000e648        0x4 C:\gnat\2021-arm-elf\arm-eabi\lib\gnat\ravenscar-full-nrf52833\adalib\libgnat.a(a-sttebu.o)
                0x000000000000e648                ada__strings__text_buffers__root_buffer_typeP
 .rodata.ada__strings__text_buffers__root_buffer_typeR14s
                0x000000000000e64c        0x4 C:\gnat\2021-arm-elf\arm-eabi\lib\gnat\ravenscar-full-nrf52833\adalib\libgnat.a(a-sttebu.o)
                0x000000000000e64c                ada__strings__text_buffers__root_buffer_typeR14s
 .rodata.ada__strings__text_buffers__root_buffer_typeR14s___UNC
                0x000000000000e650       0x30 C:\gnat\2021-arm-elf\arm-eabi\lib\gnat\ravenscar-full-nrf52833\adalib\libgnat.a(a-sttebu.o)
                0x000000000000e650                ada__strings__text_buffers__root_buffer_typeR14s___UNC
 .rodata.ada__strings__text_buffers__root_buffer_typeT
                0x000000000000e680       0x38 C:\gnat\2021-arm-elf\arm-eabi\lib\gnat\ravenscar-full-nrf52833\adalib\libgnat.a(a-sttebu.o)
                0x000000000000e680                ada__strings__text_buffers__root_buffer_typeT
 .rodata.ada__strings__text_buffers__root_buffer_typeY
                0x000000000000e6b8        0x4 C:\gnat\2021-arm-elf\arm-eabi\lib\gnat\ravenscar-full-nrf52833\adalib\libgnat.a(a-sttebu.o)
                0x000000000000e6b8                ada__strings__text_buffers__root_buffer_typeY
 .rodata.ada__strings__text_buffers__standard_indent
                0x000000000000e6bc        0x4 C:\gnat\2021-arm-elf\arm-eabi\lib\gnat\ravenscar-full-nrf52833\adalib\libgnat.a(a-sttebu.o)
                0x000000000000e6bc                ada__strings__text_buffers__standard_indent
 .rodata.ada__tags__is_abstract.str1.4
                0x000000000000e6c0        0xf C:\gnat\2021-arm-elf\arm-eabi\lib\gnat\ravenscar-full-nrf52833\adalib\libgnat.a(a-tags.o)
 *fill*         0x000000000000e6cf        0x1 
 .rodata.ada__tags__check_tsd.str1.4
                0x000000000000e6d0       0x1a C:\gnat\2021-arm-elf\arm-eabi\lib\gnat\ravenscar-full-nrf52833\adalib\libgnat.a(a-tags.o)
 *fill*         0x000000000000e6ea        0x2 
 .rodata.ada__tags__displace.str1.4
                0x000000000000e6ec       0x30 C:\gnat\2021-arm-elf\arm-eabi\lib\gnat\ravenscar-full-nrf52833\adalib\libgnat.a(a-tags.o)
 .rodata.ada__tags__expanded_name.str1.4
                0x000000000000e71c        0xf C:\gnat\2021-arm-elf\arm-eabi\lib\gnat\ravenscar-full-nrf52833\adalib\libgnat.a(a-tags.o)
 *fill*         0x000000000000e72b        0x1 
 .rodata.ada__tags__external_tag.str1.4
                0x000000000000e72c        0xf C:\gnat\2021-arm-elf\arm-eabi\lib\gnat\ravenscar-full-nrf52833\adalib\libgnat.a(a-tags.o)
 *fill*         0x000000000000e73b        0x1 
 .rodata.ada__tags__internal_tag.str1.4
                0x000000000000e73c       0x3a C:\gnat\2021-arm-elf\arm-eabi\lib\gnat\ravenscar-full-nrf52833\adalib\libgnat.a(a-tags.o)
 *fill*         0x000000000000e776        0x2 
 .rodata.ada__tags__descendant_tag.str1.4
                0x000000000000e778        0xf C:\gnat\2021-arm-elf\arm-eabi\lib\gnat\ravenscar-full-nrf52833\adalib\libgnat.a(a-tags.o)
 *fill*         0x000000000000e787        0x1 
 .rodata.ada__tags__parent_tag.str1.4
                0x000000000000e788        0xf C:\gnat\2021-arm-elf\arm-eabi\lib\gnat\ravenscar-full-nrf52833\adalib\libgnat.a(a-tags.o)
 *fill*         0x000000000000e797        0x1 
 .rodata.ada__tags__secondary_tag.str1.4
                0x000000000000e798       0x35 C:\gnat\2021-arm-elf\arm-eabi\lib\gnat\ravenscar-full-nrf52833\adalib\libgnat.a(a-tags.o)
 *fill*         0x000000000000e7cd        0x3 
 .rodata        0x000000000000e7d0       0x30 C:\gnat\2021-arm-elf\arm-eabi\lib\gnat\ravenscar-full-nrf52833\adalib\libgnat.a(a-tags.o)
 .rodata.ada__tags__dt_offset_to_top_offset
                0x000000000000e800        0x4 C:\gnat\2021-arm-elf\arm-eabi\lib\gnat\ravenscar-full-nrf52833\adalib\libgnat.a(a-tags.o)
                0x000000000000e800                ada__tags__dt_offset_to_top_offset
 .rodata.ada__tags__dt_offset_to_top_size
                0x000000000000e804        0x4 C:\gnat\2021-arm-elf\arm-eabi\lib\gnat\ravenscar-full-nrf52833\adalib\libgnat.a(a-tags.o)
                0x000000000000e804                ada__tags__dt_offset_to_top_size
 .rodata.ada__tags__dt_predef_prims_offset
                0x000000000000e808        0x4 C:\gnat\2021-arm-elf\arm-eabi\lib\gnat\ravenscar-full-nrf52833\adalib\libgnat.a(a-tags.o)
                0x000000000000e808                ada__tags__dt_predef_prims_offset
 .rodata.ada__tags__dt_predef_prims_size
                0x000000000000e80c        0x4 C:\gnat\2021-arm-elf\arm-eabi\lib\gnat\ravenscar-full-nrf52833\adalib\libgnat.a(a-tags.o)
                0x000000000000e80c                ada__tags__dt_predef_prims_size
 .rodata.ada__tags__dt_typeinfo_ptr_size
                0x000000000000e810        0x4 C:\gnat\2021-arm-elf\arm-eabi\lib\gnat\ravenscar-full-nrf52833\adalib\libgnat.a(a-tags.o)
                0x000000000000e810                ada__tags__dt_typeinfo_ptr_size
 .rodata.ada__tags__external_tag_htable__null_ptrXn
                0x000000000000e814        0x4 C:\gnat\2021-arm-elf\arm-eabi\lib\gnat\ravenscar-full-nrf52833\adalib\libgnat.a(a-tags.o)
                0x000000000000e814                ada__tags__external_tag_htable__null_ptrXn
 .rodata.ada__tags__max_predef_prims
                0x000000000000e818        0x4 C:\gnat\2021-arm-elf\arm-eabi\lib\gnat\ravenscar-full-nrf52833\adalib\libgnat.a(a-tags.o)
                0x000000000000e818                ada__tags__max_predef_prims
 .rodata.ada__tags__no_tag
                0x000000000000e81c        0x4 C:\gnat\2021-arm-elf\arm-eabi\lib\gnat\ravenscar-full-nrf52833\adalib\libgnat.a(a-tags.o)
                0x000000000000e81c                ada__tags__no_tag
 .rodata.ada__tags__prim_op_kindN
                0x000000000000e820       0x12 C:\gnat\2021-arm-elf\arm-eabi\lib\gnat\ravenscar-full-nrf52833\adalib\libgnat.a(a-tags.o)
                0x000000000000e820                ada__tags__prim_op_kindN
 *fill*         0x000000000000e832        0x2 
 .rodata.ada__tags__prim_op_kindS
                0x000000000000e834       0x8a C:\gnat\2021-arm-elf\arm-eabi\lib\gnat\ravenscar-full-nrf52833\adalib\libgnat.a(a-tags.o)
                0x000000000000e834                ada__tags__prim_op_kindS
 *fill*         0x000000000000e8be        0x2 
 .rodata.ada__tags__signature_kindN
                0x000000000000e8c0        0x4 C:\gnat\2021-arm-elf\arm-eabi\lib\gnat\ravenscar-full-nrf52833\adalib\libgnat.a(a-tags.o)
                0x000000000000e8c0                ada__tags__signature_kindN
 .rodata.ada__tags__signature_kindS
                0x000000000000e8c4       0x1d C:\gnat\2021-arm-elf\arm-eabi\lib\gnat\ravenscar-full-nrf52833\adalib\libgnat.a(a-tags.o)
                0x000000000000e8c4                ada__tags__signature_kindS
 *fill*         0x000000000000e8e1        0x3 
 .rodata.ada__tags__tag_errorE
                0x000000000000e8e4       0x13 C:\gnat\2021-arm-elf\arm-eabi\lib\gnat\ravenscar-full-nrf52833\adalib\libgnat.a(a-tags.o)
                0x000000000000e8e4                ada__tags__tag_errorE
 *fill*         0x000000000000e8f7        0x1 
 .rodata.ada__tags__tagged_kindN
                0x000000000000e8f8        0x8 C:\gnat\2021-arm-elf\arm-eabi\lib\gnat\ravenscar-full-nrf52833\adalib\libgnat.a(a-tags.o)
                0x000000000000e8f8                ada__tags__tagged_kindN
 .rodata.ada__tags__tagged_kindS
                0x000000000000e900       0x59 C:\gnat\2021-arm-elf\arm-eabi\lib\gnat\ravenscar-full-nrf52833\adalib\libgnat.a(a-tags.o)
                0x000000000000e900                ada__tags__tagged_kindS
 *fill*         0x000000000000e959        0x3 
 .rodata.prim_op_kindG.6
                0x000000000000e95c       0x12 C:\gnat\2021-arm-elf\arm-eabi\lib\gnat\ravenscar-full-nrf52833\adalib\libgnat.a(a-tags.o)
 *fill*         0x000000000000e96e        0x2 
 .rodata.prim_op_kindT1.8
                0x000000000000e970        0x2 C:\gnat\2021-arm-elf\arm-eabi\lib\gnat\ravenscar-full-nrf52833\adalib\libgnat.a(a-tags.o)
 *fill*         0x000000000000e972        0x2 
 .rodata.prim_op_kindT2.7
                0x000000000000e974        0x2 C:\gnat\2021-arm-elf\arm-eabi\lib\gnat\ravenscar-full-nrf52833\adalib\libgnat.a(a-tags.o)
 *fill*         0x000000000000e976        0x2 
 .rodata.tagged_kindG.2
                0x000000000000e978        0xd C:\gnat\2021-arm-elf\arm-eabi\lib\gnat\ravenscar-full-nrf52833\adalib\libgnat.a(a-tags.o)
 *fill*         0x000000000000e985        0x3 
 .rodata.tagged_kindP.5
                0x000000000000e988        0xc C:\gnat\2021-arm-elf\arm-eabi\lib\gnat\ravenscar-full-nrf52833\adalib\libgnat.a(a-tags.o)
 .rodata.tagged_kindT1.4
                0x000000000000e994        0x4 C:\gnat\2021-arm-elf\arm-eabi\lib\gnat\ravenscar-full-nrf52833\adalib\libgnat.a(a-tags.o)
 .rodata.tagged_kindT2.3
                0x000000000000e998        0x4 C:\gnat\2021-arm-elf\arm-eabi\lib\gnat\ravenscar-full-nrf52833\adalib\libgnat.a(a-tags.o)
 .rodata.__gnat_personality_v0.str1.4
                0x000000000000e99c        0x8 C:\gnat\2021-arm-elf\arm-eabi\lib\gnat\ravenscar-full-nrf52833\adalib\libgnat.a(raise-gcc.o)
                                         0x10 (size before relaxing)
 .rodata.__gnat_unwind_exception_size
                0x000000000000e9a4        0x4 C:\gnat\2021-arm-elf\arm-eabi\lib\gnat\ravenscar-full-nrf52833\adalib\libgnat.a(raise-gcc.o)
                0x000000000000e9a4                __gnat_unwind_exception_size
 .rodata.system__exceptions__foreign_exceptionE
                0x000000000000e9a8       0x24 C:\gnat\2021-arm-elf\arm-eabi\lib\gnat\ravenscar-full-nrf52833\adalib\libgnat.a(s-except.o)
                0x000000000000e9a8                system__exceptions__foreign_exceptionE
 .rodata.system__exceptions__machine__new_occurrence.str1.4
                0x000000000000e9cc        0x8 C:\gnat\2021-arm-elf\arm-eabi\lib\gnat\ravenscar-full-nrf52833\adalib\libgnat.a(s-excmac.o)
 .rodata.system__exceptions__machine__gnat_exception_class
                0x000000000000e9cc        0x8 C:\gnat\2021-arm-elf\arm-eabi\lib\gnat\ravenscar-full-nrf52833\adalib\libgnat.a(s-excmac.o)
                0x000000000000e9cc                system__exceptions__machine__gnat_exception_class
 .rodata.system__exceptions__machine__unwind_reason_codeN
                0x000000000000e9d4       0x16 C:\gnat\2021-arm-elf\arm-eabi\lib\gnat\ravenscar-full-nrf52833\adalib\libgnat.a(s-excmac.o)
                0x000000000000e9d4                system__exceptions__machine__unwind_reason_codeN
 *fill*         0x000000000000e9ea        0x2 
 .rodata.system__exceptions__machine__unwind_reason_codeS
                0x000000000000e9ec       0x90 C:\gnat\2021-arm-elf\arm-eabi\lib\gnat\ravenscar-full-nrf52833\adalib\libgnat.a(s-excmac.o)
                0x000000000000e9ec                system__exceptions__machine__unwind_reason_codeS
 .rodata.system__exceptions__machine__us_unwind_frame_resume
                0x000000000000ea7c        0x4 C:\gnat\2021-arm-elf\arm-eabi\lib\gnat\ravenscar-full-nrf52833\adalib\libgnat.a(s-excmac.o)
                0x000000000000ea7c                system__exceptions__machine__us_unwind_frame_resume
 .rodata.system__exceptions__machine__us_unwind_frame_starting
                0x000000000000ea80        0x4 C:\gnat\2021-arm-elf\arm-eabi\lib\gnat\ravenscar-full-nrf52833\adalib\libgnat.a(s-excmac.o)
                0x000000000000ea80                system__exceptions__machine__us_unwind_frame_starting
 .rodata.system__exceptions__machine__us_virtual_unwind_frame
                0x000000000000ea84        0x4 C:\gnat\2021-arm-elf\arm-eabi\lib\gnat\ravenscar-full-nrf52833\adalib\libgnat.a(s-excmac.o)
                0x000000000000ea84                system__exceptions__machine__us_virtual_unwind_frame
 .rodata.unwind_reason_codeG.0
                0x000000000000ea88       0x15 C:\gnat\2021-arm-elf\arm-eabi\lib\gnat\ravenscar-full-nrf52833\adalib\libgnat.a(s-excmac.o)
 *fill*         0x000000000000ea9d        0x3 
 .rodata.unwind_reason_codeT1.2
                0x000000000000eaa0        0x2 C:\gnat\2021-arm-elf\arm-eabi\lib\gnat\ravenscar-full-nrf52833\adalib\libgnat.a(s-excmac.o)
 *fill*         0x000000000000eaa2        0x2 
 .rodata.unwind_reason_codeT2.1
                0x000000000000eaa4        0x2 C:\gnat\2021-arm-elf\arm-eabi\lib\gnat\ravenscar-full-nrf52833\adalib\libgnat.a(s-excmac.o)
 *fill*         0x000000000000eaa6        0x2 
 .rodata        0x000000000000eaa8       0x10 C:\gnat\2021-arm-elf\arm-eabi\lib\gnat\ravenscar-full-nrf52833\adalib\libgnat.a(s-exctab.o)
 .rodata        0x000000000000eab8        0x8 C:\gnat\2021-arm-elf\arm-eabi\lib\gnat\ravenscar-full-nrf52833\adalib\libgnat.a(s-io.o)
 .rodata.system__io__file_typeN
                0x000000000000eac0        0x4 C:\gnat\2021-arm-elf\arm-eabi\lib\gnat\ravenscar-full-nrf52833\adalib\libgnat.a(s-io.o)
                0x000000000000eac0                system__io__file_typeN
 .rodata.system__io__file_typeS
                0x000000000000eac4        0xc C:\gnat\2021-arm-elf\arm-eabi\lib\gnat\ravenscar-full-nrf52833\adalib\libgnat.a(s-io.o)
                0x000000000000eac4                system__io__file_typeS
 .rodata.__gnat_malloc.str1.4
                0x000000000000ead0       0x23 C:\gnat\2021-arm-elf\arm-eabi\lib\gnat\ravenscar-full-nrf52833\adalib\libgnat.a(s-memory.o)
 *fill*         0x000000000000eaf3        0x1 
 .rodata        0x000000000000eaf4       0x10 C:\gnat\2021-arm-elf\arm-eabi\lib\gnat\ravenscar-full-nrf52833\adalib\libgnat.a(s-memory.o)
 .rodata.system__parameters__c_malloc_linkname
                0x000000000000eb04        0xd C:\gnat\2021-arm-elf\arm-eabi\lib\gnat\ravenscar-full-nrf52833\adalib\libgnat.a(s-parame.o)
                0x000000000000eb04                system__parameters__c_malloc_linkname
 *fill*         0x000000000000eb11        0x3 
 .rodata.system__parameters__default_stack_size
                0x000000000000eb14        0x4 C:\gnat\2021-arm-elf\arm-eabi\lib\gnat\ravenscar-full-nrf52833\adalib\libgnat.a(s-parame.o)
                0x000000000000eb14                system__parameters__default_stack_size
 .rodata.system__parameters__garbage_collected
                0x000000000000eb18        0x1 C:\gnat\2021-arm-elf\arm-eabi\lib\gnat\ravenscar-full-nrf52833\adalib\libgnat.a(s-parame.o)
                0x000000000000eb18                system__parameters__garbage_collected
 *fill*         0x000000000000eb19        0x3 
 .rodata.system__parameters__minimum_stack_size
                0x000000000000eb1c        0x4 C:\gnat\2021-arm-elf\arm-eabi\lib\gnat\ravenscar-full-nrf52833\adalib\libgnat.a(s-parame.o)
                0x000000000000eb1c                system__parameters__minimum_stack_size
 .rodata.system__parameters__no_abort
                0x000000000000eb20        0x1 C:\gnat\2021-arm-elf\arm-eabi\lib\gnat\ravenscar-full-nrf52833\adalib\libgnat.a(s-parame.o)
                0x000000000000eb20                system__parameters__no_abort
 *fill*         0x000000000000eb21        0x3 
 .rodata.system__parameters__runtime_default_sec_stack_size
                0x000000000000eb24        0x4 C:\gnat\2021-arm-elf\arm-eabi\lib\gnat\ravenscar-full-nrf52833\adalib\libgnat.a(s-parame.o)
                0x000000000000eb24                system__parameters__runtime_default_sec_stack_size
 .rodata.system__parameters__stack_grows_down
                0x000000000000eb28        0x1 C:\gnat\2021-arm-elf\arm-eabi\lib\gnat\ravenscar-full-nrf52833\adalib\libgnat.a(s-parame.o)
                0x000000000000eb28                system__parameters__stack_grows_down
 *fill*         0x000000000000eb29        0x3 
 .rodata.system__parameters__unspecified_size
                0x000000000000eb2c        0x4 C:\gnat\2021-arm-elf\arm-eabi\lib\gnat\ravenscar-full-nrf52833\adalib\libgnat.a(s-parame.o)
                0x000000000000eb2c                system__parameters__unspecified_size
 .rodata.system__put_images__thin_instance.str1.4
                0x000000000000eb30        0xe C:\gnat\2021-arm-elf\arm-eabi\lib\gnat\ravenscar-full-nrf52833\adalib\libgnat.a(s-putima.o)
 *fill*         0x000000000000eb3e        0x2 
 .rodata.system__put_images__put_image_thin_pointer.str1.4
                0x000000000000eb40        0x7 C:\gnat\2021-arm-elf\arm-eabi\lib\gnat\ravenscar-full-nrf52833\adalib\libgnat.a(s-putima.o)
 *fill*         0x000000000000eb47        0x1 
 .rodata.system__put_images__put_image_access_subp.str1.4
                0x000000000000eb48       0x12 C:\gnat\2021-arm-elf\arm-eabi\lib\gnat\ravenscar-full-nrf52833\adalib\libgnat.a(s-putima.o)
 *fill*         0x000000000000eb5a        0x2 
 .rodata.system__put_images__put_image_access_prot_subp.str1.4
                0x000000000000eb5c       0x1c C:\gnat\2021-arm-elf\arm-eabi\lib\gnat\ravenscar-full-nrf52833\adalib\libgnat.a(s-putima.o)
 .rodata.system__put_images__put_image_string.str1.4
                0x000000000000eb78       0x1c C:\gnat\2021-arm-elf\arm-eabi\lib\gnat\ravenscar-full-nrf52833\adalib\libgnat.a(s-putima.o)
                                          0x2 (size before relaxing)
 .rodata.system__put_images__put_arrow.str1.4
                0x000000000000eb78        0x5 C:\gnat\2021-arm-elf\arm-eabi\lib\gnat\ravenscar-full-nrf52833\adalib\libgnat.a(s-putima.o)
 *fill*         0x000000000000eb7d        0x3 
 .rodata.system__put_images__put_image_unknown.str1.4
                0x000000000000eb80        0xd C:\gnat\2021-arm-elf\arm-eabi\lib\gnat\ravenscar-full-nrf52833\adalib\libgnat.a(s-putima.o)
 *fill*         0x000000000000eb8d        0x3 
 .rodata        0x000000000000eb90       0x30 C:\gnat\2021-arm-elf\arm-eabi\lib\gnat\ravenscar-full-nrf52833\adalib\libgnat.a(s-putima.o)
 .rodata.system__put_images__hex__baseXn
                0x000000000000ebc0        0x4 C:\gnat\2021-arm-elf\arm-eabi\lib\gnat\ravenscar-full-nrf52833\adalib\libgnat.a(s-putima.o)
                0x000000000000ebc0                system__put_images__hex__baseXn
 .rodata.system__put_images__integer_images__baseXn
                0x000000000000ebc4        0x4 C:\gnat\2021-arm-elf\arm-eabi\lib\gnat\ravenscar-full-nrf52833\adalib\libgnat.a(s-putima.o)
                0x000000000000ebc4                system__put_images__integer_images__baseXn
 .rodata.system__put_images__ll_integer_images__baseXn
                0x000000000000ebc8        0x8 C:\gnat\2021-arm-elf\arm-eabi\lib\gnat\ravenscar-full-nrf52833\adalib\libgnat.a(s-putima.o)
                0x000000000000ebc8                system__put_images__ll_integer_images__baseXn
 .rodata.system__put_images__lll_integer_images__baseXn
                0x000000000000ebd0        0x8 C:\gnat\2021-arm-elf\arm-eabi\lib\gnat\ravenscar-full-nrf52833\adalib\libgnat.a(s-putima.o)
                0x000000000000ebd0                system__put_images__lll_integer_images__baseXn
 .rodata        0x000000000000ebd8        0xd C:\gnat\2021-arm-elf\arm-eabi\lib\gnat\ravenscar-full-nrf52833\adalib\libgnat.a(s-secsta.o)
 *fill*         0x000000000000ebe5        0x3 
 .rodata        0x000000000000ebe8        0x8 C:\gnat\2021-arm-elf\arm-eabi\lib\gnat\ravenscar-full-nrf52833\adalib\libgnat.a(s-soflin.o)
 .rodata.system__soft_links__abort_defer
                0x000000000000ebf0        0x4 C:\gnat\2021-arm-elf\arm-eabi\lib\gnat\ravenscar-full-nrf52833\adalib\libgnat.a(s-soflin.o)
                0x000000000000ebf0                system__soft_links__abort_defer
 .rodata.system__soft_links__abort_undefer
                0x000000000000ebf4        0x4 C:\gnat\2021-arm-elf\arm-eabi\lib\gnat\ravenscar-full-nrf52833\adalib\libgnat.a(s-soflin.o)
                0x000000000000ebf4                system__soft_links__abort_undefer
 .rodata.system__soft_links__get_current_excep
                0x000000000000ebf8        0x4 C:\gnat\2021-arm-elf\arm-eabi\lib\gnat\ravenscar-full-nrf52833\adalib\libgnat.a(s-soflin.o)
                0x000000000000ebf8                system__soft_links__get_current_excep
 .rodata.exception_trace_kindG.0
                0x000000000000ebfc        0x9 C:\gnat\2021-arm-elf\arm-eabi\lib\gnat\ravenscar-full-nrf52833\adalib\libgnat.a(s-stalib.o)
 *fill*         0x000000000000ec05        0x3 
 .rodata.system__standard_library__abort_signal_name
                0x000000000000ec08        0xe C:\gnat\2021-arm-elf\arm-eabi\lib\gnat\ravenscar-full-nrf52833\adalib\libgnat.a(s-stalib.o)
                0x000000000000ec08                system__standard_library__abort_signal_name
 *fill*         0x000000000000ec16        0x2 
 .rodata.system__standard_library__constraint_error_name
                0x000000000000ec18       0x11 C:\gnat\2021-arm-elf\arm-eabi\lib\gnat\ravenscar-full-nrf52833\adalib\libgnat.a(s-stalib.o)
                0x000000000000ec18                system__standard_library__constraint_error_name
 *fill*         0x000000000000ec29        0x3 
 .rodata.system__standard_library__exception_trace_kindN
                0x000000000000ec2c        0x8 C:\gnat\2021-arm-elf\arm-eabi\lib\gnat\ravenscar-full-nrf52833\adalib\libgnat.a(s-stalib.o)
                0x000000000000ec2c                system__standard_library__exception_trace_kindN
 .rodata.system__standard_library__exception_trace_kindS
                0x000000000000ec34       0x3e C:\gnat\2021-arm-elf\arm-eabi\lib\gnat\ravenscar-full-nrf52833\adalib\libgnat.a(s-stalib.o)
                0x000000000000ec34                system__standard_library__exception_trace_kindS
 *fill*         0x000000000000ec72        0x2 
 .rodata.system__standard_library__numeric_error_name
                0x000000000000ec74        0xe C:\gnat\2021-arm-elf\arm-eabi\lib\gnat\ravenscar-full-nrf52833\adalib\libgnat.a(s-stalib.o)
                0x000000000000ec74                system__standard_library__numeric_error_name
 *fill*         0x000000000000ec82        0x2 
 .rodata.system__standard_library__program_error_name
                0x000000000000ec84        0xe C:\gnat\2021-arm-elf\arm-eabi\lib\gnat\ravenscar-full-nrf52833\adalib\libgnat.a(s-stalib.o)
                0x000000000000ec84                system__standard_library__program_error_name
 *fill*         0x000000000000ec92        0x2 
 .rodata.system__standard_library__storage_error_name
                0x000000000000ec94        0xe C:\gnat\2021-arm-elf\arm-eabi\lib\gnat\ravenscar-full-nrf52833\adalib\libgnat.a(s-stalib.o)
                0x000000000000ec94                system__standard_library__storage_error_name
 *fill*         0x000000000000eca2        0x2 
 .rodata.system__standard_library__tasking_error_name
                0x000000000000eca4        0xe C:\gnat\2021-arm-elf\arm-eabi\lib\gnat\ravenscar-full-nrf52833\adalib\libgnat.a(s-stalib.o)
                0x000000000000eca4                system__standard_library__tasking_error_name
 *fill*         0x000000000000ecb2        0x2 
 .rodata        0x000000000000ecb4       0x10 C:\gnat\2021-arm-elf\arm-eabi\lib\gnat\ravenscar-full-nrf52833\adalib\libgnat.a(s-textio.o)
 .rodata.system__traceback_entries__null_tb_entry
                0x000000000000ecc4        0x4 C:\gnat\2021-arm-elf\arm-eabi\lib\gnat\ravenscar-full-nrf52833\adalib\libgnat.a(s-traent.o)
                0x000000000000ecc4                system__traceback_entries__null_tb_entry
 .rodata.system__val_uns__impl__scan_raw_unsigned.str1.4
                0x000000000000ecc8       0x5a C:\gnat\2021-arm-elf\arm-eabi\lib\gnat\ravenscar-full-nrf52833\adalib\libgnat.a(s-valuns.o)
 *fill*         0x000000000000ed22        0x2 
 .rodata        0x000000000000ed24        0x8 C:\gnat\2021-arm-elf\arm-eabi\lib\gnat\ravenscar-full-nrf52833\adalib\libgnat.a(s-valuns.o)
 .rodata.system__val_util__bad_value.str1.4
                0x000000000000ed2c       0x1d C:\gnat\2021-arm-elf\arm-eabi\lib\gnat\ravenscar-full-nrf52833\adalib\libgnat.a(s-valuti.o)
 *fill*         0x000000000000ed49        0x3 
 .rodata        0x000000000000ed4c        0x8 C:\gnat\2021-arm-elf\arm-eabi\lib\gnat\ravenscar-full-nrf52833\adalib\libgnat.a(s-valuti.o)
 .rodata.system__wch_con__get_wc_encoding_method__2.str1.4
                0x000000000000ed54       0x2d C:\gnat\2021-arm-elf\arm-eabi\lib\gnat\ravenscar-full-nrf52833\adalib\libgnat.a(s-wchcon.o)
 *fill*         0x000000000000ed81        0x3 
 .rodata        0x000000000000ed84        0xd C:\gnat\2021-arm-elf\arm-eabi\lib\gnat\ravenscar-full-nrf52833\adalib\libgnat.a(s-wchcon.o)
 *fill*         0x000000000000ed91        0x3 
 .rodata.system__wch_con__wc_encoding_letters
                0x000000000000ed94        0x8 C:\gnat\2021-arm-elf\arm-eabi\lib\gnat\ravenscar-full-nrf52833\adalib\libgnat.a(s-wchcon.o)
                0x000000000000ed94                system__wch_con__wc_encoding_letters
 .rodata.system__wch_con__wc_longest_sequences
                0x000000000000ed9c       0x18 C:\gnat\2021-arm-elf\arm-eabi\lib\gnat\ravenscar-full-nrf52833\adalib\libgnat.a(s-wchcon.o)
                0x000000000000ed9c                system__wch_con__wc_longest_sequences
 .rodata.system__wch_con__wcem_brackets
                0x000000000000edb4        0x1 C:\gnat\2021-arm-elf\arm-eabi\lib\gnat\ravenscar-full-nrf52833\adalib\libgnat.a(s-wchcon.o)
                0x000000000000edb4                system__wch_con__wcem_brackets
 .rodata.system__wch_con__wcem_euc
                0x000000000000edb5        0x1 C:\gnat\2021-arm-elf\arm-eabi\lib\gnat\ravenscar-full-nrf52833\adalib\libgnat.a(s-wchcon.o)
                0x000000000000edb5                system__wch_con__wcem_euc
 .rodata.system__wch_con__wcem_hex
                0x000000000000edb6        0x1 C:\gnat\2021-arm-elf\arm-eabi\lib\gnat\ravenscar-full-nrf52833\adalib\libgnat.a(s-wchcon.o)
                0x000000000000edb6                system__wch_con__wcem_hex
 .rodata.system__wch_con__wcem_shift_jis
                0x000000000000edb7        0x1 C:\gnat\2021-arm-elf\arm-eabi\lib\gnat\ravenscar-full-nrf52833\adalib\libgnat.a(s-wchcon.o)
                0x000000000000edb7                system__wch_con__wcem_shift_jis
 .rodata.system__wch_con__wcem_upper
                0x000000000000edb8        0x1 C:\gnat\2021-arm-elf\arm-eabi\lib\gnat\ravenscar-full-nrf52833\adalib\libgnat.a(s-wchcon.o)
                0x000000000000edb8                system__wch_con__wcem_upper
 .rodata.system__wch_con__wcem_utf8
                0x000000000000edb9        0x1 C:\gnat\2021-arm-elf\arm-eabi\lib\gnat\ravenscar-full-nrf52833\adalib\libgnat.a(s-wchcon.o)
                0x000000000000edb9                system__wch_con__wcem_utf8
 *fill*         0x000000000000edba        0x2 
 .rodata.system__wch_stw__get_next_code__in_char.0.str1.4
                0x000000000000edbc       0x47 C:\gnat\2021-arm-elf\arm-eabi\lib\gnat\ravenscar-full-nrf52833\adalib\libgnat.a(s-wchstw.o)
 *fill*         0x000000000000ee03        0x1 
 .rodata.system__wch_stw__string_to_wide_string.str1.4
                0x000000000000ee04       0x4c C:\gnat\2021-arm-elf\arm-eabi\lib\gnat\ravenscar-full-nrf52833\adalib\libgnat.a(s-wchstw.o)
 .rodata        0x000000000000ee50       0x20 C:\gnat\2021-arm-elf\arm-eabi\lib\gnat\ravenscar-full-nrf52833\adalib\libgnat.a(s-wchstw.o)
 .rodata.__gnat_last_chance_handler.str1.4
                0x000000000000ee70       0x3e C:\gnat\2021-arm-elf\arm-eabi\lib\gnat\ravenscar-full-nrf52833\adalib\libgnat.a(a-elchha.o)
                                         0x62 (size before relaxing)
 *fill*         0x000000000000eeae        0x2 
 .rodata        0x000000000000eeb0       0x2d C:\gnat\2021-arm-elf\arm-eabi\lib\gnat\ravenscar-full-nrf52833\adalib\libgnat.a(a-elchha.o)
 *fill*         0x000000000000eedd        0x3 
 .rodata        0x000000000000eee0       0x18 C:\gnat\2021-arm-elf\arm-eabi\lib\gnat\ravenscar-full-nrf52833\adalib\libgnat.a(a-stbuut.o)
 .rodata.ada__strings__utf_encoding__wide_wide_strings__decode__2.str1.4
                0x000000000000eef8        0xb C:\gnat\2021-arm-elf\arm-eabi\lib\gnat\ravenscar-full-nrf52833\adalib\libgnat.a(a-suezst.o)
 *fill*         0x000000000000ef03        0x1 
 .rodata.gnat__debug_utilities__image__2.str1.4
                0x000000000000ef04        0x4 C:\gnat\2021-arm-elf\arm-eabi\lib\gnat\ravenscar-full-nrf52833\adalib\libgnat.a(g-debuti.o)
 .rodata.gnat__debug_utilities__image_c.str1.4
                0x000000000000ef08        0x3 C:\gnat\2021-arm-elf\arm-eabi\lib\gnat\ravenscar-full-nrf52833\adalib\libgnat.a(g-debuti.o)
 *fill*         0x000000000000ef0b        0x1 
 .rodata        0x000000000000ef0c        0xd C:\gnat\2021-arm-elf\arm-eabi\lib\gnat\ravenscar-full-nrf52833\adalib\libgnat.a(g-debuti.o)
 .rodata.gnat__debug_utilities__address_64
                0x000000000000ef19        0x1 C:\gnat\2021-arm-elf\arm-eabi\lib\gnat\ravenscar-full-nrf52833\adalib\libgnat.a(g-debuti.o)
                0x000000000000ef19                gnat__debug_utilities__address_64
 *fill*         0x000000000000ef1a        0x2 
 .rodata.gnat__debug_utilities__h
                0x000000000000ef1c       0x10 C:\gnat\2021-arm-elf\arm-eabi\lib\gnat\ravenscar-full-nrf52833\adalib\libgnat.a(g-debuti.o)
 .rodata        0x000000000000ef2c        0xd C:\gnat\2021-arm-elf\arm-eabi\lib\gnat\ravenscar-full-nrf52833\adalib\libgnat.a(s-wchjis.o)
 *fill*         0x000000000000ef39        0x3 
 .rodata        0x000000000000ef3c       0x18 C:\gnat\2021-arm-elf\arm-eabi\lib\gnat\ravenscar-full-nrf52833\adalib\libgnat.a(setup_board.o)
 .rodata.ada__strings__utf_encoding__encoding.str1.4
                0x000000000000ef54        0xc C:\gnat\2021-arm-elf\arm-eabi\lib\gnat\ravenscar-full-nrf52833\adalib\libgnat.a(a-stuten.o)
 .rodata.ada__strings__utf_encoding__raise_encoding_error.str1.4
                0x000000000000ef54       0x14 C:\gnat\2021-arm-elf\arm-eabi\lib\gnat\ravenscar-full-nrf52833\adalib\libgnat.a(a-stuten.o)
 .rodata.ada__strings__utf_encoding__to_utf_16.str1.4
                0x000000000000ef68       0x46 C:\gnat\2021-arm-elf\arm-eabi\lib\gnat\ravenscar-full-nrf52833\adalib\libgnat.a(a-stuten.o)
 *fill*         0x000000000000efae        0x2 
 .rodata        0x000000000000efb0       0x10 C:\gnat\2021-arm-elf\arm-eabi\lib\gnat\ravenscar-full-nrf52833\adalib\libgnat.a(a-stuten.o)
 .rodata.ada__strings__utf_encoding__bom_16
                0x000000000000efc0        0x2 C:\gnat\2021-arm-elf\arm-eabi\lib\gnat\ravenscar-full-nrf52833\adalib\libgnat.a(a-stuten.o)
                0x000000000000efc0                ada__strings__utf_encoding__bom_16
 *fill*         0x000000000000efc2        0x2 
 .rodata.ada__strings__utf_encoding__bom_16be
                0x000000000000efc4        0x2 C:\gnat\2021-arm-elf\arm-eabi\lib\gnat\ravenscar-full-nrf52833\adalib\libgnat.a(a-stuten.o)
                0x000000000000efc4                ada__strings__utf_encoding__bom_16be
 *fill*         0x000000000000efc6        0x2 
 .rodata.ada__strings__utf_encoding__bom_16le
                0x000000000000efc8        0x2 C:\gnat\2021-arm-elf\arm-eabi\lib\gnat\ravenscar-full-nrf52833\adalib\libgnat.a(a-stuten.o)
                0x000000000000efc8                ada__strings__utf_encoding__bom_16le
 *fill*         0x000000000000efca        0x2 
 .rodata.ada__strings__utf_encoding__bom_8
                0x000000000000efcc        0x4 C:\gnat\2021-arm-elf\arm-eabi\lib\gnat\ravenscar-full-nrf52833\adalib\libgnat.a(a-stuten.o)
                0x000000000000efcc                ada__strings__utf_encoding__bom_8
 .rodata.ada__strings__utf_encoding__encoding_errorE
                0x000000000000efd0       0x28 C:\gnat\2021-arm-elf\arm-eabi\lib\gnat\ravenscar-full-nrf52833\adalib\libgnat.a(a-stuten.o)
                0x000000000000efd0                ada__strings__utf_encoding__encoding_errorE
 .rodata.ada__strings__utf_encoding__encoding_schemeN
                0x000000000000eff8        0x4 C:\gnat\2021-arm-elf\arm-eabi\lib\gnat\ravenscar-full-nrf52833\adalib\libgnat.a(a-stuten.o)
                0x000000000000eff8                ada__strings__utf_encoding__encoding_schemeN
 .rodata.ada__strings__utf_encoding__encoding_schemeS
                0x000000000000effc       0x15 C:\gnat\2021-arm-elf\arm-eabi\lib\gnat\ravenscar-full-nrf52833\adalib\libgnat.a(a-stuten.o)
                0x000000000000effc                ada__strings__utf_encoding__encoding_schemeS
 *fill*         0x000000000000f011        0x3 
 .rodata.str1.4
                0x000000000000f014        0x2 c:/gnat/2021-arm-elf/bin/../lib/gcc/arm-eabi/10.3.1/../../../../arm-eabi/lib/thumb/v7e-m/fpv4-sp/hard\libc.a(lib_a-impure.o)
 *fill*         0x000000000000f016        0x2 
 .rodata        0x000000000000f018        0x4 c:/gnat/2021-arm-elf/bin/../lib/gcc/arm-eabi/10.3.1/../../../../arm-eabi/lib/thumb/v7e-m/fpv4-sp/hard\libc.a(lib_a-impure.o)
                0x000000000000f018                _global_impure_ptr
                0x000000000000f01c                . = ALIGN (0x4)
                0x000000000000f01c                __rom_end = .
                0x000000000000f01c                __data_load = __rom_end

.rel.dyn        0x000000000000f01c        0x0
 .rel.iplt      0x000000000000f01c        0x0 test.o

.data           0x0000000020000000      0xb64 load address 0x000000000000f01c
                0x0000000020000000                __data_start = .
 *(.data .data.* .gnu.linkonce.d*)
 .data          0x0000000020000000        0x0 test.o
 .data          0x0000000020000000        0x3 b__test.o
                0x0000000020000000                ada_main_E
 *fill*         0x0000000020000003        0x1 
 .data          0x0000000020000004        0x8 C:\Users\Stigen\Documents\GitHub\ADA-project\CarProject\obj\tasking.o
                0x0000000020000004                tasking_E
                0x0000000020000006                tasking__tTKE
                0x0000000020000008                tasking__tTKZ
 .data          0x000000002000000c        0x0 C:\gnat\2021-arm-elf\arm-eabi\lib\gnat\ravenscar-full-nrf52833\adalib\libgnarl.a(a-reatim.o)
 .data.ada__real_time_E
                0x000000002000000c        0x2 C:\gnat\2021-arm-elf\arm-eabi\lib\gnat\ravenscar-full-nrf52833\adalib\libgnarl.a(a-reatim.o)
                0x000000002000000c                ada__real_time_E
 .data          0x000000002000000e        0x0 C:\gnat\2021-arm-elf\arm-eabi\lib\gnat\ravenscar-full-nrf52833\adalib\libgnarl.a(a-retide.o)
 .data.ada__real_time__delays_E
                0x000000002000000e        0x2 C:\gnat\2021-arm-elf\arm-eabi\lib\gnat\ravenscar-full-nrf52833\adalib\libgnarl.a(a-retide.o)
                0x000000002000000e                ada__real_time__delays_E
 .data          0x0000000020000010        0x0 C:\gnat\2021-arm-elf\arm-eabi\lib\gnat\ravenscar-full-nrf52833\adalib\libgnarl.a(s-bbbosu.o)
 .data          0x0000000020000010        0x0 C:\gnat\2021-arm-elf\arm-eabi\lib\gnat\ravenscar-full-nrf52833\adalib\libgnarl.a(s-bbcppr.o)
 .data          0x0000000020000010        0x0 C:\gnat\2021-arm-elf\arm-eabi\lib\gnat\ravenscar-full-nrf52833\adalib\libgnarl.a(s-bbinte.o)
 .data.system__bb__interrupts__interrupt_being_handled
                0x0000000020000010        0x4 C:\gnat\2021-arm-elf\arm-eabi\lib\gnat\ravenscar-full-nrf52833\adalib\libgnarl.a(s-bbinte.o)
                0x0000000020000010                system__bb__interrupts__interrupt_being_handled
 .data.system__bb__interrupts__interrupt_handlers_table
                0x0000000020000014       0xc4 C:\gnat\2021-arm-elf\arm-eabi\lib\gnat\ravenscar-full-nrf52833\adalib\libgnarl.a(s-bbinte.o)
                0x0000000020000014                system__bb__interrupts__interrupt_handlers_table
 .data          0x00000000200000d8        0x0 C:\gnat\2021-arm-elf\arm-eabi\lib\gnat\ravenscar-full-nrf52833\adalib\libgnarl.a(s-bbthqu.o)
 .data.__gnat_running_thread_table
                0x00000000200000d8        0x4 C:\gnat\2021-arm-elf\arm-eabi\lib\gnat\ravenscar-full-nrf52833\adalib\libgnarl.a(s-bbthqu.o)
                0x00000000200000d8                __gnat_running_thread_table
 .data.first_thread_table
                0x00000000200000dc        0x4 C:\gnat\2021-arm-elf\arm-eabi\lib\gnat\ravenscar-full-nrf52833\adalib\libgnarl.a(s-bbthqu.o)
                0x00000000200000dc                first_thread_table
 .data.system__bb__threads__queues__alarms_table
                0x00000000200000e0        0x4 C:\gnat\2021-arm-elf\arm-eabi\lib\gnat\ravenscar-full-nrf52833\adalib\libgnarl.a(s-bbthqu.o)
                0x00000000200000e0                system__bb__threads__queues__alarms_table
 .data.system__bb__threads__queues__global_list
                0x00000000200000e4        0x4 C:\gnat\2021-arm-elf\arm-eabi\lib\gnat\ravenscar-full-nrf52833\adalib\libgnarl.a(s-bbthqu.o)
                0x00000000200000e4                system__bb__threads__queues__global_list
 .data          0x00000000200000e8        0x0 C:\gnat\2021-arm-elf\arm-eabi\lib\gnat\ravenscar-full-nrf52833\adalib\libgnarl.a(s-bbtiev.o)
 .data.system__bb__timing_events_E
                0x00000000200000e8        0x2 C:\gnat\2021-arm-elf\arm-eabi\lib\gnat\ravenscar-full-nrf52833\adalib\libgnarl.a(s-bbtiev.o)
                0x00000000200000e8                system__bb__timing_events_E
 *fill*         0x00000000200000ea        0x2 
 .data.system__bb__timing_events__events_table
                0x00000000200000ec        0x4 C:\gnat\2021-arm-elf\arm-eabi\lib\gnat\ravenscar-full-nrf52833\adalib\libgnarl.a(s-bbtiev.o)
                0x00000000200000ec                system__bb__timing_events__events_table
 .data.system__bb__timing_events__timing_eventH12s
                0x00000000200000f0        0x4 C:\gnat\2021-arm-elf\arm-eabi\lib\gnat\ravenscar-full-nrf52833\adalib\libgnarl.a(s-bbtiev.o)
                0x00000000200000f0                system__bb__timing_events__timing_eventH12s
 .data          0x00000000200000f4        0x0 C:\gnat\2021-arm-elf\arm-eabi\lib\gnat\ravenscar-full-nrf52833\adalib\libgnarl.a(s-bbtime.o)
 .data.system__bb__time__alarm_lock
                0x00000000200000f4        0x2 C:\gnat\2021-arm-elf\arm-eabi\lib\gnat\ravenscar-full-nrf52833\adalib\libgnarl.a(s-bbtime.o)
                0x00000000200000f4                system__bb__time__alarm_lock
 *fill*         0x00000000200000f6        0x2 
 .data.system__bb__time__max_sleep
                0x00000000200000f8        0x8 C:\gnat\2021-arm-elf\arm-eabi\lib\gnat\ravenscar-full-nrf52833\adalib\libgnarl.a(s-bbtime.o)
                0x00000000200000f8                system__bb__time__max_sleep
 .data.system__bb__time__pending_alarm
                0x0000000020000100        0x8 C:\gnat\2021-arm-elf\arm-eabi\lib\gnat\ravenscar-full-nrf52833\adalib\libgnarl.a(s-bbtime.o)
                0x0000000020000100                system__bb__time__pending_alarm
 .data.system__bb__time__scheduling_event_hook
                0x0000000020000108        0x4 C:\gnat\2021-arm-elf\arm-eabi\lib\gnat\ravenscar-full-nrf52833\adalib\libgnarl.a(s-bbtime.o)
                0x0000000020000108                system__bb__time__scheduling_event_hook
 .data.system__bb__time__software_clock
                0x000000002000010c        0x8 C:\gnat\2021-arm-elf\arm-eabi\lib\gnat\ravenscar-full-nrf52833\adalib\libgnarl.a(s-bbtime.o)
                0x000000002000010c                system__bb__time__software_clock
 .data          0x0000000020000114        0x0 C:\gnat\2021-arm-elf\arm-eabi\lib\gnat\ravenscar-full-nrf52833\adalib\libgnarl.a(s-bcpcst.o)
 .data          0x0000000020000114        0x0 C:\gnat\2021-arm-elf\arm-eabi\lib\gnat\ravenscar-full-nrf52833\adalib\libgnarl.a(s-tarest.o)
 .data.__gnat_partition_elaboration_policy
                0x0000000020000114        0x1 C:\gnat\2021-arm-elf\arm-eabi\lib\gnat\ravenscar-full-nrf52833\adalib\libgnarl.a(s-tarest.o)
                0x0000000020000114                __gnat_partition_elaboration_policy
 *fill*         0x0000000020000115        0x1 
 .data.system__tasking__restricted__stages_E
                0x0000000020000116        0x2 C:\gnat\2021-arm-elf\arm-eabi\lib\gnat\ravenscar-full-nrf52833\adalib\libgnarl.a(s-tarest.o)
                0x0000000020000116                system__tasking__restricted__stages_E
 .data.system__tasking__restricted__stages__tasks_activation_chain
                0x0000000020000118        0x4 C:\gnat\2021-arm-elf\arm-eabi\lib\gnat\ravenscar-full-nrf52833\adalib\libgnarl.a(s-tarest.o)
 .data          0x000000002000011c        0x0 C:\gnat\2021-arm-elf\arm-eabi\lib\gnat\ravenscar-full-nrf52833\adalib\libgnarl.a(s-tasdeb.o)
 .data.system__tasking__debug_E
                0x000000002000011c        0x2 C:\gnat\2021-arm-elf\arm-eabi\lib\gnat\ravenscar-full-nrf52833\adalib\libgnarl.a(s-tasdeb.o)
                0x000000002000011c                system__tasking__debug_E
 *fill*         0x000000002000011e        0x2 
 .data.system__tasking__debug__first_task
                0x0000000020000120        0x4 C:\gnat\2021-arm-elf\arm-eabi\lib\gnat\ravenscar-full-nrf52833\adalib\libgnarl.a(s-tasdeb.o)
                0x0000000020000120                system__tasking__debug__first_task
 .data.system__tasking__debug__last_task
                0x0000000020000124        0x4 C:\gnat\2021-arm-elf\arm-eabi\lib\gnat\ravenscar-full-nrf52833\adalib\libgnarl.a(s-tasdeb.o)
                0x0000000020000124                system__tasking__debug__last_task
 .data          0x0000000020000128        0x0 C:\gnat\2021-arm-elf\arm-eabi\lib\gnat\ravenscar-full-nrf52833\adalib\libgnarl.a(s-taskin.o)
 .data.__gl_main_cpu
                0x0000000020000128        0x4 C:\gnat\2021-arm-elf\arm-eabi\lib\gnat\ravenscar-full-nrf52833\adalib\libgnarl.a(s-taskin.o)
                0x0000000020000128                __gl_main_cpu
 .data.__gl_main_priority
                0x000000002000012c        0x4 C:\gnat\2021-arm-elf\arm-eabi\lib\gnat\ravenscar-full-nrf52833\adalib\libgnarl.a(s-taskin.o)
                0x000000002000012c                __gl_main_priority
 .data.system__tasking__fall_back_handler
                0x0000000020000130        0x8 C:\gnat\2021-arm-elf\arm-eabi\lib\gnat\ravenscar-full-nrf52833\adalib\libgnarl.a(s-taskin.o)
                0x0000000020000130                system__tasking__fall_back_handler
 .data.system__tasking__initialized
                0x0000000020000138        0x1 C:\gnat\2021-arm-elf\arm-eabi\lib\gnat\ravenscar-full-nrf52833\adalib\libgnarl.a(s-taskin.o)
 .data          0x0000000020000139        0x0 C:\gnat\2021-arm-elf\arm-eabi\lib\gnat\ravenscar-full-nrf52833\adalib\libgnarl.a(s-bbprot.o)
 *fill*         0x0000000020000139        0x3 
 .data.system__bb__protection__wakeup_served_entry_callback
                0x000000002000013c        0x4 C:\gnat\2021-arm-elf\arm-eabi\lib\gnat\ravenscar-full-nrf52833\adalib\libgnarl.a(s-bbprot.o)
                0x000000002000013c                system__bb__protection__wakeup_served_entry_callback
 .data          0x0000000020000140        0x0 C:\gnat\2021-arm-elf\arm-eabi\lib\gnat\ravenscar-full-nrf52833\adalib\libgnarl.a(s-bbthre.o)
 .data.system__bb__threads__initialized
                0x0000000020000140        0x1 C:\gnat\2021-arm-elf\arm-eabi\lib\gnat\ravenscar-full-nrf52833\adalib\libgnarl.a(s-bbthre.o)
                0x0000000020000140                system__bb__threads__initialized
 .data          0x0000000020000141        0x0 C:\gnat\2021-arm-elf\arm-eabi\lib\gnat\ravenscar-full-nrf52833\adalib\libgnarl.a(s-taprop.o)
 *fill*         0x0000000020000141        0x3 
 .data.system__task_primitives__operations__environment_task
                0x0000000020000144        0x4 C:\gnat\2021-arm-elf\arm-eabi\lib\gnat\ravenscar-full-nrf52833\adalib\libgnarl.a(s-taprop.o)
                0x0000000020000144                system__task_primitives__operations__environment_task
 .data          0x0000000020000148        0x0 C:\gnat\2021-arm-elf\arm-eabi\lib\gnat\ravenscar-full-nrf52833\adalib\libgnat.a(a-except.o)
 .data.ada__exceptions_E
                0x0000000020000148        0x2 C:\gnat\2021-arm-elf\arm-eabi\lib\gnat\ravenscar-full-nrf52833\adalib\libgnat.a(a-except.o)
                0x0000000020000148                ada__exceptions_E
 .data.__gnat_exception_actions_initialized
                0x000000002000014a        0x1 C:\gnat\2021-arm-elf\arm-eabi\lib\gnat\ravenscar-full-nrf52833\adalib\libgnat.a(a-except.o)
                0x000000002000014a                __gnat_exception_actions_initialized
 *fill*         0x000000002000014b        0x1 
 .data.__gnat_exception_actions_global_action
                0x000000002000014c        0x4 C:\gnat\2021-arm-elf\arm-eabi\lib\gnat\ravenscar-full-nrf52833\adalib\libgnat.a(a-except.o)
                0x000000002000014c                __gnat_exception_actions_global_action
 .data.__gnat_exception_actions_global_unhandled_action
                0x0000000020000150        0x4 C:\gnat\2021-arm-elf\arm-eabi\lib\gnat\ravenscar-full-nrf52833\adalib\libgnat.a(a-except.o)
                0x0000000020000150                __gnat_exception_actions_global_unhandled_action
 .data          0x0000000020000154        0x0 C:\gnat\2021-arm-elf\arm-eabi\lib\gnat\ravenscar-full-nrf52833\adalib\libgnat.a(a-sttebu.o)
 .data.ada__strings__text_buffers_E
                0x0000000020000154        0x2 C:\gnat\2021-arm-elf\arm-eabi\lib\gnat\ravenscar-full-nrf52833\adalib\libgnat.a(a-sttebu.o)
                0x0000000020000154                ada__strings__text_buffers_E
 *fill*         0x0000000020000156        0x2 
 .data.ada__strings__text_buffers__root_buffer_typeH13s
                0x0000000020000158        0x4 C:\gnat\2021-arm-elf\arm-eabi\lib\gnat\ravenscar-full-nrf52833\adalib\libgnat.a(a-sttebu.o)
                0x0000000020000158                ada__strings__text_buffers__root_buffer_typeH13s
 .data          0x000000002000015c        0x0 C:\gnat\2021-arm-elf\arm-eabi\lib\gnat\ravenscar-full-nrf52833\adalib\libgnat.a(a-tags.o)
 .data.ada__tags_E
                0x000000002000015c        0x2 C:\gnat\2021-arm-elf\arm-eabi\lib\gnat\ravenscar-full-nrf52833\adalib\libgnat.a(a-tags.o)
                0x000000002000015c                ada__tags_E
 *fill*         0x000000002000015e        0x2 
 .data.ada__tags__tag_error
                0x0000000020000160       0x18 C:\gnat\2021-arm-elf\arm-eabi\lib\gnat\ravenscar-full-nrf52833\adalib\libgnat.a(a-tags.o)
                0x0000000020000160                ada__tags__tag_error
 .data          0x0000000020000178        0x0 C:\gnat\2021-arm-elf\arm-eabi\lib\gnat\ravenscar-full-nrf52833\adalib\libgnat.a(a-textio.o)
 .data.ada__text_io_E
                0x0000000020000178        0x2 C:\gnat\2021-arm-elf\arm-eabi\lib\gnat\ravenscar-full-nrf52833\adalib\libgnat.a(a-textio.o)
                0x0000000020000178                ada__text_io_E
 .data          0x000000002000017a        0x0 C:\gnat\2021-arm-elf\arm-eabi\lib\gnat\ravenscar-full-nrf52833\adalib\libgnat.a(adaint-xi.o)
 .data          0x000000002000017a        0x0 C:\gnat\2021-arm-elf\arm-eabi\lib\gnat\ravenscar-full-nrf52833\adalib\libgnat.a(handler.o)
 .data          0x000000002000017a        0x0 C:\gnat\2021-arm-elf\arm-eabi\lib\gnat\ravenscar-full-nrf52833\adalib\libgnat.a(raise-gcc.o)
 .data          0x000000002000017a        0x0 C:\gnat\2021-arm-elf\arm-eabi\lib\gnat\ravenscar-full-nrf52833\adalib\libgnat.a(s-excdeb.o)
 .data.system__exceptions_debug_E
                0x000000002000017a        0x2 C:\gnat\2021-arm-elf\arm-eabi\lib\gnat\ravenscar-full-nrf52833\adalib\libgnat.a(s-excdeb.o)
                0x000000002000017a                system__exceptions_debug_E
 .data          0x000000002000017c        0x0 C:\gnat\2021-arm-elf\arm-eabi\lib\gnat\ravenscar-full-nrf52833\adalib\libgnat.a(s-except.o)
 .data.system__exceptions_E
                0x000000002000017c        0x2 C:\gnat\2021-arm-elf\arm-eabi\lib\gnat\ravenscar-full-nrf52833\adalib\libgnat.a(s-except.o)
                0x000000002000017c                system__exceptions_E
 *fill*         0x000000002000017e        0x2 
 .data.system__exceptions__foreign_exception
                0x0000000020000180       0x18 C:\gnat\2021-arm-elf\arm-eabi\lib\gnat\ravenscar-full-nrf52833\adalib\libgnat.a(s-except.o)
                0x0000000020000180                system__exceptions__foreign_exception
 .data          0x0000000020000198        0x0 C:\gnat\2021-arm-elf\arm-eabi\lib\gnat\ravenscar-full-nrf52833\adalib\libgnat.a(s-excmac.o)
 .data.system__exceptions__machine_E
                0x0000000020000198        0x2 C:\gnat\2021-arm-elf\arm-eabi\lib\gnat\ravenscar-full-nrf52833\adalib\libgnat.a(s-excmac.o)
                0x0000000020000198                system__exceptions__machine_E
 .data          0x000000002000019a        0x0 C:\gnat\2021-arm-elf\arm-eabi\lib\gnat\ravenscar-full-nrf52833\adalib\libgnat.a(s-exctab.o)
 .data.system__exception_table_E
                0x000000002000019a        0x2 C:\gnat\2021-arm-elf\arm-eabi\lib\gnat\ravenscar-full-nrf52833\adalib\libgnat.a(s-exctab.o)
                0x000000002000019a                system__exception_table_E
 .data          0x000000002000019c        0x0 C:\gnat\2021-arm-elf\arm-eabi\lib\gnat\ravenscar-full-nrf52833\adalib\libgnat.a(s-imgint.o)
 .data.system__img_int_E
                0x000000002000019c        0x2 C:\gnat\2021-arm-elf\arm-eabi\lib\gnat\ravenscar-full-nrf52833\adalib\libgnat.a(s-imgint.o)
                0x000000002000019c                system__img_int_E
 .data          0x000000002000019e        0x0 C:\gnat\2021-arm-elf\arm-eabi\lib\gnat\ravenscar-full-nrf52833\adalib\libgnat.a(s-init.o)
 *fill*         0x000000002000019e        0x2 
 .data.__gl_bind_env_addr
                0x00000000200001a0        0x4 C:\gnat\2021-arm-elf\arm-eabi\lib\gnat\ravenscar-full-nrf52833\adalib\libgnat.a(s-init.o)
                0x00000000200001a0                __gl_bind_env_addr
 .data.__gl_default_stack_size
                0x00000000200001a4        0x4 C:\gnat\2021-arm-elf\arm-eabi\lib\gnat\ravenscar-full-nrf52833\adalib\libgnat.a(s-init.o)
                0x00000000200001a4                __gl_default_stack_size
 .data.__gl_detect_blocking
                0x00000000200001a8        0x4 C:\gnat\2021-arm-elf\arm-eabi\lib\gnat\ravenscar-full-nrf52833\adalib\libgnat.a(s-init.o)
                0x00000000200001a8                __gl_detect_blocking
 .data.__gl_exception_tracebacks
                0x00000000200001ac        0x4 C:\gnat\2021-arm-elf\arm-eabi\lib\gnat\ravenscar-full-nrf52833\adalib\libgnat.a(s-init.o)
                0x00000000200001ac                __gl_exception_tracebacks
 .data.__gl_exception_tracebacks_symbolic
                0x00000000200001b0        0x4 C:\gnat\2021-arm-elf\arm-eabi\lib\gnat\ravenscar-full-nrf52833\adalib\libgnat.a(s-init.o)
                0x00000000200001b0                __gl_exception_tracebacks_symbolic
 .data.__gl_interrupt_states
                0x00000000200001b4        0x4 C:\gnat\2021-arm-elf\arm-eabi\lib\gnat\ravenscar-full-nrf52833\adalib\libgnat.a(s-init.o)
                0x00000000200001b4                __gl_interrupt_states
 .data.__gl_leap_seconds_support
                0x00000000200001b8        0x4 C:\gnat\2021-arm-elf\arm-eabi\lib\gnat\ravenscar-full-nrf52833\adalib\libgnat.a(s-init.o)
                0x00000000200001b8                __gl_leap_seconds_support
 .data.__gl_locking_policy
                0x00000000200001bc        0x1 C:\gnat\2021-arm-elf\arm-eabi\lib\gnat\ravenscar-full-nrf52833\adalib\libgnat.a(s-init.o)
                0x00000000200001bc                __gl_locking_policy
 *fill*         0x00000000200001bd        0x3 
 .data.__gl_num_interrupt_states
                0x00000000200001c0        0x4 C:\gnat\2021-arm-elf\arm-eabi\lib\gnat\ravenscar-full-nrf52833\adalib\libgnat.a(s-init.o)
                0x00000000200001c0                __gl_num_interrupt_states
 .data.__gl_num_specific_dispatching
                0x00000000200001c4        0x4 C:\gnat\2021-arm-elf\arm-eabi\lib\gnat\ravenscar-full-nrf52833\adalib\libgnat.a(s-init.o)
                0x00000000200001c4                __gl_num_specific_dispatching
 .data.__gl_priority_specific_dispatching
                0x00000000200001c8        0x4 C:\gnat\2021-arm-elf\arm-eabi\lib\gnat\ravenscar-full-nrf52833\adalib\libgnat.a(s-init.o)
                0x00000000200001c8                __gl_priority_specific_dispatching
 .data.__gl_queuing_policy
                0x00000000200001cc        0x1 C:\gnat\2021-arm-elf\arm-eabi\lib\gnat\ravenscar-full-nrf52833\adalib\libgnat.a(s-init.o)
                0x00000000200001cc                __gl_queuing_policy
 *fill*         0x00000000200001cd        0x3 
 .data.__gl_restrictions
                0x00000000200001d0        0x4 C:\gnat\2021-arm-elf\arm-eabi\lib\gnat\ravenscar-full-nrf52833\adalib\libgnat.a(s-init.o)
                0x00000000200001d0                __gl_restrictions
 .data.__gl_task_dispatching_policy
                0x00000000200001d4        0x1 C:\gnat\2021-arm-elf\arm-eabi\lib\gnat\ravenscar-full-nrf52833\adalib\libgnat.a(s-init.o)
                0x00000000200001d4                __gl_task_dispatching_policy
 *fill*         0x00000000200001d5        0x3 
 .data.__gl_time_slice_val
                0x00000000200001d8        0x4 C:\gnat\2021-arm-elf\arm-eabi\lib\gnat\ravenscar-full-nrf52833\adalib\libgnat.a(s-init.o)
                0x00000000200001d8                __gl_time_slice_val
 .data.__gl_time_t_is_32_bits
                0x00000000200001dc        0x4 C:\gnat\2021-arm-elf\arm-eabi\lib\gnat\ravenscar-full-nrf52833\adalib\libgnat.a(s-init.o)
                0x00000000200001dc                __gl_time_t_is_32_bits
 .data.__gl_unreserve_all_interrupts
                0x00000000200001e0        0x4 C:\gnat\2021-arm-elf\arm-eabi\lib\gnat\ravenscar-full-nrf52833\adalib\libgnat.a(s-init.o)
                0x00000000200001e0                __gl_unreserve_all_interrupts
 .data.__gl_wc_encoding
                0x00000000200001e4        0x1 C:\gnat\2021-arm-elf\arm-eabi\lib\gnat\ravenscar-full-nrf52833\adalib\libgnat.a(s-init.o)
                0x00000000200001e4                __gl_wc_encoding
 *fill*         0x00000000200001e5        0x3 
 .data.__gl_xdr_stream
                0x00000000200001e8        0x4 C:\gnat\2021-arm-elf\arm-eabi\lib\gnat\ravenscar-full-nrf52833\adalib\libgnat.a(s-init.o)
                0x00000000200001e8                __gl_xdr_stream
 .data          0x00000000200001ec        0x0 C:\gnat\2021-arm-elf\arm-eabi\lib\gnat\ravenscar-full-nrf52833\adalib\libgnat.a(s-io.o)
 .data.system__io_E
                0x00000000200001ec        0x2 C:\gnat\2021-arm-elf\arm-eabi\lib\gnat\ravenscar-full-nrf52833\adalib\libgnat.a(s-io.o)
                0x00000000200001ec                system__io_E
 .data          0x00000000200001ee        0x0 C:\gnat\2021-arm-elf\arm-eabi\lib\gnat\ravenscar-full-nrf52833\adalib\libgnat.a(s-macres.o)
 .data.system__machine_reset_E
                0x00000000200001ee        0x2 C:\gnat\2021-arm-elf\arm-eabi\lib\gnat\ravenscar-full-nrf52833\adalib\libgnat.a(s-macres.o)
                0x00000000200001ee                system__machine_reset_E
 .data          0x00000000200001f0        0x0 C:\gnat\2021-arm-elf\arm-eabi\lib\gnat\ravenscar-full-nrf52833\adalib\libgnat.a(s-memory.o)
 .data.system__memory_E
                0x00000000200001f0        0x2 C:\gnat\2021-arm-elf\arm-eabi\lib\gnat\ravenscar-full-nrf52833\adalib\libgnat.a(s-memory.o)
                0x00000000200001f0                system__memory_E
 .data          0x00000000200001f2        0x0 C:\gnat\2021-arm-elf\arm-eabi\lib\gnat\ravenscar-full-nrf52833\adalib\libgnat.a(s-parame.o)
 .data.system__parameters_E
                0x00000000200001f2        0x2 C:\gnat\2021-arm-elf\arm-eabi\lib\gnat\ravenscar-full-nrf52833\adalib\libgnat.a(s-parame.o)
                0x00000000200001f2                system__parameters_E
 .data          0x00000000200001f4        0x0 C:\gnat\2021-arm-elf\arm-eabi\lib\gnat\ravenscar-full-nrf52833\adalib\libgnat.a(s-putima.o)
 .data.system__put_images_E
                0x00000000200001f4        0x2 C:\gnat\2021-arm-elf\arm-eabi\lib\gnat\ravenscar-full-nrf52833\adalib\libgnat.a(s-putima.o)
                0x00000000200001f4                system__put_images_E
 .data          0x00000000200001f6        0x0 C:\gnat\2021-arm-elf\arm-eabi\lib\gnat\ravenscar-full-nrf52833\adalib\libgnat.a(s-secsta.o)
 .data.system__secondary_stack_E
                0x00000000200001f6        0x2 C:\gnat\2021-arm-elf\arm-eabi\lib\gnat\ravenscar-full-nrf52833\adalib\libgnat.a(s-secsta.o)
                0x00000000200001f6                system__secondary_stack_E
 .data.system__secondary_stack__num_of_assigned_stacks
                0x00000000200001f8        0x4 C:\gnat\2021-arm-elf\arm-eabi\lib\gnat\ravenscar-full-nrf52833\adalib\libgnat.a(s-secsta.o)
                0x00000000200001f8                system__secondary_stack__num_of_assigned_stacks
 .data          0x00000000200001fc        0x0 C:\gnat\2021-arm-elf\arm-eabi\lib\gnat\ravenscar-full-nrf52833\adalib\libgnat.a(s-soflin.o)
 .data.system__soft_links_E
                0x00000000200001fc        0x2 C:\gnat\2021-arm-elf\arm-eabi\lib\gnat\ravenscar-full-nrf52833\adalib\libgnat.a(s-soflin.o)
                0x00000000200001fc                system__soft_links_E
 *fill*         0x00000000200001fe        0x2 
 .data.system__soft_links__adafinal
                0x0000000020000200        0x4 C:\gnat\2021-arm-elf\arm-eabi\lib\gnat\ravenscar-full-nrf52833\adalib\libgnat.a(s-soflin.o)
                0x0000000020000200                system__soft_links__adafinal
 .data.system__soft_links__library_exception_set
                0x0000000020000204        0x1 C:\gnat\2021-arm-elf\arm-eabi\lib\gnat\ravenscar-full-nrf52833\adalib\libgnat.a(s-soflin.o)
                0x0000000020000204                system__soft_links__library_exception_set
 *fill*         0x0000000020000205        0x3 
 .data.system__soft_links__lock_task
                0x0000000020000208        0x4 C:\gnat\2021-arm-elf\arm-eabi\lib\gnat\ravenscar-full-nrf52833\adalib\libgnat.a(s-soflin.o)
                0x0000000020000208                system__soft_links__lock_task
 .data.system__soft_links__task_termination_handler
                0x000000002000020c        0x4 C:\gnat\2021-arm-elf\arm-eabi\lib\gnat\ravenscar-full-nrf52833\adalib\libgnat.a(s-soflin.o)
                0x000000002000020c                system__soft_links__task_termination_handler
 .data.system__soft_links__traceback_decorator_wrapper
                0x0000000020000210        0x4 C:\gnat\2021-arm-elf\arm-eabi\lib\gnat\ravenscar-full-nrf52833\adalib\libgnat.a(s-soflin.o)
                0x0000000020000210                system__soft_links__traceback_decorator_wrapper
 .data.system__soft_links__unlock_task
                0x0000000020000214        0x4 C:\gnat\2021-arm-elf\arm-eabi\lib\gnat\ravenscar-full-nrf52833\adalib\libgnat.a(s-soflin.o)
                0x0000000020000214                system__soft_links__unlock_task
 .data          0x0000000020000218        0x0 C:\gnat\2021-arm-elf\arm-eabi\lib\gnat\ravenscar-full-nrf52833\adalib\libgnat.a(s-stalib.o)
 .data._abort_signal
                0x0000000020000218       0x18 C:\gnat\2021-arm-elf\arm-eabi\lib\gnat\ravenscar-full-nrf52833\adalib\libgnat.a(s-stalib.o)
                0x0000000020000218                _abort_signal
 .data.constraint_error
                0x0000000020000230       0x18 C:\gnat\2021-arm-elf\arm-eabi\lib\gnat\ravenscar-full-nrf52833\adalib\libgnat.a(s-stalib.o)
                0x0000000020000230                constraint_error
 .data.numeric_error
                0x0000000020000248       0x18 C:\gnat\2021-arm-elf\arm-eabi\lib\gnat\ravenscar-full-nrf52833\adalib\libgnat.a(s-stalib.o)
                0x0000000020000248                numeric_error
 .data.program_error
                0x0000000020000260       0x18 C:\gnat\2021-arm-elf\arm-eabi\lib\gnat\ravenscar-full-nrf52833\adalib\libgnat.a(s-stalib.o)
                0x0000000020000260                program_error
 .data.storage_error
                0x0000000020000278       0x18 C:\gnat\2021-arm-elf\arm-eabi\lib\gnat\ravenscar-full-nrf52833\adalib\libgnat.a(s-stalib.o)
                0x0000000020000278                storage_error
 .data.system__standard_library_E
                0x0000000020000290        0x2 C:\gnat\2021-arm-elf\arm-eabi\lib\gnat\ravenscar-full-nrf52833\adalib\libgnat.a(s-stalib.o)
                0x0000000020000290                system__standard_library_E
 .data.system__standard_library__exception_trace
                0x0000000020000292        0x1 C:\gnat\2021-arm-elf\arm-eabi\lib\gnat\ravenscar-full-nrf52833\adalib\libgnat.a(s-stalib.o)
                0x0000000020000292                system__standard_library__exception_trace
 *fill*         0x0000000020000293        0x1 
 .data.system__standard_library__local_partition_id
                0x0000000020000294        0x4 C:\gnat\2021-arm-elf\arm-eabi\lib\gnat\ravenscar-full-nrf52833\adalib\libgnat.a(s-stalib.o)
                0x0000000020000294                system__standard_library__local_partition_id
 .data.system__standard_library__runtime_finalized
                0x0000000020000298        0x1 C:\gnat\2021-arm-elf\arm-eabi\lib\gnat\ravenscar-full-nrf52833\adalib\libgnat.a(s-stalib.o)
                0x0000000020000298                system__standard_library__runtime_finalized
 *fill*         0x0000000020000299        0x3 
 .data.tasking_error
                0x000000002000029c       0x18 C:\gnat\2021-arm-elf\arm-eabi\lib\gnat\ravenscar-full-nrf52833\adalib\libgnat.a(s-stalib.o)
                0x000000002000029c                tasking_error
 .data          0x00000000200002b4        0x0 C:\gnat\2021-arm-elf\arm-eabi\lib\gnat\ravenscar-full-nrf52833\adalib\libgnat.a(s-textio.o)
 .data.T17b.0   0x00000000200002b4        0x4 C:\gnat\2021-arm-elf\arm-eabi\lib\gnat\ravenscar-full-nrf52833\adalib\libgnat.a(s-textio.o)
 .data.T1b.5    0x00000000200002b8        0x4 C:\gnat\2021-arm-elf\arm-eabi\lib\gnat\ravenscar-full-nrf52833\adalib\libgnat.a(s-textio.o)
 .data.T3b.1    0x00000000200002bc        0x4 C:\gnat\2021-arm-elf\arm-eabi\lib\gnat\ravenscar-full-nrf52833\adalib\libgnat.a(s-textio.o)
 .data.T4b.2    0x00000000200002c0        0x4 C:\gnat\2021-arm-elf\arm-eabi\lib\gnat\ravenscar-full-nrf52833\adalib\libgnat.a(s-textio.o)
 .data.T5b.3    0x00000000200002c4        0x4 C:\gnat\2021-arm-elf\arm-eabi\lib\gnat\ravenscar-full-nrf52833\adalib\libgnat.a(s-textio.o)
 .data.T6b.4    0x00000000200002c8        0x4 C:\gnat\2021-arm-elf\arm-eabi\lib\gnat\ravenscar-full-nrf52833\adalib\libgnat.a(s-textio.o)
 .data.system__text_io_E
                0x00000000200002cc        0x2 C:\gnat\2021-arm-elf\arm-eabi\lib\gnat\ravenscar-full-nrf52833\adalib\libgnat.a(s-textio.o)
                0x00000000200002cc                system__text_io_E
 .data.system__text_io__initialized
                0x00000000200002ce        0x1 C:\gnat\2021-arm-elf\arm-eabi\lib\gnat\ravenscar-full-nrf52833\adalib\libgnat.a(s-textio.o)
                0x00000000200002ce                system__text_io__initialized
 .data          0x00000000200002cf        0x0 C:\gnat\2021-arm-elf\arm-eabi\lib\gnat\ravenscar-full-nrf52833\adalib\libgnat.a(s-traceb.o)
 *fill*         0x00000000200002cf        0x1 
 .data.system__traceback_E
                0x00000000200002d0        0x2 C:\gnat\2021-arm-elf\arm-eabi\lib\gnat\ravenscar-full-nrf52833\adalib\libgnat.a(s-traceb.o)
                0x00000000200002d0                system__traceback_E
 .data          0x00000000200002d2        0x0 C:\gnat\2021-arm-elf\arm-eabi\lib\gnat\ravenscar-full-nrf52833\adalib\libgnat.a(s-traent.o)
 .data.system__traceback_entries_E
                0x00000000200002d2        0x2 C:\gnat\2021-arm-elf\arm-eabi\lib\gnat\ravenscar-full-nrf52833\adalib\libgnat.a(s-traent.o)
                0x00000000200002d2                system__traceback_entries_E
 .data          0x00000000200002d4        0x0 C:\gnat\2021-arm-elf\arm-eabi\lib\gnat\ravenscar-full-nrf52833\adalib\libgnat.a(s-valuns.o)
 .data.system__val_uns_E
                0x00000000200002d4        0x2 C:\gnat\2021-arm-elf\arm-eabi\lib\gnat\ravenscar-full-nrf52833\adalib\libgnat.a(s-valuns.o)
                0x00000000200002d4                system__val_uns_E
 .data          0x00000000200002d6        0x0 C:\gnat\2021-arm-elf\arm-eabi\lib\gnat\ravenscar-full-nrf52833\adalib\libgnat.a(s-valuti.o)
 .data.system__val_util_E
                0x00000000200002d6        0x2 C:\gnat\2021-arm-elf\arm-eabi\lib\gnat\ravenscar-full-nrf52833\adalib\libgnat.a(s-valuti.o)
                0x00000000200002d6                system__val_util_E
 .data          0x00000000200002d8        0x0 C:\gnat\2021-arm-elf\arm-eabi\lib\gnat\ravenscar-full-nrf52833\adalib\libgnat.a(s-wchcon.o)
 .data.system__wch_con_E
                0x00000000200002d8        0x2 C:\gnat\2021-arm-elf\arm-eabi\lib\gnat\ravenscar-full-nrf52833\adalib\libgnat.a(s-wchcon.o)
                0x00000000200002d8                system__wch_con_E
 .data          0x00000000200002da        0x0 C:\gnat\2021-arm-elf\arm-eabi\lib\gnat\ravenscar-full-nrf52833\adalib\libgnat.a(s-wchstw.o)
 .data.system__wch_stw_E
                0x00000000200002da        0x2 C:\gnat\2021-arm-elf\arm-eabi\lib\gnat\ravenscar-full-nrf52833\adalib\libgnat.a(s-wchstw.o)
                0x00000000200002da                system__wch_stw_E
 .data          0x00000000200002dc        0x0 C:\gnat\2021-arm-elf\arm-eabi\lib\gnat\ravenscar-full-nrf52833\adalib\libgnat.a(start-rom.o)
 .data          0x00000000200002dc        0x0 C:\gnat\2021-arm-elf\arm-eabi\lib\gnat\ravenscar-full-nrf52833\adalib\libgnat.a(a-elchha.o)
 .data.ada__exceptions__last_chance_handler_E
                0x00000000200002dc        0x2 C:\gnat\2021-arm-elf\arm-eabi\lib\gnat\ravenscar-full-nrf52833\adalib\libgnat.a(a-elchha.o)
                0x00000000200002dc                ada__exceptions__last_chance_handler_E
 .data          0x00000000200002de        0x0 C:\gnat\2021-arm-elf\arm-eabi\lib\gnat\ravenscar-full-nrf52833\adalib\libgnat.a(a-stbuut.o)
 .data.ada__strings__text_buffers__utils_E
                0x00000000200002de        0x2 C:\gnat\2021-arm-elf\arm-eabi\lib\gnat\ravenscar-full-nrf52833\adalib\libgnat.a(a-stbuut.o)
                0x00000000200002de                ada__strings__text_buffers__utils_E
 .data          0x00000000200002e0        0x0 C:\gnat\2021-arm-elf\arm-eabi\lib\gnat\ravenscar-full-nrf52833\adalib\libgnat.a(a-suezst.o)
 .data.ada__strings__utf_encoding__wide_wide_strings_E
                0x00000000200002e0        0x2 C:\gnat\2021-arm-elf\arm-eabi\lib\gnat\ravenscar-full-nrf52833\adalib\libgnat.a(a-suezst.o)
                0x00000000200002e0                ada__strings__utf_encoding__wide_wide_strings_E
 .data          0x00000000200002e2        0x0 C:\gnat\2021-arm-elf\arm-eabi\lib\gnat\ravenscar-full-nrf52833\adalib\libgnat.a(breakpoint_handler-cortexm.o)
 .data          0x00000000200002e2        0x0 C:\gnat\2021-arm-elf\arm-eabi\lib\gnat\ravenscar-full-nrf52833\adalib\libgnat.a(g-debuti.o)
 .data.gnat__debug_utilities_E
                0x00000000200002e2        0x2 C:\gnat\2021-arm-elf\arm-eabi\lib\gnat\ravenscar-full-nrf52833\adalib\libgnat.a(g-debuti.o)
                0x00000000200002e2                gnat__debug_utilities_E
 .data          0x00000000200002e4        0x0 C:\gnat\2021-arm-elf\arm-eabi\lib\gnat\ravenscar-full-nrf52833\adalib\libgnat.a(s-casuti.o)
 .data.system__case_util_E
                0x00000000200002e4        0x2 C:\gnat\2021-arm-elf\arm-eabi\lib\gnat\ravenscar-full-nrf52833\adalib\libgnat.a(s-casuti.o)
                0x00000000200002e4                system__case_util_E
 .data          0x00000000200002e6        0x0 C:\gnat\2021-arm-elf\arm-eabi\lib\gnat\ravenscar-full-nrf52833\adalib\libgnat.a(s-wchjis.o)
 .data.system__wch_jis_E
                0x00000000200002e6        0x2 C:\gnat\2021-arm-elf\arm-eabi\lib\gnat\ravenscar-full-nrf52833\adalib\libgnat.a(s-wchjis.o)
                0x00000000200002e6                system__wch_jis_E
 .data          0x00000000200002e8        0x0 C:\gnat\2021-arm-elf\arm-eabi\lib\gnat\ravenscar-full-nrf52833\adalib\libgnat.a(setup_board.o)
 .data.T21b.12  0x00000000200002e8        0x4 C:\gnat\2021-arm-elf\arm-eabi\lib\gnat\ravenscar-full-nrf52833\adalib\libgnat.a(setup_board.o)
 .data.T24b.13  0x00000000200002ec        0x4 C:\gnat\2021-arm-elf\arm-eabi\lib\gnat\ravenscar-full-nrf52833\adalib\libgnat.a(setup_board.o)
 .data.T25b.14  0x00000000200002f0        0x4 C:\gnat\2021-arm-elf\arm-eabi\lib\gnat\ravenscar-full-nrf52833\adalib\libgnat.a(setup_board.o)
 .data.T26b.15  0x00000000200002f4        0x4 C:\gnat\2021-arm-elf\arm-eabi\lib\gnat\ravenscar-full-nrf52833\adalib\libgnat.a(setup_board.o)
 .data.T27b.16  0x00000000200002f8        0x4 C:\gnat\2021-arm-elf\arm-eabi\lib\gnat\ravenscar-full-nrf52833\adalib\libgnat.a(setup_board.o)
 .data.T28b.17  0x00000000200002fc        0x4 C:\gnat\2021-arm-elf\arm-eabi\lib\gnat\ravenscar-full-nrf52833\adalib\libgnat.a(setup_board.o)
 .data.T29b.18  0x0000000020000300        0x4 C:\gnat\2021-arm-elf\arm-eabi\lib\gnat\ravenscar-full-nrf52833\adalib\libgnat.a(setup_board.o)
 .data.setup_board_E
                0x0000000020000304        0x2 C:\gnat\2021-arm-elf\arm-eabi\lib\gnat\ravenscar-full-nrf52833\adalib\libgnat.a(setup_board.o)
                0x0000000020000304                setup_board_E
 .data          0x0000000020000306        0x0 C:\gnat\2021-arm-elf\arm-eabi\lib\gnat\ravenscar-full-nrf52833\adalib\libgnat.a(start-common.o)
 .data          0x0000000020000306        0x0 C:\gnat\2021-arm-elf\arm-eabi\lib\gnat\ravenscar-full-nrf52833\adalib\libgnat.a(a-stuten.o)
 .data.ada__strings__utf_encoding_E
                0x0000000020000306        0x2 C:\gnat\2021-arm-elf\arm-eabi\lib\gnat\ravenscar-full-nrf52833\adalib\libgnat.a(a-stuten.o)
                0x0000000020000306                ada__strings__utf_encoding_E
 .data.ada__strings__utf_encoding__encoding_error
                0x0000000020000308       0x18 C:\gnat\2021-arm-elf\arm-eabi\lib\gnat\ravenscar-full-nrf52833\adalib\libgnat.a(a-stuten.o)
                0x0000000020000308                ada__strings__utf_encoding__encoding_error
 .data          0x0000000020000320        0x0 c:/gnat/2021-arm-elf/bin/../lib/gcc/arm-eabi/10.3.1/../../../../arm-eabi/lib/thumb/v7e-m/fpv4-sp/hard\libc.a(lib_a-malloc.o)
 .data          0x0000000020000320      0x410 c:/gnat/2021-arm-elf/bin/../lib/gcc/arm-eabi/10.3.1/../../../../arm-eabi/lib/thumb/v7e-m/fpv4-sp/hard\libc.a(lib_a-mallocr.o)
                0x0000000020000320                __malloc_av_
                0x0000000020000728                __malloc_sbrk_base
                0x000000002000072c                __malloc_trim_threshold
 .data          0x0000000020000730        0x0 c:/gnat/2021-arm-elf/bin/../lib/gcc/arm-eabi/10.3.1/../../../../arm-eabi/lib/thumb/v7e-m/fpv4-sp/hard\libc.a(lib_a-memcmp.o)
 .data          0x0000000020000730        0x0 c:/gnat/2021-arm-elf/bin/../lib/gcc/arm-eabi/10.3.1/../../../../arm-eabi/lib/thumb/v7e-m/fpv4-sp/hard\libc.a(lib_a-memcpy.o)
 .data          0x0000000020000730        0x0 c:/gnat/2021-arm-elf/bin/../lib/gcc/arm-eabi/10.3.1/../../../../arm-eabi/lib/thumb/v7e-m/fpv4-sp/hard\libc.a(lib_a-memmove.o)
 .data          0x0000000020000730        0x0 c:/gnat/2021-arm-elf/bin/../lib/gcc/arm-eabi/10.3.1/../../../../arm-eabi/lib/thumb/v7e-m/fpv4-sp/hard\libc.a(lib_a-memset.o)
 .data          0x0000000020000730        0x0 c:/gnat/2021-arm-elf/bin/../lib/gcc/arm-eabi/10.3.1/../../../../arm-eabi/lib/thumb/v7e-m/fpv4-sp/hard\libc.a(lib_a-mlock.o)
 .data          0x0000000020000730        0x0 c:/gnat/2021-arm-elf/bin/../lib/gcc/arm-eabi/10.3.1/../../../../arm-eabi/lib/thumb/v7e-m/fpv4-sp/hard\libc.a(lib_a-realloc.o)
 .data          0x0000000020000730        0x0 c:/gnat/2021-arm-elf/bin/../lib/gcc/arm-eabi/10.3.1/../../../../arm-eabi/lib/thumb/v7e-m/fpv4-sp/hard\libc.a(lib_a-reallocr.o)
 .data          0x0000000020000730        0x0 c:/gnat/2021-arm-elf/bin/../lib/gcc/arm-eabi/10.3.1/../../../../arm-eabi/lib/thumb/v7e-m/fpv4-sp/hard\libc.a(lib_a-sbrkr.o)
 .data          0x0000000020000730        0x0 c:/gnat/2021-arm-elf/bin/../lib/gcc/arm-eabi/10.3.1/../../../../arm-eabi/lib/thumb/v7e-m/fpv4-sp/hard\libc.a(lib_a-freer.o)
 .data          0x0000000020000730      0x430 c:/gnat/2021-arm-elf/bin/../lib/gcc/arm-eabi/10.3.1/../../../../arm-eabi/lib/thumb/v7e-m/fpv4-sp/hard\libc.a(lib_a-impure.o)
                0x0000000020000730                _impure_ptr
 .data          0x0000000020000b60        0x0 c:/gnat/2021-arm-elf/bin/../lib/gcc/arm-eabi/10.3.1/../../../../arm-eabi/lib/thumb/v7e-m/fpv4-sp/hard\libc.a(lib_a-reent.o)
 .data          0x0000000020000b60        0x0 C:\gnat\2021-arm-elf\arm-eabi\lib\gnat\ravenscar-full-nrf52833\adalib\\libgnat.a(newlib-bb.o)
 .data.heap_ptr.0
                0x0000000020000b60        0x4 C:\gnat\2021-arm-elf\arm-eabi\lib\gnat\ravenscar-full-nrf52833\adalib\\libgnat.a(newlib-bb.o)
 .data          0x0000000020000b64        0x0 c:/gnat/2021-arm-elf/bin/../lib/gcc/arm-eabi/10.3.1/thumb/v7e-m/fpv4-sp/hard\libgcc.a(_aeabi_ldivmod.o)
 .data          0x0000000020000b64        0x0 c:/gnat/2021-arm-elf/bin/../lib/gcc/arm-eabi/10.3.1/thumb/v7e-m/fpv4-sp/hard\libgcc.a(_aeabi_uldivmod.o)
 .data          0x0000000020000b64        0x0 c:/gnat/2021-arm-elf/bin/../lib/gcc/arm-eabi/10.3.1/thumb/v7e-m/fpv4-sp/hard\libgcc.a(_udivmoddi4.o)
 .data          0x0000000020000b64        0x0 c:/gnat/2021-arm-elf/bin/../lib/gcc/arm-eabi/10.3.1/thumb/v7e-m/fpv4-sp/hard\libgcc.a(unwind-arm.o)
 .data          0x0000000020000b64        0x0 c:/gnat/2021-arm-elf/bin/../lib/gcc/arm-eabi/10.3.1/thumb/v7e-m/fpv4-sp/hard\libgcc.a(libunwind.o)
 .data          0x0000000020000b64        0x0 c:/gnat/2021-arm-elf/bin/../lib/gcc/arm-eabi/10.3.1/thumb/v7e-m/fpv4-sp/hard\libgcc.a(pr-support.o)
 .data          0x0000000020000b64        0x0 c:/gnat/2021-arm-elf/bin/../lib/gcc/arm-eabi/10.3.1/thumb/v7e-m/fpv4-sp/hard\libgcc.a(_dvmd_tls.o)
 .data          0x0000000020000b64        0x0 c:/gnat/2021-arm-elf/bin/../lib/gcc/arm-eabi/10.3.1/../../../../arm-eabi/lib/thumb/v7e-m/fpv4-sp/hard\libc.a(lib_a-errno.o)
                0x0000000020000b64                . = ALIGN (0x4)
                0x0000000020000b64                __data_end = .
                0x00000000000002d9                __data_words = ((__data_end - __data_start) >> 0x2)

.igot.plt       0x0000000020000b64        0x0 load address 0x000000000000fb80
 .igot.plt      0x0000000020000b64        0x0 test.o

.bss            0x0000000020000b68     0x40f8 load address 0x000000000000fb88
                0x0000000020000b68                . = ALIGN (0x8)
                0x0000000020000b68                __bss_start = .
 *(.bss .bss.*)
 .bss           0x0000000020000b68        0x0 test.o
 .bss           0x0000000020000b68      0x420 b__test.o
 .bss           0x0000000020000f88     0x1280 C:\Users\Stigen\Documents\GitHub\ADA-project\CarProject\obj\tasking.o
                0x0000000020000f88                tasking___chain
                0x0000000020000f90                tasking__t
 .bss           0x0000000020002208        0x0 C:\gnat\2021-arm-elf\arm-eabi\lib\gnat\ravenscar-full-nrf52833\adalib\libgnarl.a(a-reatim.o)
 .bss           0x0000000020002208        0x0 C:\gnat\2021-arm-elf\arm-eabi\lib\gnat\ravenscar-full-nrf52833\adalib\libgnarl.a(a-retide.o)
 .bss           0x0000000020002208        0x0 C:\gnat\2021-arm-elf\arm-eabi\lib\gnat\ravenscar-full-nrf52833\adalib\libgnarl.a(s-bbbosu.o)
 .bss.__gnat_alarm_time
                0x0000000020002208        0x4 C:\gnat\2021-arm-elf\arm-eabi\lib\gnat\ravenscar-full-nrf52833\adalib\libgnarl.a(s-bbbosu.o)
                0x0000000020002208                __gnat_alarm_time
 .bss           0x000000002000220c        0x0 C:\gnat\2021-arm-elf\arm-eabi\lib\gnat\ravenscar-full-nrf52833\adalib\libgnarl.a(s-bbcppr.o)
 .bss.__gnat_bb_exception_handlers
                0x000000002000220c       0x44 C:\gnat\2021-arm-elf\arm-eabi\lib\gnat\ravenscar-full-nrf52833\adalib\libgnarl.a(s-bbcppr.o)
                0x000000002000220c                __gnat_bb_exception_handlers
 .bss           0x0000000020002250        0x0 C:\gnat\2021-arm-elf\arm-eabi\lib\gnat\ravenscar-full-nrf52833\adalib\libgnarl.a(s-bbinte.o)
 .bss.interrupt_stack_table
                0x0000000020002250        0x4 C:\gnat\2021-arm-elf\arm-eabi\lib\gnat\ravenscar-full-nrf52833\adalib\libgnarl.a(s-bbinte.o)
                0x0000000020002250                interrupt_stack_table
 .bss           0x0000000020002254        0x0 C:\gnat\2021-arm-elf\arm-eabi\lib\gnat\ravenscar-full-nrf52833\adalib\libgnarl.a(s-bbthqu.o)
 .bss           0x0000000020002254        0x0 C:\gnat\2021-arm-elf\arm-eabi\lib\gnat\ravenscar-full-nrf52833\adalib\libgnarl.a(s-bbtiev.o)
 .bss           0x0000000020002254        0x0 C:\gnat\2021-arm-elf\arm-eabi\lib\gnat\ravenscar-full-nrf52833\adalib\libgnarl.a(s-bbtime.o)
 .bss           0x0000000020002254        0x0 C:\gnat\2021-arm-elf\arm-eabi\lib\gnat\ravenscar-full-nrf52833\adalib\libgnarl.a(s-bcpcst.o)
 .bss           0x0000000020002254        0x0 C:\gnat\2021-arm-elf\arm-eabi\lib\gnat\ravenscar-full-nrf52833\adalib\libgnarl.a(s-tarest.o)
 .bss           0x0000000020002254        0x0 C:\gnat\2021-arm-elf\arm-eabi\lib\gnat\ravenscar-full-nrf52833\adalib\libgnarl.a(s-tasdeb.o)
 .bss           0x0000000020002254        0x0 C:\gnat\2021-arm-elf\arm-eabi\lib\gnat\ravenscar-full-nrf52833\adalib\libgnarl.a(s-taskin.o)
 *fill*         0x0000000020002254        0x4 
 .bss.system__tasking__environment_task
                0x0000000020002258      0x268 C:\gnat\2021-arm-elf\arm-eabi\lib\gnat\ravenscar-full-nrf52833\adalib\libgnarl.a(s-taskin.o)
 .bss           0x00000000200024c0        0x0 C:\gnat\2021-arm-elf\arm-eabi\lib\gnat\ravenscar-full-nrf52833\adalib\libgnarl.a(s-bbprot.o)
 .bss           0x00000000200024c0        0x0 C:\gnat\2021-arm-elf\arm-eabi\lib\gnat\ravenscar-full-nrf52833\adalib\libgnarl.a(s-bbthre.o)
 .bss           0x00000000200024c0        0x0 C:\gnat\2021-arm-elf\arm-eabi\lib\gnat\ravenscar-full-nrf52833\adalib\libgnarl.a(s-taprop.o)
 .bss.__gnat_idle_stack_table
                0x00000000200024c0        0x4 C:\gnat\2021-arm-elf\arm-eabi\lib\gnat\ravenscar-full-nrf52833\adalib\libgnarl.a(s-taprop.o)
                0x00000000200024c0                __gnat_idle_stack_table
 *fill*         0x00000000200024c4        0x4 
 .bss.system__task_primitives__operations__idle_stacks
                0x00000000200024c8      0x800 C:\gnat\2021-arm-elf\arm-eabi\lib\gnat\ravenscar-full-nrf52833\adalib\libgnarl.a(s-taprop.o)
                0x00000000200024c8                system__task_primitives__operations__idle_stacks
 .bss.system__task_primitives__operations__idle_tasks
                0x0000000020002cc8      0x268 C:\gnat\2021-arm-elf\arm-eabi\lib\gnat\ravenscar-full-nrf52833\adalib\libgnarl.a(s-taprop.o)
                0x0000000020002cc8                system__task_primitives__operations__idle_tasks
 .bss           0x0000000020002f30        0x0 C:\gnat\2021-arm-elf\arm-eabi\lib\gnat\ravenscar-full-nrf52833\adalib\libgnat.a(a-except.o)
 .bss.ada__exceptions__null_occurrence
                0x0000000020002f30      0x1a8 C:\gnat\2021-arm-elf\arm-eabi\lib\gnat\ravenscar-full-nrf52833\adalib\libgnat.a(a-except.o)
                0x0000000020002f30                ada__exceptions__null_occurrence
 .bss           0x00000000200030d8        0x0 C:\gnat\2021-arm-elf\arm-eabi\lib\gnat\ravenscar-full-nrf52833\adalib\libgnat.a(a-sttebu.o)
 .bss           0x00000000200030d8        0x0 C:\gnat\2021-arm-elf\arm-eabi\lib\gnat\ravenscar-full-nrf52833\adalib\libgnat.a(a-tags.o)
 .bss.ada__tags__external_tag_htable__tableXn
                0x00000000200030d8      0x100 C:\gnat\2021-arm-elf\arm-eabi\lib\gnat\ravenscar-full-nrf52833\adalib\libgnat.a(a-tags.o)
 .bss           0x00000000200031d8        0x0 C:\gnat\2021-arm-elf\arm-eabi\lib\gnat\ravenscar-full-nrf52833\adalib\libgnat.a(a-textio.o)
 .bss           0x00000000200031d8        0x0 C:\gnat\2021-arm-elf\arm-eabi\lib\gnat\ravenscar-full-nrf52833\adalib\libgnat.a(adaint-xi.o)
 .bss           0x00000000200031d8        0x0 C:\gnat\2021-arm-elf\arm-eabi\lib\gnat\ravenscar-full-nrf52833\adalib\libgnat.a(handler.o)
 .bss           0x00000000200031d8        0x0 C:\gnat\2021-arm-elf\arm-eabi\lib\gnat\ravenscar-full-nrf52833\adalib\libgnat.a(raise-gcc.o)
 .bss           0x00000000200031d8        0x0 C:\gnat\2021-arm-elf\arm-eabi\lib\gnat\ravenscar-full-nrf52833\adalib\libgnat.a(s-excdeb.o)
 .bss           0x00000000200031d8        0x0 C:\gnat\2021-arm-elf\arm-eabi\lib\gnat\ravenscar-full-nrf52833\adalib\libgnat.a(s-except.o)
 .bss           0x00000000200031d8        0x0 C:\gnat\2021-arm-elf\arm-eabi\lib\gnat\ravenscar-full-nrf52833\adalib\libgnat.a(s-excmac.o)
 .bss           0x00000000200031d8        0x0 C:\gnat\2021-arm-elf\arm-eabi\lib\gnat\ravenscar-full-nrf52833\adalib\libgnat.a(s-exctab.o)
 .bss.system__exception_table__htable
                0x00000000200031d8       0x94 C:\gnat\2021-arm-elf\arm-eabi\lib\gnat\ravenscar-full-nrf52833\adalib\libgnat.a(s-exctab.o)
                0x00000000200031d8                system__exception_table__htable
 .bss           0x000000002000326c        0x0 C:\gnat\2021-arm-elf\arm-eabi\lib\gnat\ravenscar-full-nrf52833\adalib\libgnat.a(s-imgint.o)
 .bss           0x000000002000326c        0x0 C:\gnat\2021-arm-elf\arm-eabi\lib\gnat\ravenscar-full-nrf52833\adalib\libgnat.a(s-init.o)
 .bss           0x000000002000326c        0x0 C:\gnat\2021-arm-elf\arm-eabi\lib\gnat\ravenscar-full-nrf52833\adalib\libgnat.a(s-io.o)
 .bss           0x000000002000326c        0x0 C:\gnat\2021-arm-elf\arm-eabi\lib\gnat\ravenscar-full-nrf52833\adalib\libgnat.a(s-macres.o)
 .bss           0x000000002000326c        0x0 C:\gnat\2021-arm-elf\arm-eabi\lib\gnat\ravenscar-full-nrf52833\adalib\libgnat.a(s-memory.o)
 .bss           0x000000002000326c        0x0 C:\gnat\2021-arm-elf\arm-eabi\lib\gnat\ravenscar-full-nrf52833\adalib\libgnat.a(s-parame.o)
 .bss           0x000000002000326c        0x0 C:\gnat\2021-arm-elf\arm-eabi\lib\gnat\ravenscar-full-nrf52833\adalib\libgnat.a(s-putima.o)
 .bss           0x000000002000326c        0x0 C:\gnat\2021-arm-elf\arm-eabi\lib\gnat\ravenscar-full-nrf52833\adalib\libgnat.a(s-secsta.o)
 .bss.__gnat_binder_ss_count
                0x000000002000326c        0x4 C:\gnat\2021-arm-elf\arm-eabi\lib\gnat\ravenscar-full-nrf52833\adalib\libgnat.a(s-secsta.o)
                0x000000002000326c                __gnat_binder_ss_count
 .bss.__gnat_default_ss_pool
                0x0000000020003270        0x4 C:\gnat\2021-arm-elf\arm-eabi\lib\gnat\ravenscar-full-nrf52833\adalib\libgnat.a(s-secsta.o)
                0x0000000020003270                __gnat_default_ss_pool
 .bss.__gnat_default_ss_size
                0x0000000020003274        0x4 C:\gnat\2021-arm-elf\arm-eabi\lib\gnat\ravenscar-full-nrf52833\adalib\libgnat.a(s-secsta.o)
                0x0000000020003274                __gnat_default_ss_size
 .bss.system__secondary_stack__ss_pool
                0x0000000020003278        0x4 C:\gnat\2021-arm-elf\arm-eabi\lib\gnat\ravenscar-full-nrf52833\adalib\libgnat.a(s-secsta.o)
                0x0000000020003278                system__secondary_stack__ss_pool
 .bss           0x000000002000327c        0x0 C:\gnat\2021-arm-elf\arm-eabi\lib\gnat\ravenscar-full-nrf52833\adalib\libgnat.a(s-soflin.o)
 .bss.system__soft_links__caller_priority
                0x000000002000327c        0x4 C:\gnat\2021-arm-elf\arm-eabi\lib\gnat\ravenscar-full-nrf52833\adalib\libgnat.a(s-soflin.o)
                0x000000002000327c                system__soft_links__caller_priority
 .bss.system__soft_links__library_exception
                0x0000000020003280      0x1a8 C:\gnat\2021-arm-elf\arm-eabi\lib\gnat\ravenscar-full-nrf52833\adalib\libgnat.a(s-soflin.o)
                0x0000000020003280                system__soft_links__library_exception
 .bss           0x0000000020003428        0x0 C:\gnat\2021-arm-elf\arm-eabi\lib\gnat\ravenscar-full-nrf52833\adalib\libgnat.a(s-stalib.o)
 .bss           0x0000000020003428        0x0 C:\gnat\2021-arm-elf\arm-eabi\lib\gnat\ravenscar-full-nrf52833\adalib\libgnat.a(s-textio.o)
 .bss           0x0000000020003428        0x0 C:\gnat\2021-arm-elf\arm-eabi\lib\gnat\ravenscar-full-nrf52833\adalib\libgnat.a(s-traceb.o)
 .bss           0x0000000020003428        0x0 C:\gnat\2021-arm-elf\arm-eabi\lib\gnat\ravenscar-full-nrf52833\adalib\libgnat.a(s-traent.o)
 .bss           0x0000000020003428        0x0 C:\gnat\2021-arm-elf\arm-eabi\lib\gnat\ravenscar-full-nrf52833\adalib\libgnat.a(s-valuns.o)
 .bss           0x0000000020003428        0x0 C:\gnat\2021-arm-elf\arm-eabi\lib\gnat\ravenscar-full-nrf52833\adalib\libgnat.a(s-valuti.o)
 .bss           0x0000000020003428        0x0 C:\gnat\2021-arm-elf\arm-eabi\lib\gnat\ravenscar-full-nrf52833\adalib\libgnat.a(s-wchcon.o)
 .bss           0x0000000020003428        0x0 C:\gnat\2021-arm-elf\arm-eabi\lib\gnat\ravenscar-full-nrf52833\adalib\libgnat.a(s-wchstw.o)
 .bss           0x0000000020003428        0x0 C:\gnat\2021-arm-elf\arm-eabi\lib\gnat\ravenscar-full-nrf52833\adalib\libgnat.a(start-rom.o)
 .bss           0x0000000020003428        0x0 C:\gnat\2021-arm-elf\arm-eabi\lib\gnat\ravenscar-full-nrf52833\adalib\libgnat.a(a-elchha.o)
 .bss           0x0000000020003428        0x0 C:\gnat\2021-arm-elf\arm-eabi\lib\gnat\ravenscar-full-nrf52833\adalib\libgnat.a(a-stbuut.o)
 .bss           0x0000000020003428        0x0 C:\gnat\2021-arm-elf\arm-eabi\lib\gnat\ravenscar-full-nrf52833\adalib\libgnat.a(a-suezst.o)
 .bss           0x0000000020003428        0x0 C:\gnat\2021-arm-elf\arm-eabi\lib\gnat\ravenscar-full-nrf52833\adalib\libgnat.a(breakpoint_handler-cortexm.o)
 .bss           0x0000000020003428        0x0 C:\gnat\2021-arm-elf\arm-eabi\lib\gnat\ravenscar-full-nrf52833\adalib\libgnat.a(g-debuti.o)
 .bss           0x0000000020003428        0x0 C:\gnat\2021-arm-elf\arm-eabi\lib\gnat\ravenscar-full-nrf52833\adalib\libgnat.a(s-casuti.o)
 .bss           0x0000000020003428        0x0 C:\gnat\2021-arm-elf\arm-eabi\lib\gnat\ravenscar-full-nrf52833\adalib\libgnat.a(s-wchjis.o)
 .bss           0x0000000020003428        0x0 C:\gnat\2021-arm-elf\arm-eabi\lib\gnat\ravenscar-full-nrf52833\adalib\libgnat.a(setup_board.o)
 .bss           0x0000000020003428        0x0 C:\gnat\2021-arm-elf\arm-eabi\lib\gnat\ravenscar-full-nrf52833\adalib\libgnat.a(start-common.o)
 .bss           0x0000000020003428        0x0 C:\gnat\2021-arm-elf\arm-eabi\lib\gnat\ravenscar-full-nrf52833\adalib\libgnat.a(a-stuten.o)
 .bss           0x0000000020003428        0x0 c:/gnat/2021-arm-elf/bin/../lib/gcc/arm-eabi/10.3.1/../../../../arm-eabi/lib/thumb/v7e-m/fpv4-sp/hard\libc.a(lib_a-malloc.o)
 .bss           0x0000000020003428       0x34 c:/gnat/2021-arm-elf/bin/../lib/gcc/arm-eabi/10.3.1/../../../../arm-eabi/lib/thumb/v7e-m/fpv4-sp/hard\libc.a(lib_a-mallocr.o)
                0x0000000020003428                __malloc_top_pad
                0x000000002000342c                __malloc_current_mallinfo
                0x0000000020003454                __malloc_max_sbrked_mem
                0x0000000020003458                __malloc_max_total_mem
 .bss           0x000000002000345c        0x0 c:/gnat/2021-arm-elf/bin/../lib/gcc/arm-eabi/10.3.1/../../../../arm-eabi/lib/thumb/v7e-m/fpv4-sp/hard\libc.a(lib_a-memcmp.o)
 .bss           0x000000002000345c        0x0 c:/gnat/2021-arm-elf/bin/../lib/gcc/arm-eabi/10.3.1/../../../../arm-eabi/lib/thumb/v7e-m/fpv4-sp/hard\libc.a(lib_a-memcpy.o)
 .bss           0x000000002000345c        0x0 c:/gnat/2021-arm-elf/bin/../lib/gcc/arm-eabi/10.3.1/../../../../arm-eabi/lib/thumb/v7e-m/fpv4-sp/hard\libc.a(lib_a-memmove.o)
 .bss           0x000000002000345c        0x0 c:/gnat/2021-arm-elf/bin/../lib/gcc/arm-eabi/10.3.1/../../../../arm-eabi/lib/thumb/v7e-m/fpv4-sp/hard\libc.a(lib_a-memset.o)
 .bss           0x000000002000345c        0x0 c:/gnat/2021-arm-elf/bin/../lib/gcc/arm-eabi/10.3.1/../../../../arm-eabi/lib/thumb/v7e-m/fpv4-sp/hard\libc.a(lib_a-mlock.o)
 .bss           0x000000002000345c        0x0 c:/gnat/2021-arm-elf/bin/../lib/gcc/arm-eabi/10.3.1/../../../../arm-eabi/lib/thumb/v7e-m/fpv4-sp/hard\libc.a(lib_a-realloc.o)
 .bss           0x000000002000345c        0x0 c:/gnat/2021-arm-elf/bin/../lib/gcc/arm-eabi/10.3.1/../../../../arm-eabi/lib/thumb/v7e-m/fpv4-sp/hard\libc.a(lib_a-reallocr.o)
 .bss           0x000000002000345c        0x0 c:/gnat/2021-arm-elf/bin/../lib/gcc/arm-eabi/10.3.1/../../../../arm-eabi/lib/thumb/v7e-m/fpv4-sp/hard\libc.a(lib_a-sbrkr.o)
 .bss           0x000000002000345c        0x0 c:/gnat/2021-arm-elf/bin/../lib/gcc/arm-eabi/10.3.1/../../../../arm-eabi/lib/thumb/v7e-m/fpv4-sp/hard\libc.a(lib_a-freer.o)
 .bss           0x000000002000345c        0x0 c:/gnat/2021-arm-elf/bin/../lib/gcc/arm-eabi/10.3.1/../../../../arm-eabi/lib/thumb/v7e-m/fpv4-sp/hard\libc.a(lib_a-impure.o)
 .bss           0x000000002000345c        0x4 c:/gnat/2021-arm-elf/bin/../lib/gcc/arm-eabi/10.3.1/../../../../arm-eabi/lib/thumb/v7e-m/fpv4-sp/hard\libc.a(lib_a-reent.o)
                0x000000002000345c                errno
 .bss           0x0000000020003460        0x0 C:\gnat\2021-arm-elf\arm-eabi\lib\gnat\ravenscar-full-nrf52833\adalib\\libgnat.a(newlib-bb.o)
 .bss           0x0000000020003460        0x0 c:/gnat/2021-arm-elf/bin/../lib/gcc/arm-eabi/10.3.1/thumb/v7e-m/fpv4-sp/hard\libgcc.a(_aeabi_ldivmod.o)
 .bss           0x0000000020003460        0x0 c:/gnat/2021-arm-elf/bin/../lib/gcc/arm-eabi/10.3.1/thumb/v7e-m/fpv4-sp/hard\libgcc.a(_aeabi_uldivmod.o)
 .bss           0x0000000020003460        0x0 c:/gnat/2021-arm-elf/bin/../lib/gcc/arm-eabi/10.3.1/thumb/v7e-m/fpv4-sp/hard\libgcc.a(_udivmoddi4.o)
 .bss           0x0000000020003460        0x0 c:/gnat/2021-arm-elf/bin/../lib/gcc/arm-eabi/10.3.1/thumb/v7e-m/fpv4-sp/hard\libgcc.a(unwind-arm.o)
 .bss           0x0000000020003460        0x0 c:/gnat/2021-arm-elf/bin/../lib/gcc/arm-eabi/10.3.1/thumb/v7e-m/fpv4-sp/hard\libgcc.a(libunwind.o)
 .bss           0x0000000020003460        0x0 c:/gnat/2021-arm-elf/bin/../lib/gcc/arm-eabi/10.3.1/thumb/v7e-m/fpv4-sp/hard\libgcc.a(pr-support.o)
 .bss           0x0000000020003460        0x0 c:/gnat/2021-arm-elf/bin/../lib/gcc/arm-eabi/10.3.1/thumb/v7e-m/fpv4-sp/hard\libgcc.a(_dvmd_tls.o)
 .bss           0x0000000020003460        0x0 c:/gnat/2021-arm-elf/bin/../lib/gcc/arm-eabi/10.3.1/../../../../arm-eabi/lib/thumb/v7e-m/fpv4-sp/hard\libc.a(lib_a-errno.o)
 *(COMMON)
                0x0000000020003460                . = ALIGN (0x8)
                0x0000000020003460                __bss_end = .
                0x0000000020003460                __interrupt_stack_start = .
 *(.interrupt_stacks)
 .interrupt_stacks
                0x0000000020003460      0x800 C:\gnat\2021-arm-elf\arm-eabi\lib\gnat\ravenscar-full-nrf52833\adalib\libgnarl.a(s-bbinte.o)
                0x0000000020003460                system__bb__interrupts__interrupt_stacks
                0x0000000020003c60                . = ALIGN (0x8)
                0x0000000020003c60                __interrupt_stack_end = .
                0x0000000020003c60                __stack_start = .
                0x0000000020004c60                . = (. + DEFINED (__stack_size)?__stack_size:_DEFAULT_STACK_SIZE)
 *fill*         0x0000000020003c60     0x1000 
                0x0000000020004c60                . = ALIGN (0x8)
                0x0000000020004c60                __stack_end = .
                0x0000000020004c60                _end = .
                0x0000000020004c60                __heap_start = .
                0x0000000020020000                __heap_end = (ORIGIN (sram_bs) + LENGTH (sram_bs))
                0x0000000000000a3e                __bss_words = ((__bss_end - __bss_start) >> 0x2)

.debug
 *(.debug)

.line
 *(.line)

.debug_srcinfo
 *(.debug_srcinfo)

.debug_sfnames
 *(.debug_sfnames)

.debug_aranges  0x0000000000000000      0x8d8
 *(.debug_aranges)
 .debug_aranges
                0x0000000000000000       0x20 C:\gnat\2021-arm-elf\arm-eabi\lib\gnat\ravenscar-full-nrf52833\adalib\libgnarl.a(s-tasdeb.o)
 .debug_aranges
                0x0000000000000020      0x488 C:\gnat\2021-arm-elf\arm-eabi\lib\gnat\ravenscar-full-nrf52833\adalib\libgnat.a(a-except.o)
 .debug_aranges
                0x00000000000004a8      0x130 C:\gnat\2021-arm-elf\arm-eabi\lib\gnat\ravenscar-full-nrf52833\adalib\libgnat.a(a-tags.o)
 .debug_aranges
                0x00000000000005d8       0x38 C:\gnat\2021-arm-elf\arm-eabi\lib\gnat\ravenscar-full-nrf52833\adalib\libgnat.a(s-excdeb.o)
 .debug_aranges
                0x0000000000000610       0x28 C:\gnat\2021-arm-elf\arm-eabi\lib\gnat\ravenscar-full-nrf52833\adalib\libgnat.a(s-traceb.o)
 .debug_aranges
                0x0000000000000638       0x20 c:/gnat/2021-arm-elf/bin/../lib/gcc/arm-eabi/10.3.1/../../../../arm-eabi/lib/thumb/v7e-m/fpv4-sp/hard\libc.a(lib_a-malloc.o)
 .debug_aranges
                0x0000000000000658       0x20 c:/gnat/2021-arm-elf/bin/../lib/gcc/arm-eabi/10.3.1/../../../../arm-eabi/lib/thumb/v7e-m/fpv4-sp/hard\libc.a(lib_a-mallocr.o)
 .debug_aranges
                0x0000000000000678       0x20 c:/gnat/2021-arm-elf/bin/../lib/gcc/arm-eabi/10.3.1/../../../../arm-eabi/lib/thumb/v7e-m/fpv4-sp/hard\libc.a(lib_a-memcmp.o)
 .debug_aranges
                0x0000000000000698       0x20 c:/gnat/2021-arm-elf/bin/../lib/gcc/arm-eabi/10.3.1/../../../../arm-eabi/lib/thumb/v7e-m/fpv4-sp/hard\libc.a(lib_a-memcpy.o)
 .debug_aranges
                0x00000000000006b8       0x20 c:/gnat/2021-arm-elf/bin/../lib/gcc/arm-eabi/10.3.1/../../../../arm-eabi/lib/thumb/v7e-m/fpv4-sp/hard\libc.a(lib_a-memmove.o)
 .debug_aranges
                0x00000000000006d8       0x20 c:/gnat/2021-arm-elf/bin/../lib/gcc/arm-eabi/10.3.1/../../../../arm-eabi/lib/thumb/v7e-m/fpv4-sp/hard\libc.a(lib_a-memset.o)
 .debug_aranges
                0x00000000000006f8       0x20 c:/gnat/2021-arm-elf/bin/../lib/gcc/arm-eabi/10.3.1/../../../../arm-eabi/lib/thumb/v7e-m/fpv4-sp/hard\libc.a(lib_a-mlock.o)
 .debug_aranges
                0x0000000000000718       0x20 c:/gnat/2021-arm-elf/bin/../lib/gcc/arm-eabi/10.3.1/../../../../arm-eabi/lib/thumb/v7e-m/fpv4-sp/hard\libc.a(lib_a-realloc.o)
 .debug_aranges
                0x0000000000000738       0x20 c:/gnat/2021-arm-elf/bin/../lib/gcc/arm-eabi/10.3.1/../../../../arm-eabi/lib/thumb/v7e-m/fpv4-sp/hard\libc.a(lib_a-reallocr.o)
 .debug_aranges
                0x0000000000000758       0x20 c:/gnat/2021-arm-elf/bin/../lib/gcc/arm-eabi/10.3.1/../../../../arm-eabi/lib/thumb/v7e-m/fpv4-sp/hard\libc.a(lib_a-sbrkr.o)
 .debug_aranges
                0x0000000000000778       0x20 c:/gnat/2021-arm-elf/bin/../lib/gcc/arm-eabi/10.3.1/../../../../arm-eabi/lib/thumb/v7e-m/fpv4-sp/hard\libc.a(lib_a-freer.o)
 .debug_aranges
                0x0000000000000798       0x18 c:/gnat/2021-arm-elf/bin/../lib/gcc/arm-eabi/10.3.1/../../../../arm-eabi/lib/thumb/v7e-m/fpv4-sp/hard\libc.a(lib_a-impure.o)
 .debug_aranges
                0x00000000000007b0       0x20 c:/gnat/2021-arm-elf/bin/../lib/gcc/arm-eabi/10.3.1/../../../../arm-eabi/lib/thumb/v7e-m/fpv4-sp/hard\libc.a(lib_a-reent.o)
 .debug_aranges
                0x00000000000007d0       0x20 c:/gnat/2021-arm-elf/bin/../lib/gcc/arm-eabi/10.3.1/thumb/v7e-m/fpv4-sp/hard\libgcc.a(_aeabi_ldivmod.o)
 .debug_aranges
                0x00000000000007f0       0x20 c:/gnat/2021-arm-elf/bin/../lib/gcc/arm-eabi/10.3.1/thumb/v7e-m/fpv4-sp/hard\libgcc.a(_aeabi_uldivmod.o)
 .debug_aranges
                0x0000000000000810       0x20 c:/gnat/2021-arm-elf/bin/../lib/gcc/arm-eabi/10.3.1/thumb/v7e-m/fpv4-sp/hard\libgcc.a(_udivmoddi4.o)
 .debug_aranges
                0x0000000000000830       0x20 c:/gnat/2021-arm-elf/bin/../lib/gcc/arm-eabi/10.3.1/thumb/v7e-m/fpv4-sp/hard\libgcc.a(unwind-arm.o)
 .debug_aranges
                0x0000000000000850       0x20 c:/gnat/2021-arm-elf/bin/../lib/gcc/arm-eabi/10.3.1/thumb/v7e-m/fpv4-sp/hard\libgcc.a(libunwind.o)
 .debug_aranges
                0x0000000000000870       0x28 c:/gnat/2021-arm-elf/bin/../lib/gcc/arm-eabi/10.3.1/thumb/v7e-m/fpv4-sp/hard\libgcc.a(pr-support.o)
 .debug_aranges
                0x0000000000000898       0x20 c:/gnat/2021-arm-elf/bin/../lib/gcc/arm-eabi/10.3.1/thumb/v7e-m/fpv4-sp/hard\libgcc.a(_dvmd_tls.o)
 .debug_aranges
                0x00000000000008b8       0x20 c:/gnat/2021-arm-elf/bin/../lib/gcc/arm-eabi/10.3.1/../../../../arm-eabi/lib/thumb/v7e-m/fpv4-sp/hard\libc.a(lib_a-errno.o)

.debug_pubnames
 *(.debug_pubnames)

.debug_info     0x0000000000000000    0x150b8
 *(.debug_info .gnu.linkonce.wi.*)
 .debug_info    0x0000000000000000      0x8d1 C:\gnat\2021-arm-elf\arm-eabi\lib\gnat\ravenscar-full-nrf52833\adalib\libgnarl.a(s-tasdeb.o)
 .debug_info    0x00000000000008d1     0x6872 C:\gnat\2021-arm-elf\arm-eabi\lib\gnat\ravenscar-full-nrf52833\adalib\libgnat.a(a-except.o)
 .debug_info    0x0000000000007143     0x366e C:\gnat\2021-arm-elf\arm-eabi\lib\gnat\ravenscar-full-nrf52833\adalib\libgnat.a(a-tags.o)
 .debug_info    0x000000000000a7b1      0x217 C:\gnat\2021-arm-elf\arm-eabi\lib\gnat\ravenscar-full-nrf52833\adalib\libgnat.a(s-excdeb.o)
 .debug_info    0x000000000000a9c8      0x477 C:\gnat\2021-arm-elf\arm-eabi\lib\gnat\ravenscar-full-nrf52833\adalib\libgnat.a(s-traceb.o)
 .debug_info    0x000000000000ae3f      0x9a3 c:/gnat/2021-arm-elf/bin/../lib/gcc/arm-eabi/10.3.1/../../../../arm-eabi/lib/thumb/v7e-m/fpv4-sp/hard\libc.a(lib_a-malloc.o)
 .debug_info    0x000000000000b7e2      0xeb1 c:/gnat/2021-arm-elf/bin/../lib/gcc/arm-eabi/10.3.1/../../../../arm-eabi/lib/thumb/v7e-m/fpv4-sp/hard\libc.a(lib_a-mallocr.o)
 .debug_info    0x000000000000c693      0x138 c:/gnat/2021-arm-elf/bin/../lib/gcc/arm-eabi/10.3.1/../../../../arm-eabi/lib/thumb/v7e-m/fpv4-sp/hard\libc.a(lib_a-memcmp.o)
 .debug_info    0x000000000000c7cb       0x26 c:/gnat/2021-arm-elf/bin/../lib/gcc/arm-eabi/10.3.1/../../../../arm-eabi/lib/thumb/v7e-m/fpv4-sp/hard\libc.a(lib_a-memcpy.o)
 .debug_info    0x000000000000c7f1      0x152 c:/gnat/2021-arm-elf/bin/../lib/gcc/arm-eabi/10.3.1/../../../../arm-eabi/lib/thumb/v7e-m/fpv4-sp/hard\libc.a(lib_a-memmove.o)
 .debug_info    0x000000000000c943      0x137 c:/gnat/2021-arm-elf/bin/../lib/gcc/arm-eabi/10.3.1/../../../../arm-eabi/lib/thumb/v7e-m/fpv4-sp/hard\libc.a(lib_a-memset.o)
 .debug_info    0x000000000000ca7a      0x937 c:/gnat/2021-arm-elf/bin/../lib/gcc/arm-eabi/10.3.1/../../../../arm-eabi/lib/thumb/v7e-m/fpv4-sp/hard\libc.a(lib_a-mlock.o)
 .debug_info    0x000000000000d3b1      0x96f c:/gnat/2021-arm-elf/bin/../lib/gcc/arm-eabi/10.3.1/../../../../arm-eabi/lib/thumb/v7e-m/fpv4-sp/hard\libc.a(lib_a-realloc.o)
 .debug_info    0x000000000000dd20      0xdea c:/gnat/2021-arm-elf/bin/../lib/gcc/arm-eabi/10.3.1/../../../../arm-eabi/lib/thumb/v7e-m/fpv4-sp/hard\libc.a(lib_a-reallocr.o)
 .debug_info    0x000000000000eb0a      0x988 c:/gnat/2021-arm-elf/bin/../lib/gcc/arm-eabi/10.3.1/../../../../arm-eabi/lib/thumb/v7e-m/fpv4-sp/hard\libc.a(lib_a-sbrkr.o)
 .debug_info    0x000000000000f492      0xd28 c:/gnat/2021-arm-elf/bin/../lib/gcc/arm-eabi/10.3.1/../../../../arm-eabi/lib/thumb/v7e-m/fpv4-sp/hard\libc.a(lib_a-freer.o)
 .debug_info    0x00000000000101ba      0x91f c:/gnat/2021-arm-elf/bin/../lib/gcc/arm-eabi/10.3.1/../../../../arm-eabi/lib/thumb/v7e-m/fpv4-sp/hard\libc.a(lib_a-impure.o)
 .debug_info    0x0000000000010ad9      0xbd6 c:/gnat/2021-arm-elf/bin/../lib/gcc/arm-eabi/10.3.1/../../../../arm-eabi/lib/thumb/v7e-m/fpv4-sp/hard\libc.a(lib_a-reent.o)
 .debug_info    0x00000000000116af       0x26 c:/gnat/2021-arm-elf/bin/../lib/gcc/arm-eabi/10.3.1/thumb/v7e-m/fpv4-sp/hard\libgcc.a(_aeabi_ldivmod.o)
 .debug_info    0x00000000000116d5       0x26 c:/gnat/2021-arm-elf/bin/../lib/gcc/arm-eabi/10.3.1/thumb/v7e-m/fpv4-sp/hard\libgcc.a(_aeabi_uldivmod.o)
 .debug_info    0x00000000000116fb      0x717 c:/gnat/2021-arm-elf/bin/../lib/gcc/arm-eabi/10.3.1/thumb/v7e-m/fpv4-sp/hard\libgcc.a(_udivmoddi4.o)
 .debug_info    0x0000000000011e12     0x1edd c:/gnat/2021-arm-elf/bin/../lib/gcc/arm-eabi/10.3.1/thumb/v7e-m/fpv4-sp/hard\libgcc.a(unwind-arm.o)
 .debug_info    0x0000000000013cef       0x26 c:/gnat/2021-arm-elf/bin/../lib/gcc/arm-eabi/10.3.1/thumb/v7e-m/fpv4-sp/hard\libgcc.a(libunwind.o)
 .debug_info    0x0000000000013d15      0xa74 c:/gnat/2021-arm-elf/bin/../lib/gcc/arm-eabi/10.3.1/thumb/v7e-m/fpv4-sp/hard\libgcc.a(pr-support.o)
 .debug_info    0x0000000000014789       0x26 c:/gnat/2021-arm-elf/bin/../lib/gcc/arm-eabi/10.3.1/thumb/v7e-m/fpv4-sp/hard\libgcc.a(_dvmd_tls.o)
 .debug_info    0x00000000000147af      0x909 c:/gnat/2021-arm-elf/bin/../lib/gcc/arm-eabi/10.3.1/../../../../arm-eabi/lib/thumb/v7e-m/fpv4-sp/hard\libc.a(lib_a-errno.o)

.debug_abbrev   0x0000000000000000     0x376a
 *(.debug_abbrev)
 .debug_abbrev  0x0000000000000000      0x2b8 C:\gnat\2021-arm-elf\arm-eabi\lib\gnat\ravenscar-full-nrf52833\adalib\libgnarl.a(s-tasdeb.o)
 .debug_abbrev  0x00000000000002b8      0x7ac C:\gnat\2021-arm-elf\arm-eabi\lib\gnat\ravenscar-full-nrf52833\adalib\libgnat.a(a-except.o)
 .debug_abbrev  0x0000000000000a64      0x748 C:\gnat\2021-arm-elf\arm-eabi\lib\gnat\ravenscar-full-nrf52833\adalib\libgnat.a(a-tags.o)
 .debug_abbrev  0x00000000000011ac      0x143 C:\gnat\2021-arm-elf\arm-eabi\lib\gnat\ravenscar-full-nrf52833\adalib\libgnat.a(s-excdeb.o)
 .debug_abbrev  0x00000000000012ef      0x275 C:\gnat\2021-arm-elf\arm-eabi\lib\gnat\ravenscar-full-nrf52833\adalib\libgnat.a(s-traceb.o)
 .debug_abbrev  0x0000000000001564      0x22b c:/gnat/2021-arm-elf/bin/../lib/gcc/arm-eabi/10.3.1/../../../../arm-eabi/lib/thumb/v7e-m/fpv4-sp/hard\libc.a(lib_a-malloc.o)
 .debug_abbrev  0x000000000000178f      0x2f1 c:/gnat/2021-arm-elf/bin/../lib/gcc/arm-eabi/10.3.1/../../../../arm-eabi/lib/thumb/v7e-m/fpv4-sp/hard\libc.a(lib_a-mallocr.o)
 .debug_abbrev  0x0000000000001a80       0x8d c:/gnat/2021-arm-elf/bin/../lib/gcc/arm-eabi/10.3.1/../../../../arm-eabi/lib/thumb/v7e-m/fpv4-sp/hard\libc.a(lib_a-memcmp.o)
 .debug_abbrev  0x0000000000001b0d       0x14 c:/gnat/2021-arm-elf/bin/../lib/gcc/arm-eabi/10.3.1/../../../../arm-eabi/lib/thumb/v7e-m/fpv4-sp/hard\libc.a(lib_a-memcpy.o)
 .debug_abbrev  0x0000000000001b21       0xc0 c:/gnat/2021-arm-elf/bin/../lib/gcc/arm-eabi/10.3.1/../../../../arm-eabi/lib/thumb/v7e-m/fpv4-sp/hard\libc.a(lib_a-memmove.o)
 .debug_abbrev  0x0000000000001be1       0xb4 c:/gnat/2021-arm-elf/bin/../lib/gcc/arm-eabi/10.3.1/../../../../arm-eabi/lib/thumb/v7e-m/fpv4-sp/hard\libc.a(lib_a-memset.o)
 .debug_abbrev  0x0000000000001c95      0x1e3 c:/gnat/2021-arm-elf/bin/../lib/gcc/arm-eabi/10.3.1/../../../../arm-eabi/lib/thumb/v7e-m/fpv4-sp/hard\libc.a(lib_a-mlock.o)
 .debug_abbrev  0x0000000000001e78      0x20e c:/gnat/2021-arm-elf/bin/../lib/gcc/arm-eabi/10.3.1/../../../../arm-eabi/lib/thumb/v7e-m/fpv4-sp/hard\libc.a(lib_a-realloc.o)
 .debug_abbrev  0x0000000000002086      0x28a c:/gnat/2021-arm-elf/bin/../lib/gcc/arm-eabi/10.3.1/../../../../arm-eabi/lib/thumb/v7e-m/fpv4-sp/hard\libc.a(lib_a-reallocr.o)
 .debug_abbrev  0x0000000000002310      0x21f c:/gnat/2021-arm-elf/bin/../lib/gcc/arm-eabi/10.3.1/../../../../arm-eabi/lib/thumb/v7e-m/fpv4-sp/hard\libc.a(lib_a-sbrkr.o)
 .debug_abbrev  0x000000000000252f      0x2ac c:/gnat/2021-arm-elf/bin/../lib/gcc/arm-eabi/10.3.1/../../../../arm-eabi/lib/thumb/v7e-m/fpv4-sp/hard\libc.a(lib_a-freer.o)
 .debug_abbrev  0x00000000000027db      0x1af c:/gnat/2021-arm-elf/bin/../lib/gcc/arm-eabi/10.3.1/../../../../arm-eabi/lib/thumb/v7e-m/fpv4-sp/hard\libc.a(lib_a-impure.o)
 .debug_abbrev  0x000000000000298a      0x2eb c:/gnat/2021-arm-elf/bin/../lib/gcc/arm-eabi/10.3.1/../../../../arm-eabi/lib/thumb/v7e-m/fpv4-sp/hard\libc.a(lib_a-reent.o)
 .debug_abbrev  0x0000000000002c75       0x14 c:/gnat/2021-arm-elf/bin/../lib/gcc/arm-eabi/10.3.1/thumb/v7e-m/fpv4-sp/hard\libgcc.a(_aeabi_ldivmod.o)
 .debug_abbrev  0x0000000000002c89       0x14 c:/gnat/2021-arm-elf/bin/../lib/gcc/arm-eabi/10.3.1/thumb/v7e-m/fpv4-sp/hard\libgcc.a(_aeabi_uldivmod.o)
 .debug_abbrev  0x0000000000002c9d      0x163 c:/gnat/2021-arm-elf/bin/../lib/gcc/arm-eabi/10.3.1/thumb/v7e-m/fpv4-sp/hard\libgcc.a(_udivmoddi4.o)
 .debug_abbrev  0x0000000000002e00      0x4a2 c:/gnat/2021-arm-elf/bin/../lib/gcc/arm-eabi/10.3.1/thumb/v7e-m/fpv4-sp/hard\libgcc.a(unwind-arm.o)
 .debug_abbrev  0x00000000000032a2       0x14 c:/gnat/2021-arm-elf/bin/../lib/gcc/arm-eabi/10.3.1/thumb/v7e-m/fpv4-sp/hard\libgcc.a(libunwind.o)
 .debug_abbrev  0x00000000000032b6      0x2eb c:/gnat/2021-arm-elf/bin/../lib/gcc/arm-eabi/10.3.1/thumb/v7e-m/fpv4-sp/hard\libgcc.a(pr-support.o)
 .debug_abbrev  0x00000000000035a1       0x14 c:/gnat/2021-arm-elf/bin/../lib/gcc/arm-eabi/10.3.1/thumb/v7e-m/fpv4-sp/hard\libgcc.a(_dvmd_tls.o)
 .debug_abbrev  0x00000000000035b5      0x1b5 c:/gnat/2021-arm-elf/bin/../lib/gcc/arm-eabi/10.3.1/../../../../arm-eabi/lib/thumb/v7e-m/fpv4-sp/hard\libc.a(lib_a-errno.o)

.debug_line     0x0000000000000000     0x722d
 *(.debug_line)
 .debug_line    0x0000000000000000      0x1a4 C:\gnat\2021-arm-elf\arm-eabi\lib\gnat\ravenscar-full-nrf52833\adalib\libgnarl.a(s-tasdeb.o)
 .debug_line    0x00000000000001a4     0x1a31 C:\gnat\2021-arm-elf\arm-eabi\lib\gnat\ravenscar-full-nrf52833\adalib\libgnat.a(a-except.o)
 .debug_line    0x0000000000001bd5      0xdd3 C:\gnat\2021-arm-elf\arm-eabi\lib\gnat\ravenscar-full-nrf52833\adalib\libgnat.a(a-tags.o)
 .debug_line    0x00000000000029a8       0xfe C:\gnat\2021-arm-elf\arm-eabi\lib\gnat\ravenscar-full-nrf52833\adalib\libgnat.a(s-excdeb.o)
 .debug_line    0x0000000000002aa6      0x141 C:\gnat\2021-arm-elf\arm-eabi\lib\gnat\ravenscar-full-nrf52833\adalib\libgnat.a(s-traceb.o)
 .debug_line    0x0000000000002be7      0x1b3 c:/gnat/2021-arm-elf/bin/../lib/gcc/arm-eabi/10.3.1/../../../../arm-eabi/lib/thumb/v7e-m/fpv4-sp/hard\libc.a(lib_a-malloc.o)
 .debug_line    0x0000000000002d9a      0x918 c:/gnat/2021-arm-elf/bin/../lib/gcc/arm-eabi/10.3.1/../../../../arm-eabi/lib/thumb/v7e-m/fpv4-sp/hard\libc.a(lib_a-mallocr.o)
 .debug_line    0x00000000000036b2      0x1c3 c:/gnat/2021-arm-elf/bin/../lib/gcc/arm-eabi/10.3.1/../../../../arm-eabi/lib/thumb/v7e-m/fpv4-sp/hard\libc.a(lib_a-memcmp.o)
 .debug_line    0x0000000000003875       0xc5 c:/gnat/2021-arm-elf/bin/../lib/gcc/arm-eabi/10.3.1/../../../../arm-eabi/lib/thumb/v7e-m/fpv4-sp/hard\libc.a(lib_a-memcpy.o)
 .debug_line    0x000000000000393a      0x23c c:/gnat/2021-arm-elf/bin/../lib/gcc/arm-eabi/10.3.1/../../../../arm-eabi/lib/thumb/v7e-m/fpv4-sp/hard\libc.a(lib_a-memmove.o)
 .debug_line    0x0000000000003b76      0x21f c:/gnat/2021-arm-elf/bin/../lib/gcc/arm-eabi/10.3.1/../../../../arm-eabi/lib/thumb/v7e-m/fpv4-sp/hard\libc.a(lib_a-memset.o)
 .debug_line    0x0000000000003d95      0x13c c:/gnat/2021-arm-elf/bin/../lib/gcc/arm-eabi/10.3.1/../../../../arm-eabi/lib/thumb/v7e-m/fpv4-sp/hard\libc.a(lib_a-mlock.o)
 .debug_line    0x0000000000003ed1      0x1a5 c:/gnat/2021-arm-elf/bin/../lib/gcc/arm-eabi/10.3.1/../../../../arm-eabi/lib/thumb/v7e-m/fpv4-sp/hard\libc.a(lib_a-realloc.o)
 .debug_line    0x0000000000004076      0x81b c:/gnat/2021-arm-elf/bin/../lib/gcc/arm-eabi/10.3.1/../../../../arm-eabi/lib/thumb/v7e-m/fpv4-sp/hard\libc.a(lib_a-reallocr.o)
 .debug_line    0x0000000000004891      0x1c4 c:/gnat/2021-arm-elf/bin/../lib/gcc/arm-eabi/10.3.1/../../../../arm-eabi/lib/thumb/v7e-m/fpv4-sp/hard\libc.a(lib_a-sbrkr.o)
 .debug_line    0x0000000000004a55      0x558 c:/gnat/2021-arm-elf/bin/../lib/gcc/arm-eabi/10.3.1/../../../../arm-eabi/lib/thumb/v7e-m/fpv4-sp/hard\libc.a(lib_a-freer.o)
 .debug_line    0x0000000000004fad      0x124 c:/gnat/2021-arm-elf/bin/../lib/gcc/arm-eabi/10.3.1/../../../../arm-eabi/lib/thumb/v7e-m/fpv4-sp/hard\libc.a(lib_a-impure.o)
 .debug_line    0x00000000000050d1      0x2eb c:/gnat/2021-arm-elf/bin/../lib/gcc/arm-eabi/10.3.1/../../../../arm-eabi/lib/thumb/v7e-m/fpv4-sp/hard\libc.a(lib_a-reent.o)
 .debug_line    0x00000000000053bc       0x85 c:/gnat/2021-arm-elf/bin/../lib/gcc/arm-eabi/10.3.1/thumb/v7e-m/fpv4-sp/hard\libgcc.a(_aeabi_ldivmod.o)
 .debug_line    0x0000000000005441       0x67 c:/gnat/2021-arm-elf/bin/../lib/gcc/arm-eabi/10.3.1/thumb/v7e-m/fpv4-sp/hard\libgcc.a(_aeabi_uldivmod.o)
 .debug_line    0x00000000000054a8      0x5bf c:/gnat/2021-arm-elf/bin/../lib/gcc/arm-eabi/10.3.1/thumb/v7e-m/fpv4-sp/hard\libgcc.a(_udivmoddi4.o)
 .debug_line    0x0000000000005a67     0x1008 c:/gnat/2021-arm-elf/bin/../lib/gcc/arm-eabi/10.3.1/thumb/v7e-m/fpv4-sp/hard\libgcc.a(unwind-arm.o)
 .debug_line    0x0000000000006a6f       0xb4 c:/gnat/2021-arm-elf/bin/../lib/gcc/arm-eabi/10.3.1/thumb/v7e-m/fpv4-sp/hard\libgcc.a(libunwind.o)
 .debug_line    0x0000000000006b23      0x55a c:/gnat/2021-arm-elf/bin/../lib/gcc/arm-eabi/10.3.1/thumb/v7e-m/fpv4-sp/hard\libgcc.a(pr-support.o)
 .debug_line    0x000000000000707d       0x67 c:/gnat/2021-arm-elf/bin/../lib/gcc/arm-eabi/10.3.1/thumb/v7e-m/fpv4-sp/hard\libgcc.a(_dvmd_tls.o)
 .debug_line    0x00000000000070e4      0x149 c:/gnat/2021-arm-elf/bin/../lib/gcc/arm-eabi/10.3.1/../../../../arm-eabi/lib/thumb/v7e-m/fpv4-sp/hard\libc.a(lib_a-errno.o)

.debug_frame    0x0000000000000000     0x1e28
 *(.debug_frame)
 .debug_frame   0x0000000000000000       0x38 C:\gnat\2021-arm-elf\arm-eabi\lib\gnat\ravenscar-full-nrf52833\adalib\libgnarl.a(s-tasdeb.o)
 .debug_frame   0x0000000000000038     0x1044 C:\gnat\2021-arm-elf\arm-eabi\lib\gnat\ravenscar-full-nrf52833\adalib\libgnat.a(a-except.o)
 .debug_frame   0x000000000000107c      0x518 C:\gnat\2021-arm-elf\arm-eabi\lib\gnat\ravenscar-full-nrf52833\adalib\libgnat.a(a-tags.o)
 .debug_frame   0x0000000000001594       0xa8 C:\gnat\2021-arm-elf\arm-eabi\lib\gnat\ravenscar-full-nrf52833\adalib\libgnat.a(s-excdeb.o)
 .debug_frame   0x000000000000163c       0x84 C:\gnat\2021-arm-elf\arm-eabi\lib\gnat\ravenscar-full-nrf52833\adalib\libgnat.a(s-traceb.o)
 .debug_frame   0x00000000000016c0       0x30 c:/gnat/2021-arm-elf/bin/../lib/gcc/arm-eabi/10.3.1/../../../../arm-eabi/lib/thumb/v7e-m/fpv4-sp/hard\libc.a(lib_a-malloc.o)
 .debug_frame   0x00000000000016f0       0x4c c:/gnat/2021-arm-elf/bin/../lib/gcc/arm-eabi/10.3.1/../../../../arm-eabi/lib/thumb/v7e-m/fpv4-sp/hard\libc.a(lib_a-mallocr.o)
 .debug_frame   0x000000000000173c       0x2c c:/gnat/2021-arm-elf/bin/../lib/gcc/arm-eabi/10.3.1/../../../../arm-eabi/lib/thumb/v7e-m/fpv4-sp/hard\libc.a(lib_a-memcmp.o)
 .debug_frame   0x0000000000001768       0x40 c:/gnat/2021-arm-elf/bin/../lib/gcc/arm-eabi/10.3.1/../../../../arm-eabi/lib/thumb/v7e-m/fpv4-sp/hard\libc.a(lib_a-memmove.o)
 .debug_frame   0x00000000000017a8       0x2c c:/gnat/2021-arm-elf/bin/../lib/gcc/arm-eabi/10.3.1/../../../../arm-eabi/lib/thumb/v7e-m/fpv4-sp/hard\libc.a(lib_a-memset.o)
 .debug_frame   0x00000000000017d4       0x30 c:/gnat/2021-arm-elf/bin/../lib/gcc/arm-eabi/10.3.1/../../../../arm-eabi/lib/thumb/v7e-m/fpv4-sp/hard\libc.a(lib_a-mlock.o)
 .debug_frame   0x0000000000001804       0x2c c:/gnat/2021-arm-elf/bin/../lib/gcc/arm-eabi/10.3.1/../../../../arm-eabi/lib/thumb/v7e-m/fpv4-sp/hard\libc.a(lib_a-realloc.o)
 .debug_frame   0x0000000000001830       0x48 c:/gnat/2021-arm-elf/bin/../lib/gcc/arm-eabi/10.3.1/../../../../arm-eabi/lib/thumb/v7e-m/fpv4-sp/hard\libc.a(lib_a-reallocr.o)
 .debug_frame   0x0000000000001878       0x2c c:/gnat/2021-arm-elf/bin/../lib/gcc/arm-eabi/10.3.1/../../../../arm-eabi/lib/thumb/v7e-m/fpv4-sp/hard\libc.a(lib_a-sbrkr.o)
 .debug_frame   0x00000000000018a4       0x8c c:/gnat/2021-arm-elf/bin/../lib/gcc/arm-eabi/10.3.1/../../../../arm-eabi/lib/thumb/v7e-m/fpv4-sp/hard\libc.a(lib_a-freer.o)
 .debug_frame   0x0000000000001930       0x64 c:/gnat/2021-arm-elf/bin/../lib/gcc/arm-eabi/10.3.1/../../../../arm-eabi/lib/thumb/v7e-m/fpv4-sp/hard\libc.a(lib_a-reent.o)
 .debug_frame   0x0000000000001994       0x44 c:/gnat/2021-arm-elf/bin/../lib/gcc/arm-eabi/10.3.1/thumb/v7e-m/fpv4-sp/hard\libgcc.a(_aeabi_ldivmod.o)
 .debug_frame   0x00000000000019d8       0x2c c:/gnat/2021-arm-elf/bin/../lib/gcc/arm-eabi/10.3.1/thumb/v7e-m/fpv4-sp/hard\libgcc.a(_aeabi_uldivmod.o)
 .debug_frame   0x0000000000001a04       0x34 c:/gnat/2021-arm-elf/bin/../lib/gcc/arm-eabi/10.3.1/thumb/v7e-m/fpv4-sp/hard\libgcc.a(_udivmoddi4.o)
 .debug_frame   0x0000000000001a38      0x2cc c:/gnat/2021-arm-elf/bin/../lib/gcc/arm-eabi/10.3.1/thumb/v7e-m/fpv4-sp/hard\libgcc.a(unwind-arm.o)
 .debug_frame   0x0000000000001d04      0x104 c:/gnat/2021-arm-elf/bin/../lib/gcc/arm-eabi/10.3.1/thumb/v7e-m/fpv4-sp/hard\libgcc.a(pr-support.o)
 .debug_frame   0x0000000000001e08       0x20 c:/gnat/2021-arm-elf/bin/../lib/gcc/arm-eabi/10.3.1/../../../../arm-eabi/lib/thumb/v7e-m/fpv4-sp/hard\libc.a(lib_a-errno.o)

.debug_str      0x0000000000000000     0xc039
 *(.debug_str)
 .debug_str     0x0000000000000000     0x10b6 C:\gnat\2021-arm-elf\arm-eabi\lib\gnat\ravenscar-full-nrf52833\adalib\libgnarl.a(s-tasdeb.o)
                                       0x1127 (size before relaxing)
 .debug_str     0x00000000000010b6     0x6435 C:\gnat\2021-arm-elf\arm-eabi\lib\gnat\ravenscar-full-nrf52833\adalib\libgnat.a(a-except.o)
                                       0x6930 (size before relaxing)
 .debug_str     0x00000000000074eb     0x2457 C:\gnat\2021-arm-elf\arm-eabi\lib\gnat\ravenscar-full-nrf52833\adalib\libgnat.a(a-tags.o)
                                       0x2a14 (size before relaxing)
 .debug_str     0x0000000000009942      0x2f2 C:\gnat\2021-arm-elf\arm-eabi\lib\gnat\ravenscar-full-nrf52833\adalib\libgnat.a(s-excdeb.o)
                                        0x56c (size before relaxing)
 .debug_str     0x0000000000009c34      0x6ce C:\gnat\2021-arm-elf\arm-eabi\lib\gnat\ravenscar-full-nrf52833\adalib\libgnat.a(s-traceb.o)
                                        0x8a6 (size before relaxing)
 .debug_str     0x000000000000a302      0x51c c:/gnat/2021-arm-elf/bin/../lib/gcc/arm-eabi/10.3.1/../../../../arm-eabi/lib/thumb/v7e-m/fpv4-sp/hard\libc.a(lib_a-malloc.o)
                                        0x5be (size before relaxing)
 .debug_str     0x000000000000a81e      0x228 c:/gnat/2021-arm-elf/bin/../lib/gcc/arm-eabi/10.3.1/../../../../arm-eabi/lib/thumb/v7e-m/fpv4-sp/hard\libc.a(lib_a-mallocr.o)
                                        0x7b9 (size before relaxing)
 .debug_str     0x000000000000aa46       0xaa c:/gnat/2021-arm-elf/bin/../lib/gcc/arm-eabi/10.3.1/../../../../arm-eabi/lib/thumb/v7e-m/fpv4-sp/hard\libc.a(lib_a-memcmp.o)
                                        0x1d9 (size before relaxing)
 .debug_str     0x000000000000aaf0       0xcd c:/gnat/2021-arm-elf/bin/../lib/gcc/arm-eabi/10.3.1/../../../../arm-eabi/lib/thumb/v7e-m/fpv4-sp/hard\libc.a(lib_a-memcpy.o)
 .debug_str     0x000000000000abbd       0x66 c:/gnat/2021-arm-elf/bin/../lib/gcc/arm-eabi/10.3.1/../../../../arm-eabi/lib/thumb/v7e-m/fpv4-sp/hard\libc.a(lib_a-memmove.o)
                                        0x20c (size before relaxing)
 .debug_str     0x000000000000ac23       0x48 c:/gnat/2021-arm-elf/bin/../lib/gcc/arm-eabi/10.3.1/../../../../arm-eabi/lib/thumb/v7e-m/fpv4-sp/hard\libc.a(lib_a-memset.o)
                                        0x1ed (size before relaxing)
 .debug_str     0x000000000000ac6b       0x4f c:/gnat/2021-arm-elf/bin/../lib/gcc/arm-eabi/10.3.1/../../../../arm-eabi/lib/thumb/v7e-m/fpv4-sp/hard\libc.a(lib_a-mlock.o)
                                        0x5b3 (size before relaxing)
 .debug_str     0x000000000000acba       0x4f c:/gnat/2021-arm-elf/bin/../lib/gcc/arm-eabi/10.3.1/../../../../arm-eabi/lib/thumb/v7e-m/fpv4-sp/hard\libc.a(lib_a-realloc.o)
                                        0x5af (size before relaxing)
 .debug_str     0x000000000000ad09       0x51 c:/gnat/2021-arm-elf/bin/../lib/gcc/arm-eabi/10.3.1/../../../../arm-eabi/lib/thumb/v7e-m/fpv4-sp/hard\libc.a(lib_a-reallocr.o)
                                        0x68b (size before relaxing)
 .debug_str     0x000000000000ad5a       0xb1 c:/gnat/2021-arm-elf/bin/../lib/gcc/arm-eabi/10.3.1/../../../../arm-eabi/lib/thumb/v7e-m/fpv4-sp/hard\libc.a(lib_a-sbrkr.o)
                                        0x5a0 (size before relaxing)
 .debug_str     0x000000000000ae0b       0x34 c:/gnat/2021-arm-elf/bin/../lib/gcc/arm-eabi/10.3.1/../../../../arm-eabi/lib/thumb/v7e-m/fpv4-sp/hard\libc.a(lib_a-freer.o)
                                        0x703 (size before relaxing)
 .debug_str     0x000000000000ae3f       0x59 c:/gnat/2021-arm-elf/bin/../lib/gcc/arm-eabi/10.3.1/../../../../arm-eabi/lib/thumb/v7e-m/fpv4-sp/hard\libc.a(lib_a-impure.o)
                                        0x5aa (size before relaxing)
 .debug_str     0x000000000000ae98       0x65 c:/gnat/2021-arm-elf/bin/../lib/gcc/arm-eabi/10.3.1/../../../../arm-eabi/lib/thumb/v7e-m/fpv4-sp/hard\libc.a(lib_a-reent.o)
                                        0x5c9 (size before relaxing)
 .debug_str     0x000000000000aefd       0x87 c:/gnat/2021-arm-elf/bin/../lib/gcc/arm-eabi/10.3.1/thumb/v7e-m/fpv4-sp/hard\libgcc.a(_aeabi_ldivmod.o)
                                         0x96 (size before relaxing)
 .debug_str     0x000000000000af84       0x96 c:/gnat/2021-arm-elf/bin/../lib/gcc/arm-eabi/10.3.1/thumb/v7e-m/fpv4-sp/hard\libgcc.a(_aeabi_uldivmod.o)
 .debug_str     0x000000000000af84      0x55f c:/gnat/2021-arm-elf/bin/../lib/gcc/arm-eabi/10.3.1/thumb/v7e-m/fpv4-sp/hard\libgcc.a(_udivmoddi4.o)
                                        0x64d (size before relaxing)
 .debug_str     0x000000000000b4e3      0x953 c:/gnat/2021-arm-elf/bin/../lib/gcc/arm-eabi/10.3.1/thumb/v7e-m/fpv4-sp/hard\libgcc.a(unwind-arm.o)
                                        0xc60 (size before relaxing)
 .debug_str     0x000000000000be36       0x37 c:/gnat/2021-arm-elf/bin/../lib/gcc/arm-eabi/10.3.1/thumb/v7e-m/fpv4-sp/hard\libgcc.a(libunwind.o)
                                         0x9a (size before relaxing)
 .debug_str     0x000000000000be6d       0xe6 c:/gnat/2021-arm-elf/bin/../lib/gcc/arm-eabi/10.3.1/thumb/v7e-m/fpv4-sp/hard\libgcc.a(pr-support.o)
                                        0x5b3 (size before relaxing)
 .debug_str     0x000000000000bf53       0x37 c:/gnat/2021-arm-elf/bin/../lib/gcc/arm-eabi/10.3.1/thumb/v7e-m/fpv4-sp/hard\libgcc.a(_dvmd_tls.o)
                                         0x9a (size before relaxing)
 .debug_str     0x000000000000bf8a       0xaf c:/gnat/2021-arm-elf/bin/../lib/gcc/arm-eabi/10.3.1/../../../../arm-eabi/lib/thumb/v7e-m/fpv4-sp/hard\libc.a(lib_a-errno.o)
                                        0x592 (size before relaxing)

.debug_loc      0x0000000000000000     0xcedc
 *(.debug_loc)
 .debug_loc     0x0000000000000000     0x3add C:\gnat\2021-arm-elf\arm-eabi\lib\gnat\ravenscar-full-nrf52833\adalib\libgnat.a(a-except.o)
 .debug_loc     0x0000000000003add     0x27d7 C:\gnat\2021-arm-elf\arm-eabi\lib\gnat\ravenscar-full-nrf52833\adalib\libgnat.a(a-tags.o)
 .debug_loc     0x00000000000062b4      0x217 C:\gnat\2021-arm-elf\arm-eabi\lib\gnat\ravenscar-full-nrf52833\adalib\libgnat.a(s-traceb.o)
 .debug_loc     0x00000000000064cb       0x64 c:/gnat/2021-arm-elf/bin/../lib/gcc/arm-eabi/10.3.1/../../../../arm-eabi/lib/thumb/v7e-m/fpv4-sp/hard\libc.a(lib_a-malloc.o)
 .debug_loc     0x000000000000652f      0xeb9 c:/gnat/2021-arm-elf/bin/../lib/gcc/arm-eabi/10.3.1/../../../../arm-eabi/lib/thumb/v7e-m/fpv4-sp/hard\libc.a(lib_a-mallocr.o)
 .debug_loc     0x00000000000073e8      0x1db c:/gnat/2021-arm-elf/bin/../lib/gcc/arm-eabi/10.3.1/../../../../arm-eabi/lib/thumb/v7e-m/fpv4-sp/hard\libc.a(lib_a-memcmp.o)
 .debug_loc     0x00000000000075c3      0x377 c:/gnat/2021-arm-elf/bin/../lib/gcc/arm-eabi/10.3.1/../../../../arm-eabi/lib/thumb/v7e-m/fpv4-sp/hard\libc.a(lib_a-memmove.o)
 .debug_loc     0x000000000000793a      0x1f4 c:/gnat/2021-arm-elf/bin/../lib/gcc/arm-eabi/10.3.1/../../../../arm-eabi/lib/thumb/v7e-m/fpv4-sp/hard\libc.a(lib_a-memset.o)
 .debug_loc     0x0000000000007b2e       0x64 c:/gnat/2021-arm-elf/bin/../lib/gcc/arm-eabi/10.3.1/../../../../arm-eabi/lib/thumb/v7e-m/fpv4-sp/hard\libc.a(lib_a-realloc.o)
 .debug_loc     0x0000000000007b92     0x17b5 c:/gnat/2021-arm-elf/bin/../lib/gcc/arm-eabi/10.3.1/../../../../arm-eabi/lib/thumb/v7e-m/fpv4-sp/hard\libc.a(lib_a-reallocr.o)
 .debug_loc     0x0000000000009347       0x6c c:/gnat/2021-arm-elf/bin/../lib/gcc/arm-eabi/10.3.1/../../../../arm-eabi/lib/thumb/v7e-m/fpv4-sp/hard\libc.a(lib_a-sbrkr.o)
 .debug_loc     0x00000000000093b3      0x675 c:/gnat/2021-arm-elf/bin/../lib/gcc/arm-eabi/10.3.1/../../../../arm-eabi/lib/thumb/v7e-m/fpv4-sp/hard\libc.a(lib_a-freer.o)
 .debug_loc     0x0000000000009a28      0x23e c:/gnat/2021-arm-elf/bin/../lib/gcc/arm-eabi/10.3.1/../../../../arm-eabi/lib/thumb/v7e-m/fpv4-sp/hard\libc.a(lib_a-reent.o)
 .debug_loc     0x0000000000009c66      0xfd4 c:/gnat/2021-arm-elf/bin/../lib/gcc/arm-eabi/10.3.1/thumb/v7e-m/fpv4-sp/hard\libgcc.a(_udivmoddi4.o)
 .debug_loc     0x000000000000ac3a     0x1c60 c:/gnat/2021-arm-elf/bin/../lib/gcc/arm-eabi/10.3.1/thumb/v7e-m/fpv4-sp/hard\libgcc.a(unwind-arm.o)
 .debug_loc     0x000000000000c89a      0x642 c:/gnat/2021-arm-elf/bin/../lib/gcc/arm-eabi/10.3.1/thumb/v7e-m/fpv4-sp/hard\libgcc.a(pr-support.o)

.debug_macinfo
 *(.debug_macinfo)

.debug_pubtypes
 *(.debug_pubtypes)

.debug_ranges   0x0000000000000000      0xcf0
 *(.debug_ranges)
 .debug_ranges  0x0000000000000000       0x10 C:\gnat\2021-arm-elf\arm-eabi\lib\gnat\ravenscar-full-nrf52833\adalib\libgnarl.a(s-tasdeb.o)
 .debug_ranges  0x0000000000000010      0x4c8 C:\gnat\2021-arm-elf\arm-eabi\lib\gnat\ravenscar-full-nrf52833\adalib\libgnat.a(a-except.o)
 .debug_ranges  0x00000000000004d8      0x380 C:\gnat\2021-arm-elf\arm-eabi\lib\gnat\ravenscar-full-nrf52833\adalib\libgnat.a(a-tags.o)
 .debug_ranges  0x0000000000000858       0x28 C:\gnat\2021-arm-elf\arm-eabi\lib\gnat\ravenscar-full-nrf52833\adalib\libgnat.a(s-excdeb.o)
 .debug_ranges  0x0000000000000880       0x48 C:\gnat\2021-arm-elf\arm-eabi\lib\gnat\ravenscar-full-nrf52833\adalib\libgnat.a(s-traceb.o)
 .debug_ranges  0x00000000000008c8       0x50 c:/gnat/2021-arm-elf/bin/../lib/gcc/arm-eabi/10.3.1/../../../../arm-eabi/lib/thumb/v7e-m/fpv4-sp/hard\libc.a(lib_a-mallocr.o)
 .debug_ranges  0x0000000000000918      0x1d0 c:/gnat/2021-arm-elf/bin/../lib/gcc/arm-eabi/10.3.1/../../../../arm-eabi/lib/thumb/v7e-m/fpv4-sp/hard\libc.a(lib_a-reallocr.o)
 .debug_ranges  0x0000000000000ae8       0x18 c:/gnat/2021-arm-elf/bin/../lib/gcc/arm-eabi/10.3.1/../../../../arm-eabi/lib/thumb/v7e-m/fpv4-sp/hard\libc.a(lib_a-reent.o)
 .debug_ranges  0x0000000000000b00       0xf0 c:/gnat/2021-arm-elf/bin/../lib/gcc/arm-eabi/10.3.1/thumb/v7e-m/fpv4-sp/hard\libgcc.a(_udivmoddi4.o)
 .debug_ranges  0x0000000000000bf0       0xe8 c:/gnat/2021-arm-elf/bin/../lib/gcc/arm-eabi/10.3.1/thumb/v7e-m/fpv4-sp/hard\libgcc.a(unwind-arm.o)
 .debug_ranges  0x0000000000000cd8       0x18 c:/gnat/2021-arm-elf/bin/../lib/gcc/arm-eabi/10.3.1/thumb/v7e-m/fpv4-sp/hard\libgcc.a(pr-support.o)

.comment        0x0000000000000000       0x3e
 .comment       0x0000000000000000       0x3e test.o
                                         0x3f (size before relaxing)
 .comment       0x000000000000003e       0x3f b__test.o
 .comment       0x000000000000003e       0x3f C:\Users\Stigen\Documents\GitHub\ADA-project\CarProject\obj\tasking.o
 .comment       0x000000000000003e       0x3f C:\gnat\2021-arm-elf\arm-eabi\lib\gnat\ravenscar-full-nrf52833\adalib\libgnarl.a(a-reatim.o)
 .comment       0x000000000000003e       0x3f C:\gnat\2021-arm-elf\arm-eabi\lib\gnat\ravenscar-full-nrf52833\adalib\libgnarl.a(a-retide.o)
 .comment       0x000000000000003e       0x3f C:\gnat\2021-arm-elf\arm-eabi\lib\gnat\ravenscar-full-nrf52833\adalib\libgnarl.a(s-bbbosu.o)
 .comment       0x000000000000003e       0x3f C:\gnat\2021-arm-elf\arm-eabi\lib\gnat\ravenscar-full-nrf52833\adalib\libgnarl.a(s-bbcppr.o)
 .comment       0x000000000000003e       0x3f C:\gnat\2021-arm-elf\arm-eabi\lib\gnat\ravenscar-full-nrf52833\adalib\libgnarl.a(s-bbinte.o)
 .comment       0x000000000000003e       0x3f C:\gnat\2021-arm-elf\arm-eabi\lib\gnat\ravenscar-full-nrf52833\adalib\libgnarl.a(s-bbthqu.o)
 .comment       0x000000000000003e       0x3f C:\gnat\2021-arm-elf\arm-eabi\lib\gnat\ravenscar-full-nrf52833\adalib\libgnarl.a(s-bbtiev.o)
 .comment       0x000000000000003e       0x3f C:\gnat\2021-arm-elf\arm-eabi\lib\gnat\ravenscar-full-nrf52833\adalib\libgnarl.a(s-bbtime.o)
 .comment       0x000000000000003e       0x3f C:\gnat\2021-arm-elf\arm-eabi\lib\gnat\ravenscar-full-nrf52833\adalib\libgnarl.a(s-bcpcst.o)
 .comment       0x000000000000003e       0x3f C:\gnat\2021-arm-elf\arm-eabi\lib\gnat\ravenscar-full-nrf52833\adalib\libgnarl.a(s-tarest.o)
 .comment       0x000000000000003e       0x3f C:\gnat\2021-arm-elf\arm-eabi\lib\gnat\ravenscar-full-nrf52833\adalib\libgnarl.a(s-tasdeb.o)
 .comment       0x000000000000003e       0x3f C:\gnat\2021-arm-elf\arm-eabi\lib\gnat\ravenscar-full-nrf52833\adalib\libgnarl.a(s-taskin.o)
 .comment       0x000000000000003e       0x3f C:\gnat\2021-arm-elf\arm-eabi\lib\gnat\ravenscar-full-nrf52833\adalib\libgnarl.a(s-bbprot.o)
 .comment       0x000000000000003e       0x3f C:\gnat\2021-arm-elf\arm-eabi\lib\gnat\ravenscar-full-nrf52833\adalib\libgnarl.a(s-bbthre.o)
 .comment       0x000000000000003e       0x3f C:\gnat\2021-arm-elf\arm-eabi\lib\gnat\ravenscar-full-nrf52833\adalib\libgnarl.a(s-taprop.o)
 .comment       0x000000000000003e       0x3f C:\gnat\2021-arm-elf\arm-eabi\lib\gnat\ravenscar-full-nrf52833\adalib\libgnat.a(a-except.o)
 .comment       0x000000000000003e       0x3f C:\gnat\2021-arm-elf\arm-eabi\lib\gnat\ravenscar-full-nrf52833\adalib\libgnat.a(a-sttebu.o)
 .comment       0x000000000000003e       0x3f C:\gnat\2021-arm-elf\arm-eabi\lib\gnat\ravenscar-full-nrf52833\adalib\libgnat.a(a-tags.o)
 .comment       0x000000000000003e       0x3f C:\gnat\2021-arm-elf\arm-eabi\lib\gnat\ravenscar-full-nrf52833\adalib\libgnat.a(a-textio.o)
 .comment       0x000000000000003e       0x3f C:\gnat\2021-arm-elf\arm-eabi\lib\gnat\ravenscar-full-nrf52833\adalib\libgnat.a(adaint-xi.o)
 .comment       0x000000000000003e       0x3f C:\gnat\2021-arm-elf\arm-eabi\lib\gnat\ravenscar-full-nrf52833\adalib\libgnat.a(raise-gcc.o)
 .comment       0x000000000000003e       0x3f C:\gnat\2021-arm-elf\arm-eabi\lib\gnat\ravenscar-full-nrf52833\adalib\libgnat.a(s-excdeb.o)
 .comment       0x000000000000003e       0x3f C:\gnat\2021-arm-elf\arm-eabi\lib\gnat\ravenscar-full-nrf52833\adalib\libgnat.a(s-except.o)
 .comment       0x000000000000003e       0x3f C:\gnat\2021-arm-elf\arm-eabi\lib\gnat\ravenscar-full-nrf52833\adalib\libgnat.a(s-excmac.o)
 .comment       0x000000000000003e       0x3f C:\gnat\2021-arm-elf\arm-eabi\lib\gnat\ravenscar-full-nrf52833\adalib\libgnat.a(s-exctab.o)
 .comment       0x000000000000003e       0x3f C:\gnat\2021-arm-elf\arm-eabi\lib\gnat\ravenscar-full-nrf52833\adalib\libgnat.a(s-imgint.o)
 .comment       0x000000000000003e       0x3f C:\gnat\2021-arm-elf\arm-eabi\lib\gnat\ravenscar-full-nrf52833\adalib\libgnat.a(s-init.o)
 .comment       0x000000000000003e       0x3f C:\gnat\2021-arm-elf\arm-eabi\lib\gnat\ravenscar-full-nrf52833\adalib\libgnat.a(s-io.o)
 .comment       0x000000000000003e       0x3f C:\gnat\2021-arm-elf\arm-eabi\lib\gnat\ravenscar-full-nrf52833\adalib\libgnat.a(s-macres.o)
 .comment       0x000000000000003e       0x3f C:\gnat\2021-arm-elf\arm-eabi\lib\gnat\ravenscar-full-nrf52833\adalib\libgnat.a(s-memory.o)
 .comment       0x000000000000003e       0x3f C:\gnat\2021-arm-elf\arm-eabi\lib\gnat\ravenscar-full-nrf52833\adalib\libgnat.a(s-parame.o)
 .comment       0x000000000000003e       0x3f C:\gnat\2021-arm-elf\arm-eabi\lib\gnat\ravenscar-full-nrf52833\adalib\libgnat.a(s-putima.o)
 .comment       0x000000000000003e       0x3f C:\gnat\2021-arm-elf\arm-eabi\lib\gnat\ravenscar-full-nrf52833\adalib\libgnat.a(s-secsta.o)
 .comment       0x000000000000003e       0x3f C:\gnat\2021-arm-elf\arm-eabi\lib\gnat\ravenscar-full-nrf52833\adalib\libgnat.a(s-soflin.o)
 .comment       0x000000000000003e       0x3f C:\gnat\2021-arm-elf\arm-eabi\lib\gnat\ravenscar-full-nrf52833\adalib\libgnat.a(s-stalib.o)
 .comment       0x000000000000003e       0x3f C:\gnat\2021-arm-elf\arm-eabi\lib\gnat\ravenscar-full-nrf52833\adalib\libgnat.a(s-textio.o)
 .comment       0x000000000000003e       0x3f C:\gnat\2021-arm-elf\arm-eabi\lib\gnat\ravenscar-full-nrf52833\adalib\libgnat.a(s-traceb.o)
 .comment       0x000000000000003e       0x3f C:\gnat\2021-arm-elf\arm-eabi\lib\gnat\ravenscar-full-nrf52833\adalib\libgnat.a(s-traent.o)
 .comment       0x000000000000003e       0x3f C:\gnat\2021-arm-elf\arm-eabi\lib\gnat\ravenscar-full-nrf52833\adalib\libgnat.a(s-valuns.o)
 .comment       0x000000000000003e       0x3f C:\gnat\2021-arm-elf\arm-eabi\lib\gnat\ravenscar-full-nrf52833\adalib\libgnat.a(s-valuti.o)
 .comment       0x000000000000003e       0x3f C:\gnat\2021-arm-elf\arm-eabi\lib\gnat\ravenscar-full-nrf52833\adalib\libgnat.a(s-wchcon.o)
 .comment       0x000000000000003e       0x3f C:\gnat\2021-arm-elf\arm-eabi\lib\gnat\ravenscar-full-nrf52833\adalib\libgnat.a(s-wchstw.o)
 .comment       0x000000000000003e       0x3f C:\gnat\2021-arm-elf\arm-eabi\lib\gnat\ravenscar-full-nrf52833\adalib\libgnat.a(a-elchha.o)
 .comment       0x000000000000003e       0x3f C:\gnat\2021-arm-elf\arm-eabi\lib\gnat\ravenscar-full-nrf52833\adalib\libgnat.a(a-stbuut.o)
 .comment       0x000000000000003e       0x3f C:\gnat\2021-arm-elf\arm-eabi\lib\gnat\ravenscar-full-nrf52833\adalib\libgnat.a(a-suezst.o)
 .comment       0x000000000000003e       0x3f C:\gnat\2021-arm-elf\arm-eabi\lib\gnat\ravenscar-full-nrf52833\adalib\libgnat.a(g-debuti.o)
 .comment       0x000000000000003e       0x3f C:\gnat\2021-arm-elf\arm-eabi\lib\gnat\ravenscar-full-nrf52833\adalib\libgnat.a(s-casuti.o)
 .comment       0x000000000000003e       0x3f C:\gnat\2021-arm-elf\arm-eabi\lib\gnat\ravenscar-full-nrf52833\adalib\libgnat.a(s-wchjis.o)
 .comment       0x000000000000003e       0x3f C:\gnat\2021-arm-elf\arm-eabi\lib\gnat\ravenscar-full-nrf52833\adalib\libgnat.a(setup_board.o)
 .comment       0x000000000000003e       0x3f C:\gnat\2021-arm-elf\arm-eabi\lib\gnat\ravenscar-full-nrf52833\adalib\libgnat.a(a-stuten.o)
 .comment       0x000000000000003e       0x3f c:/gnat/2021-arm-elf/bin/../lib/gcc/arm-eabi/10.3.1/../../../../arm-eabi/lib/thumb/v7e-m/fpv4-sp/hard\libc.a(lib_a-malloc.o)
 .comment       0x000000000000003e       0x3f c:/gnat/2021-arm-elf/bin/../lib/gcc/arm-eabi/10.3.1/../../../../arm-eabi/lib/thumb/v7e-m/fpv4-sp/hard\libc.a(lib_a-mallocr.o)
 .comment       0x000000000000003e       0x3f c:/gnat/2021-arm-elf/bin/../lib/gcc/arm-eabi/10.3.1/../../../../arm-eabi/lib/thumb/v7e-m/fpv4-sp/hard\libc.a(lib_a-memcmp.o)
 .comment       0x000000000000003e       0x3f c:/gnat/2021-arm-elf/bin/../lib/gcc/arm-eabi/10.3.1/../../../../arm-eabi/lib/thumb/v7e-m/fpv4-sp/hard\libc.a(lib_a-memmove.o)
 .comment       0x000000000000003e       0x3f c:/gnat/2021-arm-elf/bin/../lib/gcc/arm-eabi/10.3.1/../../../../arm-eabi/lib/thumb/v7e-m/fpv4-sp/hard\libc.a(lib_a-memset.o)
 .comment       0x000000000000003e       0x3f c:/gnat/2021-arm-elf/bin/../lib/gcc/arm-eabi/10.3.1/../../../../arm-eabi/lib/thumb/v7e-m/fpv4-sp/hard\libc.a(lib_a-mlock.o)
 .comment       0x000000000000003e       0x3f c:/gnat/2021-arm-elf/bin/../lib/gcc/arm-eabi/10.3.1/../../../../arm-eabi/lib/thumb/v7e-m/fpv4-sp/hard\libc.a(lib_a-realloc.o)
 .comment       0x000000000000003e       0x3f c:/gnat/2021-arm-elf/bin/../lib/gcc/arm-eabi/10.3.1/../../../../arm-eabi/lib/thumb/v7e-m/fpv4-sp/hard\libc.a(lib_a-reallocr.o)
 .comment       0x000000000000003e       0x3f c:/gnat/2021-arm-elf/bin/../lib/gcc/arm-eabi/10.3.1/../../../../arm-eabi/lib/thumb/v7e-m/fpv4-sp/hard\libc.a(lib_a-sbrkr.o)
 .comment       0x000000000000003e       0x3f c:/gnat/2021-arm-elf/bin/../lib/gcc/arm-eabi/10.3.1/../../../../arm-eabi/lib/thumb/v7e-m/fpv4-sp/hard\libc.a(lib_a-freer.o)
 .comment       0x000000000000003e       0x3f c:/gnat/2021-arm-elf/bin/../lib/gcc/arm-eabi/10.3.1/../../../../arm-eabi/lib/thumb/v7e-m/fpv4-sp/hard\libc.a(lib_a-impure.o)
 .comment       0x000000000000003e       0x3f c:/gnat/2021-arm-elf/bin/../lib/gcc/arm-eabi/10.3.1/../../../../arm-eabi/lib/thumb/v7e-m/fpv4-sp/hard\libc.a(lib_a-reent.o)
 .comment       0x000000000000003e       0x3f C:\gnat\2021-arm-elf\arm-eabi\lib\gnat\ravenscar-full-nrf52833\adalib\\libgnat.a(newlib-bb.o)
 .comment       0x000000000000003e       0x3f c:/gnat/2021-arm-elf/bin/../lib/gcc/arm-eabi/10.3.1/thumb/v7e-m/fpv4-sp/hard\libgcc.a(_udivmoddi4.o)
 .comment       0x000000000000003e       0x3f c:/gnat/2021-arm-elf/bin/../lib/gcc/arm-eabi/10.3.1/thumb/v7e-m/fpv4-sp/hard\libgcc.a(unwind-arm.o)
 .comment       0x000000000000003e       0x3f c:/gnat/2021-arm-elf/bin/../lib/gcc/arm-eabi/10.3.1/thumb/v7e-m/fpv4-sp/hard\libgcc.a(pr-support.o)
 .comment       0x000000000000003e       0x3f c:/gnat/2021-arm-elf/bin/../lib/gcc/arm-eabi/10.3.1/../../../../arm-eabi/lib/thumb/v7e-m/fpv4-sp/hard\libc.a(lib_a-errno.o)

.ARM.attributes
                0x0000000000000000       0x32
 .ARM.attributes
                0x0000000000000000       0x32 test.o
 .ARM.attributes
                0x0000000000000032       0x32 b__test.o
 .ARM.attributes
                0x0000000000000064       0x32 C:\Users\Stigen\Documents\GitHub\ADA-project\CarProject\obj\tasking.o
 .ARM.attributes
                0x0000000000000096       0x32 C:\gnat\2021-arm-elf\arm-eabi\lib\gnat\ravenscar-full-nrf52833\adalib\libgnarl.a(a-reatim.o)
 .ARM.attributes
                0x00000000000000c8       0x32 C:\gnat\2021-arm-elf\arm-eabi\lib\gnat\ravenscar-full-nrf52833\adalib\libgnarl.a(a-retide.o)
 .ARM.attributes
                0x00000000000000fa       0x32 C:\gnat\2021-arm-elf\arm-eabi\lib\gnat\ravenscar-full-nrf52833\adalib\libgnarl.a(s-bbbosu.o)
 .ARM.attributes
                0x000000000000012c       0x32 C:\gnat\2021-arm-elf\arm-eabi\lib\gnat\ravenscar-full-nrf52833\adalib\libgnarl.a(s-bbcppr.o)
 .ARM.attributes
                0x000000000000015e       0x32 C:\gnat\2021-arm-elf\arm-eabi\lib\gnat\ravenscar-full-nrf52833\adalib\libgnarl.a(s-bbinte.o)
 .ARM.attributes
                0x0000000000000190       0x32 C:\gnat\2021-arm-elf\arm-eabi\lib\gnat\ravenscar-full-nrf52833\adalib\libgnarl.a(s-bbthqu.o)
 .ARM.attributes
                0x00000000000001c2       0x32 C:\gnat\2021-arm-elf\arm-eabi\lib\gnat\ravenscar-full-nrf52833\adalib\libgnarl.a(s-bbtiev.o)
 .ARM.attributes
                0x00000000000001f4       0x32 C:\gnat\2021-arm-elf\arm-eabi\lib\gnat\ravenscar-full-nrf52833\adalib\libgnarl.a(s-bbtime.o)
 .ARM.attributes
                0x0000000000000226       0x32 C:\gnat\2021-arm-elf\arm-eabi\lib\gnat\ravenscar-full-nrf52833\adalib\libgnarl.a(s-bcpcst.o)
 .ARM.attributes
                0x0000000000000258       0x32 C:\gnat\2021-arm-elf\arm-eabi\lib\gnat\ravenscar-full-nrf52833\adalib\libgnarl.a(s-tarest.o)
 .ARM.attributes
                0x000000000000028a       0x32 C:\gnat\2021-arm-elf\arm-eabi\lib\gnat\ravenscar-full-nrf52833\adalib\libgnarl.a(s-tasdeb.o)
 .ARM.attributes
                0x00000000000002bc       0x32 C:\gnat\2021-arm-elf\arm-eabi\lib\gnat\ravenscar-full-nrf52833\adalib\libgnarl.a(s-taskin.o)
 .ARM.attributes
                0x00000000000002ee       0x32 C:\gnat\2021-arm-elf\arm-eabi\lib\gnat\ravenscar-full-nrf52833\adalib\libgnarl.a(s-bbprot.o)
 .ARM.attributes
                0x0000000000000320       0x32 C:\gnat\2021-arm-elf\arm-eabi\lib\gnat\ravenscar-full-nrf52833\adalib\libgnarl.a(s-bbthre.o)
 .ARM.attributes
                0x0000000000000352       0x32 C:\gnat\2021-arm-elf\arm-eabi\lib\gnat\ravenscar-full-nrf52833\adalib\libgnarl.a(s-taprop.o)
 .ARM.attributes
                0x0000000000000384       0x32 C:\gnat\2021-arm-elf\arm-eabi\lib\gnat\ravenscar-full-nrf52833\adalib\libgnat.a(a-except.o)
 .ARM.attributes
                0x00000000000003b6       0x32 C:\gnat\2021-arm-elf\arm-eabi\lib\gnat\ravenscar-full-nrf52833\adalib\libgnat.a(a-sttebu.o)
 .ARM.attributes
                0x00000000000003e8       0x32 C:\gnat\2021-arm-elf\arm-eabi\lib\gnat\ravenscar-full-nrf52833\adalib\libgnat.a(a-tags.o)
 .ARM.attributes
                0x000000000000041a       0x32 C:\gnat\2021-arm-elf\arm-eabi\lib\gnat\ravenscar-full-nrf52833\adalib\libgnat.a(a-textio.o)
 .ARM.attributes
                0x000000000000044c       0x34 C:\gnat\2021-arm-elf\arm-eabi\lib\gnat\ravenscar-full-nrf52833\adalib\libgnat.a(adaint-xi.o)
 .ARM.attributes
                0x0000000000000480       0x25 C:\gnat\2021-arm-elf\arm-eabi\lib\gnat\ravenscar-full-nrf52833\adalib\libgnat.a(handler.o)
 .ARM.attributes
                0x00000000000004a5       0x34 C:\gnat\2021-arm-elf\arm-eabi\lib\gnat\ravenscar-full-nrf52833\adalib\libgnat.a(raise-gcc.o)
 .ARM.attributes
                0x00000000000004d9       0x32 C:\gnat\2021-arm-elf\arm-eabi\lib\gnat\ravenscar-full-nrf52833\adalib\libgnat.a(s-excdeb.o)
 .ARM.attributes
                0x000000000000050b       0x37 C:\gnat\2021-arm-elf\arm-eabi\lib\gnat\ravenscar-full-nrf52833\adalib\libgnat.a(s-except.o)
 .ARM.attributes
                0x0000000000000542       0x32 C:\gnat\2021-arm-elf\arm-eabi\lib\gnat\ravenscar-full-nrf52833\adalib\libgnat.a(s-excmac.o)
 .ARM.attributes
                0x0000000000000574       0x32 C:\gnat\2021-arm-elf\arm-eabi\lib\gnat\ravenscar-full-nrf52833\adalib\libgnat.a(s-exctab.o)
 .ARM.attributes
                0x00000000000005a6       0x32 C:\gnat\2021-arm-elf\arm-eabi\lib\gnat\ravenscar-full-nrf52833\adalib\libgnat.a(s-imgint.o)
 .ARM.attributes
                0x00000000000005d8       0x32 C:\gnat\2021-arm-elf\arm-eabi\lib\gnat\ravenscar-full-nrf52833\adalib\libgnat.a(s-init.o)
 .ARM.attributes
                0x000000000000060a       0x32 C:\gnat\2021-arm-elf\arm-eabi\lib\gnat\ravenscar-full-nrf52833\adalib\libgnat.a(s-io.o)
 .ARM.attributes
                0x000000000000063c       0x32 C:\gnat\2021-arm-elf\arm-eabi\lib\gnat\ravenscar-full-nrf52833\adalib\libgnat.a(s-macres.o)
 .ARM.attributes
                0x000000000000066e       0x32 C:\gnat\2021-arm-elf\arm-eabi\lib\gnat\ravenscar-full-nrf52833\adalib\libgnat.a(s-memory.o)
 .ARM.attributes
                0x00000000000006a0       0x32 C:\gnat\2021-arm-elf\arm-eabi\lib\gnat\ravenscar-full-nrf52833\adalib\libgnat.a(s-parame.o)
 .ARM.attributes
                0x00000000000006d2       0x32 C:\gnat\2021-arm-elf\arm-eabi\lib\gnat\ravenscar-full-nrf52833\adalib\libgnat.a(s-putima.o)
 .ARM.attributes
                0x0000000000000704       0x32 C:\gnat\2021-arm-elf\arm-eabi\lib\gnat\ravenscar-full-nrf52833\adalib\libgnat.a(s-secsta.o)
 .ARM.attributes
                0x0000000000000736       0x32 C:\gnat\2021-arm-elf\arm-eabi\lib\gnat\ravenscar-full-nrf52833\adalib\libgnat.a(s-soflin.o)
 .ARM.attributes
                0x0000000000000768       0x32 C:\gnat\2021-arm-elf\arm-eabi\lib\gnat\ravenscar-full-nrf52833\adalib\libgnat.a(s-stalib.o)
 .ARM.attributes
                0x000000000000079a       0x32 C:\gnat\2021-arm-elf\arm-eabi\lib\gnat\ravenscar-full-nrf52833\adalib\libgnat.a(s-textio.o)
 .ARM.attributes
                0x00000000000007cc       0x32 C:\gnat\2021-arm-elf\arm-eabi\lib\gnat\ravenscar-full-nrf52833\adalib\libgnat.a(s-traceb.o)
 .ARM.attributes
                0x00000000000007fe       0x32 C:\gnat\2021-arm-elf\arm-eabi\lib\gnat\ravenscar-full-nrf52833\adalib\libgnat.a(s-traent.o)
 .ARM.attributes
                0x0000000000000830       0x32 C:\gnat\2021-arm-elf\arm-eabi\lib\gnat\ravenscar-full-nrf52833\adalib\libgnat.a(s-valuns.o)
 .ARM.attributes
                0x0000000000000862       0x32 C:\gnat\2021-arm-elf\arm-eabi\lib\gnat\ravenscar-full-nrf52833\adalib\libgnat.a(s-valuti.o)
 .ARM.attributes
                0x0000000000000894       0x32 C:\gnat\2021-arm-elf\arm-eabi\lib\gnat\ravenscar-full-nrf52833\adalib\libgnat.a(s-wchcon.o)
 .ARM.attributes
                0x00000000000008c6       0x32 C:\gnat\2021-arm-elf\arm-eabi\lib\gnat\ravenscar-full-nrf52833\adalib\libgnat.a(s-wchstw.o)
 .ARM.attributes
                0x00000000000008f8       0x25 C:\gnat\2021-arm-elf\arm-eabi\lib\gnat\ravenscar-full-nrf52833\adalib\libgnat.a(start-rom.o)
 .ARM.attributes
                0x000000000000091d       0x32 C:\gnat\2021-arm-elf\arm-eabi\lib\gnat\ravenscar-full-nrf52833\adalib\libgnat.a(a-elchha.o)
 .ARM.attributes
                0x000000000000094f       0x32 C:\gnat\2021-arm-elf\arm-eabi\lib\gnat\ravenscar-full-nrf52833\adalib\libgnat.a(a-stbuut.o)
 .ARM.attributes
                0x0000000000000981       0x32 C:\gnat\2021-arm-elf\arm-eabi\lib\gnat\ravenscar-full-nrf52833\adalib\libgnat.a(a-suezst.o)
 .ARM.attributes
                0x00000000000009b3       0x25 C:\gnat\2021-arm-elf\arm-eabi\lib\gnat\ravenscar-full-nrf52833\adalib\libgnat.a(breakpoint_handler-cortexm.o)
 .ARM.attributes
                0x00000000000009d8       0x32 C:\gnat\2021-arm-elf\arm-eabi\lib\gnat\ravenscar-full-nrf52833\adalib\libgnat.a(g-debuti.o)
 .ARM.attributes
                0x0000000000000a0a       0x32 C:\gnat\2021-arm-elf\arm-eabi\lib\gnat\ravenscar-full-nrf52833\adalib\libgnat.a(s-casuti.o)
 .ARM.attributes
                0x0000000000000a3c       0x32 C:\gnat\2021-arm-elf\arm-eabi\lib\gnat\ravenscar-full-nrf52833\adalib\libgnat.a(s-wchjis.o)
 .ARM.attributes
                0x0000000000000a6e       0x32 C:\gnat\2021-arm-elf\arm-eabi\lib\gnat\ravenscar-full-nrf52833\adalib\libgnat.a(setup_board.o)
 .ARM.attributes
                0x0000000000000aa0       0x25 C:\gnat\2021-arm-elf\arm-eabi\lib\gnat\ravenscar-full-nrf52833\adalib\libgnat.a(start-common.o)
 .ARM.attributes
                0x0000000000000ac5       0x32 C:\gnat\2021-arm-elf\arm-eabi\lib\gnat\ravenscar-full-nrf52833\adalib\libgnat.a(a-stuten.o)
 .ARM.attributes
                0x0000000000000af7       0x34 c:/gnat/2021-arm-elf/bin/../lib/gcc/arm-eabi/10.3.1/../../../../arm-eabi/lib/thumb/v7e-m/fpv4-sp/hard\libc.a(lib_a-malloc.o)
 .ARM.attributes
                0x0000000000000b2b       0x34 c:/gnat/2021-arm-elf/bin/../lib/gcc/arm-eabi/10.3.1/../../../../arm-eabi/lib/thumb/v7e-m/fpv4-sp/hard\libc.a(lib_a-mallocr.o)
 .ARM.attributes
                0x0000000000000b5f       0x34 c:/gnat/2021-arm-elf/bin/../lib/gcc/arm-eabi/10.3.1/../../../../arm-eabi/lib/thumb/v7e-m/fpv4-sp/hard\libc.a(lib_a-memcmp.o)
 .ARM.attributes
                0x0000000000000b93       0x1c c:/gnat/2021-arm-elf/bin/../lib/gcc/arm-eabi/10.3.1/../../../../arm-eabi/lib/thumb/v7e-m/fpv4-sp/hard\libc.a(lib_a-memcpy.o)
 .ARM.attributes
                0x0000000000000baf       0x34 c:/gnat/2021-arm-elf/bin/../lib/gcc/arm-eabi/10.3.1/../../../../arm-eabi/lib/thumb/v7e-m/fpv4-sp/hard\libc.a(lib_a-memmove.o)
 .ARM.attributes
                0x0000000000000be3       0x34 c:/gnat/2021-arm-elf/bin/../lib/gcc/arm-eabi/10.3.1/../../../../arm-eabi/lib/thumb/v7e-m/fpv4-sp/hard\libc.a(lib_a-memset.o)
 .ARM.attributes
                0x0000000000000c17       0x34 c:/gnat/2021-arm-elf/bin/../lib/gcc/arm-eabi/10.3.1/../../../../arm-eabi/lib/thumb/v7e-m/fpv4-sp/hard\libc.a(lib_a-mlock.o)
 .ARM.attributes
                0x0000000000000c4b       0x34 c:/gnat/2021-arm-elf/bin/../lib/gcc/arm-eabi/10.3.1/../../../../arm-eabi/lib/thumb/v7e-m/fpv4-sp/hard\libc.a(lib_a-realloc.o)
 .ARM.attributes
                0x0000000000000c7f       0x34 c:/gnat/2021-arm-elf/bin/../lib/gcc/arm-eabi/10.3.1/../../../../arm-eabi/lib/thumb/v7e-m/fpv4-sp/hard\libc.a(lib_a-reallocr.o)
 .ARM.attributes
                0x0000000000000cb3       0x34 c:/gnat/2021-arm-elf/bin/../lib/gcc/arm-eabi/10.3.1/../../../../arm-eabi/lib/thumb/v7e-m/fpv4-sp/hard\libc.a(lib_a-sbrkr.o)
 .ARM.attributes
                0x0000000000000ce7       0x34 c:/gnat/2021-arm-elf/bin/../lib/gcc/arm-eabi/10.3.1/../../../../arm-eabi/lib/thumb/v7e-m/fpv4-sp/hard\libc.a(lib_a-freer.o)
 .ARM.attributes
                0x0000000000000d1b       0x32 c:/gnat/2021-arm-elf/bin/../lib/gcc/arm-eabi/10.3.1/../../../../arm-eabi/lib/thumb/v7e-m/fpv4-sp/hard\libc.a(lib_a-impure.o)
 .ARM.attributes
                0x0000000000000d4d       0x34 c:/gnat/2021-arm-elf/bin/../lib/gcc/arm-eabi/10.3.1/../../../../arm-eabi/lib/thumb/v7e-m/fpv4-sp/hard\libc.a(lib_a-reent.o)
 .ARM.attributes
                0x0000000000000d81       0x34 C:\gnat\2021-arm-elf\arm-eabi\lib\gnat\ravenscar-full-nrf52833\adalib\\libgnat.a(newlib-bb.o)
 .ARM.attributes
                0x0000000000000db5       0x1e c:/gnat/2021-arm-elf/bin/../lib/gcc/arm-eabi/10.3.1/thumb/v7e-m/fpv4-sp/hard\libgcc.a(_aeabi_ldivmod.o)
 .ARM.attributes
                0x0000000000000dd3       0x1e c:/gnat/2021-arm-elf/bin/../lib/gcc/arm-eabi/10.3.1/thumb/v7e-m/fpv4-sp/hard\libgcc.a(_aeabi_uldivmod.o)
 .ARM.attributes
                0x0000000000000df1       0x34 c:/gnat/2021-arm-elf/bin/../lib/gcc/arm-eabi/10.3.1/thumb/v7e-m/fpv4-sp/hard\libgcc.a(_udivmoddi4.o)
 .ARM.attributes
                0x0000000000000e25       0x34 c:/gnat/2021-arm-elf/bin/../lib/gcc/arm-eabi/10.3.1/thumb/v7e-m/fpv4-sp/hard\libgcc.a(unwind-arm.o)
 .ARM.attributes
                0x0000000000000e59       0x1e c:/gnat/2021-arm-elf/bin/../lib/gcc/arm-eabi/10.3.1/thumb/v7e-m/fpv4-sp/hard\libgcc.a(libunwind.o)
 .ARM.attributes
                0x0000000000000e77       0x34 c:/gnat/2021-arm-elf/bin/../lib/gcc/arm-eabi/10.3.1/thumb/v7e-m/fpv4-sp/hard\libgcc.a(pr-support.o)
 .ARM.attributes
                0x0000000000000eab       0x1e c:/gnat/2021-arm-elf/bin/../lib/gcc/arm-eabi/10.3.1/thumb/v7e-m/fpv4-sp/hard\libgcc.a(_dvmd_tls.o)
 .ARM.attributes
                0x0000000000000ec9       0x34 c:/gnat/2021-arm-elf/bin/../lib/gcc/arm-eabi/10.3.1/../../../../arm-eabi/lib/thumb/v7e-m/fpv4-sp/hard\libc.a(lib_a-errno.o)

.gnu.attributes
 *(.gnu.attributes)

/DISCARD/
 *(.note.GNU-stack)
 *(.gnu_debuglink)
 *(.gnu.lto_*)
OUTPUT(test elf32-littlearm)
LOAD linker stubs
